
GAVR_reCycle.elf:     file format elf32-avr

Sections:
Idx Name          Size      VMA       LMA       File off  Algn
  0 .data         0000005a  00800200  0000298c  00002a40  2**0
                  CONTENTS, ALLOC, LOAD, DATA
  1 .text         0000298c  00000000  00000000  000000b4  2**1
                  CONTENTS, ALLOC, LOAD, READONLY, CODE
  2 .bss          00000040  0080025a  0080025a  00002a9a  2**0
                  ALLOC
  3 .eeprom       00000007  00810000  00810000  00002a9a  2**0
                  CONTENTS, ALLOC, LOAD, DATA
  4 .stab         000010e0  00000000  00000000  00002aa4  2**2
                  CONTENTS, READONLY, DEBUGGING
  5 .stabstr      00000585  00000000  00000000  00003b84  2**0
                  CONTENTS, READONLY, DEBUGGING
  6 .debug_aranges 000000e0  00000000  00000000  00004110  2**3
                  CONTENTS, READONLY, DEBUGGING
  7 .debug_info   0000060b  00000000  00000000  000041f0  2**0
                  CONTENTS, READONLY, DEBUGGING
  8 .debug_abbrev 0000008c  00000000  00000000  000047fb  2**0
                  CONTENTS, READONLY, DEBUGGING
  9 .debug_line   000003fb  00000000  00000000  00004887  2**0
                  CONTENTS, READONLY, DEBUGGING

Disassembly of section .text:

00000000 <__vectors>:
       0:	0c 94 73 00 	jmp	0xe6	; 0xe6 <__ctors_end>
       4:	0c 94 dc 0e 	jmp	0x1db8	; 0x1db8 <__vector_1>
       8:	0c 94 25 0f 	jmp	0x1e4a	; 0x1e4a <__vector_2>
       c:	0c 94 a4 00 	jmp	0x148	; 0x148 <__bad_interrupt>
      10:	0c 94 a4 00 	jmp	0x148	; 0x148 <__bad_interrupt>
      14:	0c 94 a4 00 	jmp	0x148	; 0x148 <__bad_interrupt>
      18:	0c 94 a4 00 	jmp	0x148	; 0x148 <__bad_interrupt>
      1c:	0c 94 6e 0f 	jmp	0x1edc	; 0x1edc <__vector_7>
      20:	0c 94 83 0f 	jmp	0x1f06	; 0x1f06 <__vector_8>
      24:	0c 94 a4 00 	jmp	0x148	; 0x148 <__bad_interrupt>
      28:	0c 94 a4 00 	jmp	0x148	; 0x148 <__bad_interrupt>
      2c:	0c 94 a4 00 	jmp	0x148	; 0x148 <__bad_interrupt>
      30:	0c 94 a4 00 	jmp	0x148	; 0x148 <__bad_interrupt>
      34:	0c 94 a4 00 	jmp	0x148	; 0x148 <__bad_interrupt>
      38:	0c 94 a4 00 	jmp	0x148	; 0x148 <__bad_interrupt>
      3c:	0c 94 93 0f 	jmp	0x1f26	; 0x1f26 <__vector_15>
      40:	0c 94 a4 00 	jmp	0x148	; 0x148 <__bad_interrupt>
      44:	0c 94 a4 00 	jmp	0x148	; 0x148 <__bad_interrupt>
      48:	0c 94 a4 00 	jmp	0x148	; 0x148 <__bad_interrupt>
      4c:	0c 94 a4 00 	jmp	0x148	; 0x148 <__bad_interrupt>
      50:	0c 94 a4 00 	jmp	0x148	; 0x148 <__bad_interrupt>
      54:	0c 94 a4 00 	jmp	0x148	; 0x148 <__bad_interrupt>
      58:	0c 94 a4 00 	jmp	0x148	; 0x148 <__bad_interrupt>
      5c:	0c 94 a4 00 	jmp	0x148	; 0x148 <__bad_interrupt>
      60:	0c 94 a4 00 	jmp	0x148	; 0x148 <__bad_interrupt>
      64:	0c 94 1b 11 	jmp	0x2236	; 0x2236 <__vector_25>
      68:	0c 94 a4 00 	jmp	0x148	; 0x148 <__bad_interrupt>
      6c:	0c 94 a4 00 	jmp	0x148	; 0x148 <__bad_interrupt>
      70:	0c 94 a4 00 	jmp	0x148	; 0x148 <__bad_interrupt>
      74:	0c 94 a4 00 	jmp	0x148	; 0x148 <__bad_interrupt>
      78:	0c 94 a4 00 	jmp	0x148	; 0x148 <__bad_interrupt>
      7c:	0c 94 a4 00 	jmp	0x148	; 0x148 <__bad_interrupt>
      80:	0c 94 a4 00 	jmp	0x148	; 0x148 <__bad_interrupt>
      84:	0c 94 a4 00 	jmp	0x148	; 0x148 <__bad_interrupt>
      88:	0c 94 a4 00 	jmp	0x148	; 0x148 <__bad_interrupt>
      8c:	0c 94 a4 00 	jmp	0x148	; 0x148 <__bad_interrupt>
      90:	0c 94 4d 11 	jmp	0x229a	; 0x229a <__vector_36>
      94:	0c 94 a4 00 	jmp	0x148	; 0x148 <__bad_interrupt>
      98:	0c 94 a4 00 	jmp	0x148	; 0x148 <__bad_interrupt>
      9c:	0c 94 a4 00 	jmp	0x148	; 0x148 <__bad_interrupt>
      a0:	0c 94 a4 00 	jmp	0x148	; 0x148 <__bad_interrupt>
      a4:	0c 94 a4 00 	jmp	0x148	; 0x148 <__bad_interrupt>
      a8:	0c 94 a4 00 	jmp	0x148	; 0x148 <__bad_interrupt>
      ac:	0c 94 a4 00 	jmp	0x148	; 0x148 <__bad_interrupt>
      b0:	0c 94 a4 00 	jmp	0x148	; 0x148 <__bad_interrupt>
      b4:	0c 94 a4 00 	jmp	0x148	; 0x148 <__bad_interrupt>
      b8:	0c 94 a4 00 	jmp	0x148	; 0x148 <__bad_interrupt>
      bc:	0c 94 a4 00 	jmp	0x148	; 0x148 <__bad_interrupt>
      c0:	0c 94 a4 00 	jmp	0x148	; 0x148 <__bad_interrupt>
      c4:	0c 94 a4 00 	jmp	0x148	; 0x148 <__bad_interrupt>
      c8:	0c 94 a4 00 	jmp	0x148	; 0x148 <__bad_interrupt>
      cc:	0c 94 a4 00 	jmp	0x148	; 0x148 <__bad_interrupt>
      d0:	0c 94 a4 00 	jmp	0x148	; 0x148 <__bad_interrupt>
      d4:	0c 94 a4 00 	jmp	0x148	; 0x148 <__bad_interrupt>
      d8:	0c 94 a4 00 	jmp	0x148	; 0x148 <__bad_interrupt>
      dc:	0c 94 a4 00 	jmp	0x148	; 0x148 <__bad_interrupt>
      e0:	0c 94 a4 00 	jmp	0x148	; 0x148 <__bad_interrupt>

000000e4 <__ctors_start>:
      e4:	db 13       	cpse	r29, r27

000000e6 <__ctors_end>:
      e6:	11 24       	eor	r1, r1
      e8:	1f be       	out	0x3f, r1	; 63
      ea:	cf ef       	ldi	r28, 0xFF	; 255
      ec:	d1 e2       	ldi	r29, 0x21	; 33
      ee:	de bf       	out	0x3e, r29	; 62
      f0:	cd bf       	out	0x3d, r28	; 61
      f2:	00 e0       	ldi	r16, 0x00	; 0
      f4:	0c bf       	out	0x3c, r16	; 60

000000f6 <__do_copy_data>:
      f6:	12 e0       	ldi	r17, 0x02	; 2
      f8:	a0 e0       	ldi	r26, 0x00	; 0
      fa:	b2 e0       	ldi	r27, 0x02	; 2
      fc:	ec e8       	ldi	r30, 0x8C	; 140
      fe:	f9 e2       	ldi	r31, 0x29	; 41
     100:	00 e0       	ldi	r16, 0x00	; 0
     102:	0b bf       	out	0x3b, r16	; 59
     104:	02 c0       	rjmp	.+4      	; 0x10a <__do_copy_data+0x14>
     106:	07 90       	elpm	r0, Z+
     108:	0d 92       	st	X+, r0
     10a:	aa 35       	cpi	r26, 0x5A	; 90
     10c:	b1 07       	cpc	r27, r17
     10e:	d9 f7       	brne	.-10     	; 0x106 <__do_copy_data+0x10>

00000110 <__do_clear_bss>:
     110:	12 e0       	ldi	r17, 0x02	; 2
     112:	aa e5       	ldi	r26, 0x5A	; 90
     114:	b2 e0       	ldi	r27, 0x02	; 2
     116:	01 c0       	rjmp	.+2      	; 0x11a <.do_clear_bss_start>

00000118 <.do_clear_bss_loop>:
     118:	1d 92       	st	X+, r1

0000011a <.do_clear_bss_start>:
     11a:	aa 39       	cpi	r26, 0x9A	; 154
     11c:	b1 07       	cpc	r27, r17
     11e:	e1 f7       	brne	.-8      	; 0x118 <.do_clear_bss_loop>

00000120 <__do_global_ctors>:
     120:	10 e0       	ldi	r17, 0x00	; 0
     122:	c6 ee       	ldi	r28, 0xE6	; 230
     124:	d0 e0       	ldi	r29, 0x00	; 0
     126:	00 e0       	ldi	r16, 0x00	; 0
     128:	06 c0       	rjmp	.+12     	; 0x136 <__do_global_ctors+0x16>
     12a:	22 97       	sbiw	r28, 0x02	; 2
     12c:	01 09       	sbc	r16, r1
     12e:	fe 01       	movw	r30, r28
     130:	0b bf       	out	0x3b, r16	; 59
     132:	0e 94 0f 14 	call	0x281e	; 0x281e <__tablejump_elpm__>
     136:	c4 3e       	cpi	r28, 0xE4	; 228
     138:	d1 07       	cpc	r29, r17
     13a:	80 e0       	ldi	r24, 0x00	; 0
     13c:	08 07       	cpc	r16, r24
     13e:	a9 f7       	brne	.-22     	; 0x12a <__do_global_ctors+0xa>
     140:	0e 94 7f 11 	call	0x22fe	; 0x22fe <main>
     144:	0c 94 c4 14 	jmp	0x2988	; 0x2988 <_exit>

00000148 <__bad_interrupt>:
     148:	0c 94 00 00 	jmp	0	; 0x0 <__vectors>

0000014c <_ZN6myDateC1Ev>:
     14c:	cf 93       	push	r28
     14e:	df 93       	push	r29
     150:	0f 92       	push	r0
     152:	0f 92       	push	r0
     154:	cd b7       	in	r28, 0x3d	; 61
     156:	de b7       	in	r29, 0x3e	; 62
     158:	9a 83       	std	Y+2, r25	; 0x02
     15a:	89 83       	std	Y+1, r24	; 0x01
     15c:	89 81       	ldd	r24, Y+1	; 0x01
     15e:	9a 81       	ldd	r25, Y+2	; 0x02
     160:	fc 01       	movw	r30, r24
     162:	11 82       	std	Z+1, r1	; 0x01
     164:	10 82       	st	Z, r1
     166:	89 81       	ldd	r24, Y+1	; 0x01
     168:	9a 81       	ldd	r25, Y+2	; 0x02
     16a:	fc 01       	movw	r30, r24
     16c:	13 82       	std	Z+3, r1	; 0x03
     16e:	12 82       	std	Z+2, r1	; 0x02
     170:	89 81       	ldd	r24, Y+1	; 0x01
     172:	9a 81       	ldd	r25, Y+2	; 0x02
     174:	fc 01       	movw	r30, r24
     176:	15 82       	std	Z+5, r1	; 0x05
     178:	14 82       	std	Z+4, r1	; 0x04
     17a:	0f 90       	pop	r0
     17c:	0f 90       	pop	r0
     17e:	df 91       	pop	r29
     180:	cf 91       	pop	r28
     182:	08 95       	ret

00000184 <_ZN6myDateC1Eiii>:
     184:	cf 93       	push	r28
     186:	df 93       	push	r29
     188:	cd b7       	in	r28, 0x3d	; 61
     18a:	de b7       	in	r29, 0x3e	; 62
     18c:	28 97       	sbiw	r28, 0x08	; 8
     18e:	0f b6       	in	r0, 0x3f	; 63
     190:	f8 94       	cli
     192:	de bf       	out	0x3e, r29	; 62
     194:	0f be       	out	0x3f, r0	; 63
     196:	cd bf       	out	0x3d, r28	; 61
     198:	9a 83       	std	Y+2, r25	; 0x02
     19a:	89 83       	std	Y+1, r24	; 0x01
     19c:	7c 83       	std	Y+4, r23	; 0x04
     19e:	6b 83       	std	Y+3, r22	; 0x03
     1a0:	5e 83       	std	Y+6, r21	; 0x06
     1a2:	4d 83       	std	Y+5, r20	; 0x05
     1a4:	38 87       	std	Y+8, r19	; 0x08
     1a6:	2f 83       	std	Y+7, r18	; 0x07
     1a8:	89 81       	ldd	r24, Y+1	; 0x01
     1aa:	9a 81       	ldd	r25, Y+2	; 0x02
     1ac:	6b 81       	ldd	r22, Y+3	; 0x03
     1ae:	7c 81       	ldd	r23, Y+4	; 0x04
     1b0:	4d 81       	ldd	r20, Y+5	; 0x05
     1b2:	5e 81       	ldd	r21, Y+6	; 0x06
     1b4:	2f 81       	ldd	r18, Y+7	; 0x07
     1b6:	38 85       	ldd	r19, Y+8	; 0x08
     1b8:	0e 94 c5 01 	call	0x38a	; 0x38a <_ZN6myDate7setDateEiii>
     1bc:	28 96       	adiw	r28, 0x08	; 8
     1be:	0f b6       	in	r0, 0x3f	; 63
     1c0:	f8 94       	cli
     1c2:	de bf       	out	0x3e, r29	; 62
     1c4:	0f be       	out	0x3f, r0	; 63
     1c6:	cd bf       	out	0x3d, r28	; 61
     1c8:	df 91       	pop	r29
     1ca:	cf 91       	pop	r28
     1cc:	08 95       	ret

000001ce <_ZN6myDate9getMonthsEv>:
     1ce:	cf 93       	push	r28
     1d0:	df 93       	push	r29
     1d2:	0f 92       	push	r0
     1d4:	0f 92       	push	r0
     1d6:	cd b7       	in	r28, 0x3d	; 61
     1d8:	de b7       	in	r29, 0x3e	; 62
     1da:	9a 83       	std	Y+2, r25	; 0x02
     1dc:	89 83       	std	Y+1, r24	; 0x01
     1de:	89 81       	ldd	r24, Y+1	; 0x01
     1e0:	9a 81       	ldd	r25, Y+2	; 0x02
     1e2:	fc 01       	movw	r30, r24
     1e4:	80 81       	ld	r24, Z
     1e6:	91 81       	ldd	r25, Z+1	; 0x01
     1e8:	0f 90       	pop	r0
     1ea:	0f 90       	pop	r0
     1ec:	df 91       	pop	r29
     1ee:	cf 91       	pop	r28
     1f0:	08 95       	ret

000001f2 <_ZN6myDate8getYearsEv>:
     1f2:	cf 93       	push	r28
     1f4:	df 93       	push	r29
     1f6:	0f 92       	push	r0
     1f8:	0f 92       	push	r0
     1fa:	cd b7       	in	r28, 0x3d	; 61
     1fc:	de b7       	in	r29, 0x3e	; 62
     1fe:	9a 83       	std	Y+2, r25	; 0x02
     200:	89 83       	std	Y+1, r24	; 0x01
     202:	89 81       	ldd	r24, Y+1	; 0x01
     204:	9a 81       	ldd	r25, Y+2	; 0x02
     206:	fc 01       	movw	r30, r24
     208:	84 81       	ldd	r24, Z+4	; 0x04
     20a:	95 81       	ldd	r25, Z+5	; 0x05
     20c:	0f 90       	pop	r0
     20e:	0f 90       	pop	r0
     210:	df 91       	pop	r29
     212:	cf 91       	pop	r28
     214:	08 95       	ret

00000216 <_ZN6myDate7getDaysEv>:
     216:	cf 93       	push	r28
     218:	df 93       	push	r29
     21a:	0f 92       	push	r0
     21c:	0f 92       	push	r0
     21e:	cd b7       	in	r28, 0x3d	; 61
     220:	de b7       	in	r29, 0x3e	; 62
     222:	9a 83       	std	Y+2, r25	; 0x02
     224:	89 83       	std	Y+1, r24	; 0x01
     226:	89 81       	ldd	r24, Y+1	; 0x01
     228:	9a 81       	ldd	r25, Y+2	; 0x02
     22a:	fc 01       	movw	r30, r24
     22c:	82 81       	ldd	r24, Z+2	; 0x02
     22e:	93 81       	ldd	r25, Z+3	; 0x03
     230:	0f 90       	pop	r0
     232:	0f 90       	pop	r0
     234:	df 91       	pop	r29
     236:	cf 91       	pop	r28
     238:	08 95       	ret

0000023a <_ZN6myDate8setMonthEi>:
     23a:	cf 93       	push	r28
     23c:	df 93       	push	r29
     23e:	00 d0       	rcall	.+0      	; 0x240 <_ZN6myDate8setMonthEi+0x6>
     240:	0f 92       	push	r0
     242:	cd b7       	in	r28, 0x3d	; 61
     244:	de b7       	in	r29, 0x3e	; 62
     246:	9a 83       	std	Y+2, r25	; 0x02
     248:	89 83       	std	Y+1, r24	; 0x01
     24a:	7c 83       	std	Y+4, r23	; 0x04
     24c:	6b 83       	std	Y+3, r22	; 0x03
     24e:	8b 81       	ldd	r24, Y+3	; 0x03
     250:	9c 81       	ldd	r25, Y+4	; 0x04
     252:	0c 96       	adiw	r24, 0x0c	; 12
     254:	89 31       	cpi	r24, 0x19	; 25
     256:	91 05       	cpc	r25, r1
     258:	38 f4       	brcc	.+14     	; 0x268 <_ZN6myDate8setMonthEi+0x2e>
     25a:	89 81       	ldd	r24, Y+1	; 0x01
     25c:	9a 81       	ldd	r25, Y+2	; 0x02
     25e:	2b 81       	ldd	r18, Y+3	; 0x03
     260:	3c 81       	ldd	r19, Y+4	; 0x04
     262:	fc 01       	movw	r30, r24
     264:	31 83       	std	Z+1, r19	; 0x01
     266:	20 83       	st	Z, r18
     268:	0f 90       	pop	r0
     26a:	0f 90       	pop	r0
     26c:	0f 90       	pop	r0
     26e:	0f 90       	pop	r0
     270:	df 91       	pop	r29
     272:	cf 91       	pop	r28
     274:	08 95       	ret

00000276 <_ZN6myDate6setDayEi>:
     276:	cf 93       	push	r28
     278:	df 93       	push	r29
     27a:	00 d0       	rcall	.+0      	; 0x27c <_ZN6myDate6setDayEi+0x6>
     27c:	0f 92       	push	r0
     27e:	cd b7       	in	r28, 0x3d	; 61
     280:	de b7       	in	r29, 0x3e	; 62
     282:	9a 83       	std	Y+2, r25	; 0x02
     284:	89 83       	std	Y+1, r24	; 0x01
     286:	7c 83       	std	Y+4, r23	; 0x04
     288:	6b 83       	std	Y+3, r22	; 0x03
     28a:	89 81       	ldd	r24, Y+1	; 0x01
     28c:	9a 81       	ldd	r25, Y+2	; 0x02
     28e:	fc 01       	movw	r30, r24
     290:	80 81       	ld	r24, Z
     292:	91 81       	ldd	r25, Z+1	; 0x01
     294:	89 30       	cpi	r24, 0x09	; 9
     296:	91 05       	cpc	r25, r1
     298:	81 f0       	breq	.+32     	; 0x2ba <_ZN6myDate6setDayEi+0x44>
     29a:	89 81       	ldd	r24, Y+1	; 0x01
     29c:	9a 81       	ldd	r25, Y+2	; 0x02
     29e:	fc 01       	movw	r30, r24
     2a0:	80 81       	ld	r24, Z
     2a2:	91 81       	ldd	r25, Z+1	; 0x01
     2a4:	84 30       	cpi	r24, 0x04	; 4
     2a6:	91 05       	cpc	r25, r1
     2a8:	41 f0       	breq	.+16     	; 0x2ba <_ZN6myDate6setDayEi+0x44>
     2aa:	89 81       	ldd	r24, Y+1	; 0x01
     2ac:	9a 81       	ldd	r25, Y+2	; 0x02
     2ae:	fc 01       	movw	r30, r24
     2b0:	80 81       	ld	r24, Z
     2b2:	91 81       	ldd	r25, Z+1	; 0x01
     2b4:	86 30       	cpi	r24, 0x06	; 6
     2b6:	91 05       	cpc	r25, r1
     2b8:	41 f4       	brne	.+16     	; 0x2ca <_ZN6myDate6setDayEi+0x54>
     2ba:	8b 81       	ldd	r24, Y+3	; 0x03
     2bc:	9c 81       	ldd	r25, Y+4	; 0x04
     2be:	4e 96       	adiw	r24, 0x1e	; 30
     2c0:	8d 33       	cpi	r24, 0x3D	; 61
     2c2:	91 05       	cpc	r25, r1
     2c4:	10 f4       	brcc	.+4      	; 0x2ca <_ZN6myDate6setDayEi+0x54>
     2c6:	81 e0       	ldi	r24, 0x01	; 1
     2c8:	01 c0       	rjmp	.+2      	; 0x2cc <_ZN6myDate6setDayEi+0x56>
     2ca:	80 e0       	ldi	r24, 0x00	; 0
     2cc:	88 23       	and	r24, r24
     2ce:	41 f0       	breq	.+16     	; 0x2e0 <_ZN6myDate6setDayEi+0x6a>
     2d0:	89 81       	ldd	r24, Y+1	; 0x01
     2d2:	9a 81       	ldd	r25, Y+2	; 0x02
     2d4:	2b 81       	ldd	r18, Y+3	; 0x03
     2d6:	3c 81       	ldd	r19, Y+4	; 0x04
     2d8:	fc 01       	movw	r30, r24
     2da:	33 83       	std	Z+3, r19	; 0x03
     2dc:	22 83       	std	Z+2, r18	; 0x02
     2de:	28 c0       	rjmp	.+80     	; 0x330 <_ZN6myDate6setDayEi+0xba>
     2e0:	89 81       	ldd	r24, Y+1	; 0x01
     2e2:	9a 81       	ldd	r25, Y+2	; 0x02
     2e4:	fc 01       	movw	r30, r24
     2e6:	80 81       	ld	r24, Z
     2e8:	91 81       	ldd	r25, Z+1	; 0x01
     2ea:	82 30       	cpi	r24, 0x02	; 2
     2ec:	91 05       	cpc	r25, r1
     2ee:	41 f4       	brne	.+16     	; 0x300 <_ZN6myDate6setDayEi+0x8a>
     2f0:	8b 81       	ldd	r24, Y+3	; 0x03
     2f2:	9c 81       	ldd	r25, Y+4	; 0x04
     2f4:	4c 96       	adiw	r24, 0x1c	; 28
     2f6:	89 33       	cpi	r24, 0x39	; 57
     2f8:	91 05       	cpc	r25, r1
     2fa:	10 f4       	brcc	.+4      	; 0x300 <_ZN6myDate6setDayEi+0x8a>
     2fc:	81 e0       	ldi	r24, 0x01	; 1
     2fe:	01 c0       	rjmp	.+2      	; 0x302 <_ZN6myDate6setDayEi+0x8c>
     300:	80 e0       	ldi	r24, 0x00	; 0
     302:	88 23       	and	r24, r24
     304:	41 f0       	breq	.+16     	; 0x316 <_ZN6myDate6setDayEi+0xa0>
     306:	89 81       	ldd	r24, Y+1	; 0x01
     308:	9a 81       	ldd	r25, Y+2	; 0x02
     30a:	2b 81       	ldd	r18, Y+3	; 0x03
     30c:	3c 81       	ldd	r19, Y+4	; 0x04
     30e:	fc 01       	movw	r30, r24
     310:	33 83       	std	Z+3, r19	; 0x03
     312:	22 83       	std	Z+2, r18	; 0x02
     314:	0d c0       	rjmp	.+26     	; 0x330 <_ZN6myDate6setDayEi+0xba>
     316:	8b 81       	ldd	r24, Y+3	; 0x03
     318:	9c 81       	ldd	r25, Y+4	; 0x04
     31a:	4f 96       	adiw	r24, 0x1f	; 31
     31c:	8f 33       	cpi	r24, 0x3F	; 63
     31e:	91 05       	cpc	r25, r1
     320:	38 f4       	brcc	.+14     	; 0x330 <_ZN6myDate6setDayEi+0xba>
     322:	89 81       	ldd	r24, Y+1	; 0x01
     324:	9a 81       	ldd	r25, Y+2	; 0x02
     326:	2b 81       	ldd	r18, Y+3	; 0x03
     328:	3c 81       	ldd	r19, Y+4	; 0x04
     32a:	fc 01       	movw	r30, r24
     32c:	33 83       	std	Z+3, r19	; 0x03
     32e:	22 83       	std	Z+2, r18	; 0x02
     330:	0f 90       	pop	r0
     332:	0f 90       	pop	r0
     334:	0f 90       	pop	r0
     336:	0f 90       	pop	r0
     338:	df 91       	pop	r29
     33a:	cf 91       	pop	r28
     33c:	08 95       	ret

0000033e <_ZN6myDate7setYearEi>:
     33e:	cf 93       	push	r28
     340:	df 93       	push	r29
     342:	00 d0       	rcall	.+0      	; 0x344 <_ZN6myDate7setYearEi+0x6>
     344:	0f 92       	push	r0
     346:	cd b7       	in	r28, 0x3d	; 61
     348:	de b7       	in	r29, 0x3e	; 62
     34a:	9a 83       	std	Y+2, r25	; 0x02
     34c:	89 83       	std	Y+1, r24	; 0x01
     34e:	7c 83       	std	Y+4, r23	; 0x04
     350:	6b 83       	std	Y+3, r22	; 0x03
     352:	8b 81       	ldd	r24, Y+3	; 0x03
     354:	9c 81       	ldd	r25, Y+4	; 0x04
     356:	27 e0       	ldi	r18, 0x07	; 7
     358:	80 3d       	cpi	r24, 0xD0	; 208
     35a:	92 07       	cpc	r25, r18
     35c:	44 f0       	brlt	.+16     	; 0x36e <_ZN6myDate7setYearEi+0x30>
     35e:	89 81       	ldd	r24, Y+1	; 0x01
     360:	9a 81       	ldd	r25, Y+2	; 0x02
     362:	2b 81       	ldd	r18, Y+3	; 0x03
     364:	3c 81       	ldd	r19, Y+4	; 0x04
     366:	fc 01       	movw	r30, r24
     368:	35 83       	std	Z+5, r19	; 0x05
     36a:	24 83       	std	Z+4, r18	; 0x04
     36c:	07 c0       	rjmp	.+14     	; 0x37c <_ZN6myDate7setYearEi+0x3e>
     36e:	89 81       	ldd	r24, Y+1	; 0x01
     370:	9a 81       	ldd	r25, Y+2	; 0x02
     372:	22 ef       	ldi	r18, 0xF2	; 242
     374:	33 e0       	ldi	r19, 0x03	; 3
     376:	fc 01       	movw	r30, r24
     378:	35 83       	std	Z+5, r19	; 0x05
     37a:	24 83       	std	Z+4, r18	; 0x04
     37c:	0f 90       	pop	r0
     37e:	0f 90       	pop	r0
     380:	0f 90       	pop	r0
     382:	0f 90       	pop	r0
     384:	df 91       	pop	r29
     386:	cf 91       	pop	r28
     388:	08 95       	ret

0000038a <_ZN6myDate7setDateEiii>:
     38a:	cf 93       	push	r28
     38c:	df 93       	push	r29
     38e:	cd b7       	in	r28, 0x3d	; 61
     390:	de b7       	in	r29, 0x3e	; 62
     392:	28 97       	sbiw	r28, 0x08	; 8
     394:	0f b6       	in	r0, 0x3f	; 63
     396:	f8 94       	cli
     398:	de bf       	out	0x3e, r29	; 62
     39a:	0f be       	out	0x3f, r0	; 63
     39c:	cd bf       	out	0x3d, r28	; 61
     39e:	9a 83       	std	Y+2, r25	; 0x02
     3a0:	89 83       	std	Y+1, r24	; 0x01
     3a2:	7c 83       	std	Y+4, r23	; 0x04
     3a4:	6b 83       	std	Y+3, r22	; 0x03
     3a6:	5e 83       	std	Y+6, r21	; 0x06
     3a8:	4d 83       	std	Y+5, r20	; 0x05
     3aa:	38 87       	std	Y+8, r19	; 0x08
     3ac:	2f 83       	std	Y+7, r18	; 0x07
     3ae:	89 81       	ldd	r24, Y+1	; 0x01
     3b0:	9a 81       	ldd	r25, Y+2	; 0x02
     3b2:	2b 81       	ldd	r18, Y+3	; 0x03
     3b4:	3c 81       	ldd	r19, Y+4	; 0x04
     3b6:	b9 01       	movw	r22, r18
     3b8:	0e 94 1d 01 	call	0x23a	; 0x23a <_ZN6myDate8setMonthEi>
     3bc:	89 81       	ldd	r24, Y+1	; 0x01
     3be:	9a 81       	ldd	r25, Y+2	; 0x02
     3c0:	2d 81       	ldd	r18, Y+5	; 0x05
     3c2:	3e 81       	ldd	r19, Y+6	; 0x06
     3c4:	b9 01       	movw	r22, r18
     3c6:	0e 94 3b 01 	call	0x276	; 0x276 <_ZN6myDate6setDayEi>
     3ca:	89 81       	ldd	r24, Y+1	; 0x01
     3cc:	9a 81       	ldd	r25, Y+2	; 0x02
     3ce:	2f 81       	ldd	r18, Y+7	; 0x07
     3d0:	38 85       	ldd	r19, Y+8	; 0x08
     3d2:	b9 01       	movw	r22, r18
     3d4:	0e 94 9f 01 	call	0x33e	; 0x33e <_ZN6myDate7setYearEi>
     3d8:	28 96       	adiw	r28, 0x08	; 8
     3da:	0f b6       	in	r0, 0x3f	; 63
     3dc:	f8 94       	cli
     3de:	de bf       	out	0x3e, r29	; 62
     3e0:	0f be       	out	0x3f, r0	; 63
     3e2:	cd bf       	out	0x3d, r28	; 61
     3e4:	df 91       	pop	r29
     3e6:	cf 91       	pop	r28
     3e8:	08 95       	ret

000003ea <_ZN6myDate8addYearsEi>:
     3ea:	cf 93       	push	r28
     3ec:	df 93       	push	r29
     3ee:	00 d0       	rcall	.+0      	; 0x3f0 <_ZN6myDate8addYearsEi+0x6>
     3f0:	00 d0       	rcall	.+0      	; 0x3f2 <_ZN6myDate8addYearsEi+0x8>
     3f2:	cd b7       	in	r28, 0x3d	; 61
     3f4:	de b7       	in	r29, 0x3e	; 62
     3f6:	9c 83       	std	Y+4, r25	; 0x04
     3f8:	8b 83       	std	Y+3, r24	; 0x03
     3fa:	7e 83       	std	Y+6, r23	; 0x06
     3fc:	6d 83       	std	Y+5, r22	; 0x05
     3fe:	8b 81       	ldd	r24, Y+3	; 0x03
     400:	9c 81       	ldd	r25, Y+4	; 0x04
     402:	fc 01       	movw	r30, r24
     404:	24 81       	ldd	r18, Z+4	; 0x04
     406:	35 81       	ldd	r19, Z+5	; 0x05
     408:	8d 81       	ldd	r24, Y+5	; 0x05
     40a:	9e 81       	ldd	r25, Y+6	; 0x06
     40c:	82 0f       	add	r24, r18
     40e:	93 1f       	adc	r25, r19
     410:	9a 83       	std	Y+2, r25	; 0x02
     412:	89 83       	std	Y+1, r24	; 0x01
     414:	89 81       	ldd	r24, Y+1	; 0x01
     416:	9a 81       	ldd	r25, Y+2	; 0x02
     418:	21 e0       	ldi	r18, 0x01	; 1
     41a:	f7 e0       	ldi	r31, 0x07	; 7
     41c:	8d 3d       	cpi	r24, 0xDD	; 221
     41e:	9f 07       	cpc	r25, r31
     420:	0c f4       	brge	.+2      	; 0x424 <_ZN6myDate8addYearsEi+0x3a>
     422:	20 e0       	ldi	r18, 0x00	; 0
     424:	22 23       	and	r18, r18
     426:	39 f0       	breq	.+14     	; 0x436 <_ZN6myDate8addYearsEi+0x4c>
     428:	29 81       	ldd	r18, Y+1	; 0x01
     42a:	3a 81       	ldd	r19, Y+2	; 0x02
     42c:	8b 81       	ldd	r24, Y+3	; 0x03
     42e:	9c 81       	ldd	r25, Y+4	; 0x04
     430:	fc 01       	movw	r30, r24
     432:	35 83       	std	Z+5, r19	; 0x05
     434:	24 83       	std	Z+4, r18	; 0x04
     436:	26 96       	adiw	r28, 0x06	; 6
     438:	0f b6       	in	r0, 0x3f	; 63
     43a:	f8 94       	cli
     43c:	de bf       	out	0x3e, r29	; 62
     43e:	0f be       	out	0x3f, r0	; 63
     440:	cd bf       	out	0x3d, r28	; 61
     442:	df 91       	pop	r29
     444:	cf 91       	pop	r28
     446:	08 95       	ret

00000448 <_ZN6myDate9addMonthsEi>:
     448:	cf 93       	push	r28
     44a:	df 93       	push	r29
     44c:	cd b7       	in	r28, 0x3d	; 61
     44e:	de b7       	in	r29, 0x3e	; 62
     450:	2a 97       	sbiw	r28, 0x0a	; 10
     452:	0f b6       	in	r0, 0x3f	; 63
     454:	f8 94       	cli
     456:	de bf       	out	0x3e, r29	; 62
     458:	0f be       	out	0x3f, r0	; 63
     45a:	cd bf       	out	0x3d, r28	; 61
     45c:	98 87       	std	Y+8, r25	; 0x08
     45e:	8f 83       	std	Y+7, r24	; 0x07
     460:	7a 87       	std	Y+10, r23	; 0x0a
     462:	69 87       	std	Y+9, r22	; 0x09
     464:	8f 81       	ldd	r24, Y+7	; 0x07
     466:	98 85       	ldd	r25, Y+8	; 0x08
     468:	fc 01       	movw	r30, r24
     46a:	20 81       	ld	r18, Z
     46c:	31 81       	ldd	r19, Z+1	; 0x01
     46e:	89 85       	ldd	r24, Y+9	; 0x09
     470:	9a 85       	ldd	r25, Y+10	; 0x0a
     472:	82 0f       	add	r24, r18
     474:	93 1f       	adc	r25, r19
     476:	9e 83       	std	Y+6, r25	; 0x06
     478:	8d 83       	std	Y+5, r24	; 0x05
     47a:	8d 81       	ldd	r24, Y+5	; 0x05
     47c:	9e 81       	ldd	r25, Y+6	; 0x06
     47e:	8d 30       	cpi	r24, 0x0D	; 13
     480:	91 05       	cpc	r25, r1
     482:	3c f0       	brlt	.+14     	; 0x492 <_ZN6myDate9addMonthsEi+0x4a>
     484:	8d 81       	ldd	r24, Y+5	; 0x05
     486:	9e 81       	ldd	r25, Y+6	; 0x06
     488:	89 31       	cpi	r24, 0x19	; 25
     48a:	91 05       	cpc	r25, r1
     48c:	14 f4       	brge	.+4      	; 0x492 <_ZN6myDate9addMonthsEi+0x4a>
     48e:	81 e0       	ldi	r24, 0x01	; 1
     490:	01 c0       	rjmp	.+2      	; 0x494 <_ZN6myDate9addMonthsEi+0x4c>
     492:	80 e0       	ldi	r24, 0x00	; 0
     494:	88 23       	and	r24, r24
     496:	61 f0       	breq	.+24     	; 0x4b0 <_ZN6myDate9addMonthsEi+0x68>
     498:	81 e0       	ldi	r24, 0x01	; 1
     49a:	90 e0       	ldi	r25, 0x00	; 0
     49c:	9a 83       	std	Y+2, r25	; 0x02
     49e:	89 83       	std	Y+1, r24	; 0x01
     4a0:	8f 81       	ldd	r24, Y+7	; 0x07
     4a2:	98 85       	ldd	r25, Y+8	; 0x08
     4a4:	29 81       	ldd	r18, Y+1	; 0x01
     4a6:	3a 81       	ldd	r19, Y+2	; 0x02
     4a8:	b9 01       	movw	r22, r18
     4aa:	0e 94 f5 01 	call	0x3ea	; 0x3ea <_ZN6myDate8addYearsEi>
     4ae:	22 c0       	rjmp	.+68     	; 0x4f4 <_ZN6myDate9addMonthsEi+0xac>
     4b0:	8d 81       	ldd	r24, Y+5	; 0x05
     4b2:	9e 81       	ldd	r25, Y+6	; 0x06
     4b4:	21 e0       	ldi	r18, 0x01	; 1
     4b6:	89 31       	cpi	r24, 0x19	; 25
     4b8:	91 05       	cpc	r25, r1
     4ba:	0c f4       	brge	.+2      	; 0x4be <_ZN6myDate9addMonthsEi+0x76>
     4bc:	20 e0       	ldi	r18, 0x00	; 0
     4be:	22 23       	and	r18, r18
     4c0:	91 f0       	breq	.+36     	; 0x4e6 <_ZN6myDate9addMonthsEi+0x9e>
     4c2:	8d 81       	ldd	r24, Y+5	; 0x05
     4c4:	9e 81       	ldd	r25, Y+6	; 0x06
     4c6:	2c e0       	ldi	r18, 0x0C	; 12
     4c8:	30 e0       	ldi	r19, 0x00	; 0
     4ca:	b9 01       	movw	r22, r18
     4cc:	0e 94 e8 13 	call	0x27d0	; 0x27d0 <__divmodhi4>
     4d0:	9b 01       	movw	r18, r22
     4d2:	3c 83       	std	Y+4, r19	; 0x04
     4d4:	2b 83       	std	Y+3, r18	; 0x03
     4d6:	8f 81       	ldd	r24, Y+7	; 0x07
     4d8:	98 85       	ldd	r25, Y+8	; 0x08
     4da:	2b 81       	ldd	r18, Y+3	; 0x03
     4dc:	3c 81       	ldd	r19, Y+4	; 0x04
     4de:	b9 01       	movw	r22, r18
     4e0:	0e 94 f5 01 	call	0x3ea	; 0x3ea <_ZN6myDate8addYearsEi>
     4e4:	07 c0       	rjmp	.+14     	; 0x4f4 <_ZN6myDate9addMonthsEi+0xac>
     4e6:	2d 81       	ldd	r18, Y+5	; 0x05
     4e8:	3e 81       	ldd	r19, Y+6	; 0x06
     4ea:	8f 81       	ldd	r24, Y+7	; 0x07
     4ec:	98 85       	ldd	r25, Y+8	; 0x08
     4ee:	fc 01       	movw	r30, r24
     4f0:	31 83       	std	Z+1, r19	; 0x01
     4f2:	20 83       	st	Z, r18
     4f4:	2a 96       	adiw	r28, 0x0a	; 10
     4f6:	0f b6       	in	r0, 0x3f	; 63
     4f8:	f8 94       	cli
     4fa:	de bf       	out	0x3e, r29	; 62
     4fc:	0f be       	out	0x3f, r0	; 63
     4fe:	cd bf       	out	0x3d, r28	; 61
     500:	df 91       	pop	r29
     502:	cf 91       	pop	r28
     504:	08 95       	ret

00000506 <_ZN6myDate7addDaysEi>:
     506:	cf 93       	push	r28
     508:	df 93       	push	r29
     50a:	00 d0       	rcall	.+0      	; 0x50c <_ZN6myDate7addDaysEi+0x6>
     50c:	00 d0       	rcall	.+0      	; 0x50e <_ZN6myDate7addDaysEi+0x8>
     50e:	cd b7       	in	r28, 0x3d	; 61
     510:	de b7       	in	r29, 0x3e	; 62
     512:	9c 83       	std	Y+4, r25	; 0x04
     514:	8b 83       	std	Y+3, r24	; 0x03
     516:	7e 83       	std	Y+6, r23	; 0x06
     518:	6d 83       	std	Y+5, r22	; 0x05
     51a:	8b 81       	ldd	r24, Y+3	; 0x03
     51c:	9c 81       	ldd	r25, Y+4	; 0x04
     51e:	fc 01       	movw	r30, r24
     520:	22 81       	ldd	r18, Z+2	; 0x02
     522:	33 81       	ldd	r19, Z+3	; 0x03
     524:	8d 81       	ldd	r24, Y+5	; 0x05
     526:	9e 81       	ldd	r25, Y+6	; 0x06
     528:	82 0f       	add	r24, r18
     52a:	93 1f       	adc	r25, r19
     52c:	9a 83       	std	Y+2, r25	; 0x02
     52e:	89 83       	std	Y+1, r24	; 0x01
     530:	8b 81       	ldd	r24, Y+3	; 0x03
     532:	9c 81       	ldd	r25, Y+4	; 0x04
     534:	fc 01       	movw	r30, r24
     536:	80 81       	ld	r24, Z
     538:	91 81       	ldd	r25, Z+1	; 0x01
     53a:	89 30       	cpi	r24, 0x09	; 9
     53c:	91 05       	cpc	r25, r1
     53e:	81 f0       	breq	.+32     	; 0x560 <_ZN6myDate7addDaysEi+0x5a>
     540:	8b 81       	ldd	r24, Y+3	; 0x03
     542:	9c 81       	ldd	r25, Y+4	; 0x04
     544:	fc 01       	movw	r30, r24
     546:	80 81       	ld	r24, Z
     548:	91 81       	ldd	r25, Z+1	; 0x01
     54a:	84 30       	cpi	r24, 0x04	; 4
     54c:	91 05       	cpc	r25, r1
     54e:	41 f0       	breq	.+16     	; 0x560 <_ZN6myDate7addDaysEi+0x5a>
     550:	8b 81       	ldd	r24, Y+3	; 0x03
     552:	9c 81       	ldd	r25, Y+4	; 0x04
     554:	fc 01       	movw	r30, r24
     556:	80 81       	ld	r24, Z
     558:	91 81       	ldd	r25, Z+1	; 0x01
     55a:	86 30       	cpi	r24, 0x06	; 6
     55c:	91 05       	cpc	r25, r1
     55e:	11 f4       	brne	.+4      	; 0x564 <_ZN6myDate7addDaysEi+0x5e>
     560:	81 e0       	ldi	r24, 0x01	; 1
     562:	01 c0       	rjmp	.+2      	; 0x566 <_ZN6myDate7addDaysEi+0x60>
     564:	80 e0       	ldi	r24, 0x00	; 0
     566:	88 23       	and	r24, r24
     568:	31 f1       	breq	.+76     	; 0x5b6 <_ZN6myDate7addDaysEi+0xb0>
     56a:	89 81       	ldd	r24, Y+1	; 0x01
     56c:	9a 81       	ldd	r25, Y+2	; 0x02
     56e:	4e 96       	adiw	r24, 0x1e	; 30
     570:	21 e0       	ldi	r18, 0x01	; 1
     572:	8d 33       	cpi	r24, 0x3D	; 61
     574:	91 05       	cpc	r25, r1
     576:	08 f0       	brcs	.+2      	; 0x57a <_ZN6myDate7addDaysEi+0x74>
     578:	20 e0       	ldi	r18, 0x00	; 0
     57a:	22 23       	and	r18, r18
     57c:	41 f0       	breq	.+16     	; 0x58e <_ZN6myDate7addDaysEi+0x88>
     57e:	29 81       	ldd	r18, Y+1	; 0x01
     580:	3a 81       	ldd	r19, Y+2	; 0x02
     582:	8b 81       	ldd	r24, Y+3	; 0x03
     584:	9c 81       	ldd	r25, Y+4	; 0x04
     586:	fc 01       	movw	r30, r24
     588:	33 83       	std	Z+3, r19	; 0x03
     58a:	22 83       	std	Z+2, r18	; 0x02
     58c:	71 c0       	rjmp	.+226    	; 0x670 <_ZN6myDate7addDaysEi+0x16a>
     58e:	8b 81       	ldd	r24, Y+3	; 0x03
     590:	9c 81       	ldd	r25, Y+4	; 0x04
     592:	61 e0       	ldi	r22, 0x01	; 1
     594:	70 e0       	ldi	r23, 0x00	; 0
     596:	0e 94 24 02 	call	0x448	; 0x448 <_ZN6myDate9addMonthsEi>
     59a:	89 81       	ldd	r24, Y+1	; 0x01
     59c:	9a 81       	ldd	r25, Y+2	; 0x02
     59e:	2f e1       	ldi	r18, 0x1F	; 31
     5a0:	30 e0       	ldi	r19, 0x00	; 0
     5a2:	b9 01       	movw	r22, r18
     5a4:	0e 94 e8 13 	call	0x27d0	; 0x27d0 <__divmodhi4>
     5a8:	9c 01       	movw	r18, r24
     5aa:	8b 81       	ldd	r24, Y+3	; 0x03
     5ac:	9c 81       	ldd	r25, Y+4	; 0x04
     5ae:	fc 01       	movw	r30, r24
     5b0:	33 83       	std	Z+3, r19	; 0x03
     5b2:	22 83       	std	Z+2, r18	; 0x02
     5b4:	5d c0       	rjmp	.+186    	; 0x670 <_ZN6myDate7addDaysEi+0x16a>
     5b6:	8b 81       	ldd	r24, Y+3	; 0x03
     5b8:	9c 81       	ldd	r25, Y+4	; 0x04
     5ba:	fc 01       	movw	r30, r24
     5bc:	80 81       	ld	r24, Z
     5be:	91 81       	ldd	r25, Z+1	; 0x01
     5c0:	21 e0       	ldi	r18, 0x01	; 1
     5c2:	82 30       	cpi	r24, 0x02	; 2
     5c4:	91 05       	cpc	r25, r1
     5c6:	09 f0       	breq	.+2      	; 0x5ca <_ZN6myDate7addDaysEi+0xc4>
     5c8:	20 e0       	ldi	r18, 0x00	; 0
     5ca:	22 23       	and	r18, r18
     5cc:	49 f1       	breq	.+82     	; 0x620 <_ZN6myDate7addDaysEi+0x11a>
     5ce:	8b 81       	ldd	r24, Y+3	; 0x03
     5d0:	9c 81       	ldd	r25, Y+4	; 0x04
     5d2:	fc 01       	movw	r30, r24
     5d4:	82 81       	ldd	r24, Z+2	; 0x02
     5d6:	93 81       	ldd	r25, Z+3	; 0x03
     5d8:	4c 96       	adiw	r24, 0x1c	; 28
     5da:	21 e0       	ldi	r18, 0x01	; 1
     5dc:	89 33       	cpi	r24, 0x39	; 57
     5de:	91 05       	cpc	r25, r1
     5e0:	08 f0       	brcs	.+2      	; 0x5e4 <_ZN6myDate7addDaysEi+0xde>
     5e2:	20 e0       	ldi	r18, 0x00	; 0
     5e4:	22 23       	and	r18, r18
     5e6:	41 f0       	breq	.+16     	; 0x5f8 <_ZN6myDate7addDaysEi+0xf2>
     5e8:	29 81       	ldd	r18, Y+1	; 0x01
     5ea:	3a 81       	ldd	r19, Y+2	; 0x02
     5ec:	8b 81       	ldd	r24, Y+3	; 0x03
     5ee:	9c 81       	ldd	r25, Y+4	; 0x04
     5f0:	fc 01       	movw	r30, r24
     5f2:	33 83       	std	Z+3, r19	; 0x03
     5f4:	22 83       	std	Z+2, r18	; 0x02
     5f6:	3c c0       	rjmp	.+120    	; 0x670 <_ZN6myDate7addDaysEi+0x16a>
     5f8:	8b 81       	ldd	r24, Y+3	; 0x03
     5fa:	9c 81       	ldd	r25, Y+4	; 0x04
     5fc:	61 e0       	ldi	r22, 0x01	; 1
     5fe:	70 e0       	ldi	r23, 0x00	; 0
     600:	0e 94 24 02 	call	0x448	; 0x448 <_ZN6myDate9addMonthsEi>
     604:	89 81       	ldd	r24, Y+1	; 0x01
     606:	9a 81       	ldd	r25, Y+2	; 0x02
     608:	2d e1       	ldi	r18, 0x1D	; 29
     60a:	30 e0       	ldi	r19, 0x00	; 0
     60c:	b9 01       	movw	r22, r18
     60e:	0e 94 e8 13 	call	0x27d0	; 0x27d0 <__divmodhi4>
     612:	9c 01       	movw	r18, r24
     614:	8b 81       	ldd	r24, Y+3	; 0x03
     616:	9c 81       	ldd	r25, Y+4	; 0x04
     618:	fc 01       	movw	r30, r24
     61a:	33 83       	std	Z+3, r19	; 0x03
     61c:	22 83       	std	Z+2, r18	; 0x02
     61e:	28 c0       	rjmp	.+80     	; 0x670 <_ZN6myDate7addDaysEi+0x16a>
     620:	8b 81       	ldd	r24, Y+3	; 0x03
     622:	9c 81       	ldd	r25, Y+4	; 0x04
     624:	fc 01       	movw	r30, r24
     626:	82 81       	ldd	r24, Z+2	; 0x02
     628:	93 81       	ldd	r25, Z+3	; 0x03
     62a:	4f 96       	adiw	r24, 0x1f	; 31
     62c:	21 e0       	ldi	r18, 0x01	; 1
     62e:	8f 33       	cpi	r24, 0x3F	; 63
     630:	91 05       	cpc	r25, r1
     632:	08 f0       	brcs	.+2      	; 0x636 <_ZN6myDate7addDaysEi+0x130>
     634:	20 e0       	ldi	r18, 0x00	; 0
     636:	22 23       	and	r18, r18
     638:	41 f0       	breq	.+16     	; 0x64a <_ZN6myDate7addDaysEi+0x144>
     63a:	29 81       	ldd	r18, Y+1	; 0x01
     63c:	3a 81       	ldd	r19, Y+2	; 0x02
     63e:	8b 81       	ldd	r24, Y+3	; 0x03
     640:	9c 81       	ldd	r25, Y+4	; 0x04
     642:	fc 01       	movw	r30, r24
     644:	33 83       	std	Z+3, r19	; 0x03
     646:	22 83       	std	Z+2, r18	; 0x02
     648:	13 c0       	rjmp	.+38     	; 0x670 <_ZN6myDate7addDaysEi+0x16a>
     64a:	8b 81       	ldd	r24, Y+3	; 0x03
     64c:	9c 81       	ldd	r25, Y+4	; 0x04
     64e:	61 e0       	ldi	r22, 0x01	; 1
     650:	70 e0       	ldi	r23, 0x00	; 0
     652:	0e 94 24 02 	call	0x448	; 0x448 <_ZN6myDate9addMonthsEi>
     656:	89 81       	ldd	r24, Y+1	; 0x01
     658:	9a 81       	ldd	r25, Y+2	; 0x02
     65a:	20 e2       	ldi	r18, 0x20	; 32
     65c:	30 e0       	ldi	r19, 0x00	; 0
     65e:	b9 01       	movw	r22, r18
     660:	0e 94 e8 13 	call	0x27d0	; 0x27d0 <__divmodhi4>
     664:	9c 01       	movw	r18, r24
     666:	8b 81       	ldd	r24, Y+3	; 0x03
     668:	9c 81       	ldd	r25, Y+4	; 0x04
     66a:	fc 01       	movw	r30, r24
     66c:	33 83       	std	Z+3, r19	; 0x03
     66e:	22 83       	std	Z+2, r18	; 0x02
     670:	26 96       	adiw	r28, 0x06	; 6
     672:	0f b6       	in	r0, 0x3f	; 63
     674:	f8 94       	cli
     676:	de bf       	out	0x3e, r29	; 62
     678:	0f be       	out	0x3f, r0	; 63
     67a:	cd bf       	out	0x3d, r28	; 61
     67c:	df 91       	pop	r29
     67e:	cf 91       	pop	r28
     680:	08 95       	ret

00000682 <_ZN6myDate17checkValidityDateEv>:
     682:	cf 93       	push	r28
     684:	df 93       	push	r29
     686:	00 d0       	rcall	.+0      	; 0x688 <_ZN6myDate17checkValidityDateEv+0x6>
     688:	cd b7       	in	r28, 0x3d	; 61
     68a:	de b7       	in	r29, 0x3e	; 62
     68c:	9b 83       	std	Y+3, r25	; 0x03
     68e:	8a 83       	std	Y+2, r24	; 0x02
     690:	19 82       	std	Y+1, r1	; 0x01
     692:	8a 81       	ldd	r24, Y+2	; 0x02
     694:	9b 81       	ldd	r25, Y+3	; 0x03
     696:	fc 01       	movw	r30, r24
     698:	80 81       	ld	r24, Z
     69a:	91 81       	ldd	r25, Z+1	; 0x01
     69c:	0c 96       	adiw	r24, 0x0c	; 12
     69e:	21 e0       	ldi	r18, 0x01	; 1
     6a0:	89 31       	cpi	r24, 0x19	; 25
     6a2:	91 05       	cpc	r25, r1
     6a4:	08 f0       	brcs	.+2      	; 0x6a8 <_ZN6myDate17checkValidityDateEv+0x26>
     6a6:	20 e0       	ldi	r18, 0x00	; 0
     6a8:	22 23       	and	r18, r18
     6aa:	09 f4       	brne	.+2      	; 0x6ae <_ZN6myDate17checkValidityDateEv+0x2c>
     6ac:	66 c0       	rjmp	.+204    	; 0x77a <_ZN6myDate17checkValidityDateEv+0xf8>
     6ae:	8a 81       	ldd	r24, Y+2	; 0x02
     6b0:	9b 81       	ldd	r25, Y+3	; 0x03
     6b2:	fc 01       	movw	r30, r24
     6b4:	80 81       	ld	r24, Z
     6b6:	91 81       	ldd	r25, Z+1	; 0x01
     6b8:	89 30       	cpi	r24, 0x09	; 9
     6ba:	91 05       	cpc	r25, r1
     6bc:	81 f0       	breq	.+32     	; 0x6de <_ZN6myDate17checkValidityDateEv+0x5c>
     6be:	8a 81       	ldd	r24, Y+2	; 0x02
     6c0:	9b 81       	ldd	r25, Y+3	; 0x03
     6c2:	fc 01       	movw	r30, r24
     6c4:	80 81       	ld	r24, Z
     6c6:	91 81       	ldd	r25, Z+1	; 0x01
     6c8:	84 30       	cpi	r24, 0x04	; 4
     6ca:	91 05       	cpc	r25, r1
     6cc:	41 f0       	breq	.+16     	; 0x6de <_ZN6myDate17checkValidityDateEv+0x5c>
     6ce:	8a 81       	ldd	r24, Y+2	; 0x02
     6d0:	9b 81       	ldd	r25, Y+3	; 0x03
     6d2:	fc 01       	movw	r30, r24
     6d4:	80 81       	ld	r24, Z
     6d6:	91 81       	ldd	r25, Z+1	; 0x01
     6d8:	86 30       	cpi	r24, 0x06	; 6
     6da:	91 05       	cpc	r25, r1
     6dc:	59 f4       	brne	.+22     	; 0x6f4 <_ZN6myDate17checkValidityDateEv+0x72>
     6de:	8a 81       	ldd	r24, Y+2	; 0x02
     6e0:	9b 81       	ldd	r25, Y+3	; 0x03
     6e2:	fc 01       	movw	r30, r24
     6e4:	82 81       	ldd	r24, Z+2	; 0x02
     6e6:	93 81       	ldd	r25, Z+3	; 0x03
     6e8:	4e 96       	adiw	r24, 0x1e	; 30
     6ea:	8d 33       	cpi	r24, 0x3D	; 61
     6ec:	91 05       	cpc	r25, r1
     6ee:	10 f4       	brcc	.+4      	; 0x6f4 <_ZN6myDate17checkValidityDateEv+0x72>
     6f0:	81 e0       	ldi	r24, 0x01	; 1
     6f2:	01 c0       	rjmp	.+2      	; 0x6f6 <_ZN6myDate17checkValidityDateEv+0x74>
     6f4:	80 e0       	ldi	r24, 0x00	; 0
     6f6:	88 23       	and	r24, r24
     6f8:	19 f0       	breq	.+6      	; 0x700 <_ZN6myDate17checkValidityDateEv+0x7e>
     6fa:	81 e0       	ldi	r24, 0x01	; 1
     6fc:	89 83       	std	Y+1, r24	; 0x01
     6fe:	28 c0       	rjmp	.+80     	; 0x750 <_ZN6myDate17checkValidityDateEv+0xce>
     700:	8a 81       	ldd	r24, Y+2	; 0x02
     702:	9b 81       	ldd	r25, Y+3	; 0x03
     704:	fc 01       	movw	r30, r24
     706:	80 81       	ld	r24, Z
     708:	91 81       	ldd	r25, Z+1	; 0x01
     70a:	82 30       	cpi	r24, 0x02	; 2
     70c:	91 05       	cpc	r25, r1
     70e:	59 f4       	brne	.+22     	; 0x726 <_ZN6myDate17checkValidityDateEv+0xa4>
     710:	8a 81       	ldd	r24, Y+2	; 0x02
     712:	9b 81       	ldd	r25, Y+3	; 0x03
     714:	fc 01       	movw	r30, r24
     716:	82 81       	ldd	r24, Z+2	; 0x02
     718:	93 81       	ldd	r25, Z+3	; 0x03
     71a:	4c 96       	adiw	r24, 0x1c	; 28
     71c:	89 33       	cpi	r24, 0x39	; 57
     71e:	91 05       	cpc	r25, r1
     720:	10 f4       	brcc	.+4      	; 0x726 <_ZN6myDate17checkValidityDateEv+0xa4>
     722:	81 e0       	ldi	r24, 0x01	; 1
     724:	01 c0       	rjmp	.+2      	; 0x728 <_ZN6myDate17checkValidityDateEv+0xa6>
     726:	80 e0       	ldi	r24, 0x00	; 0
     728:	88 23       	and	r24, r24
     72a:	19 f0       	breq	.+6      	; 0x732 <_ZN6myDate17checkValidityDateEv+0xb0>
     72c:	81 e0       	ldi	r24, 0x01	; 1
     72e:	89 83       	std	Y+1, r24	; 0x01
     730:	0f c0       	rjmp	.+30     	; 0x750 <_ZN6myDate17checkValidityDateEv+0xce>
     732:	8a 81       	ldd	r24, Y+2	; 0x02
     734:	9b 81       	ldd	r25, Y+3	; 0x03
     736:	fc 01       	movw	r30, r24
     738:	82 81       	ldd	r24, Z+2	; 0x02
     73a:	93 81       	ldd	r25, Z+3	; 0x03
     73c:	4f 96       	adiw	r24, 0x1f	; 31
     73e:	21 e0       	ldi	r18, 0x01	; 1
     740:	8f 33       	cpi	r24, 0x3F	; 63
     742:	91 05       	cpc	r25, r1
     744:	08 f0       	brcs	.+2      	; 0x748 <_ZN6myDate17checkValidityDateEv+0xc6>
     746:	20 e0       	ldi	r18, 0x00	; 0
     748:	22 23       	and	r18, r18
     74a:	11 f0       	breq	.+4      	; 0x750 <_ZN6myDate17checkValidityDateEv+0xce>
     74c:	81 e0       	ldi	r24, 0x01	; 1
     74e:	89 83       	std	Y+1, r24	; 0x01
     750:	89 81       	ldd	r24, Y+1	; 0x01
     752:	88 23       	and	r24, r24
     754:	59 f0       	breq	.+22     	; 0x76c <_ZN6myDate17checkValidityDateEv+0xea>
     756:	8a 81       	ldd	r24, Y+2	; 0x02
     758:	9b 81       	ldd	r25, Y+3	; 0x03
     75a:	fc 01       	movw	r30, r24
     75c:	84 81       	ldd	r24, Z+4	; 0x04
     75e:	95 81       	ldd	r25, Z+5	; 0x05
     760:	f7 e0       	ldi	r31, 0x07	; 7
     762:	8d 3d       	cpi	r24, 0xDD	; 221
     764:	9f 07       	cpc	r25, r31
     766:	14 f0       	brlt	.+4      	; 0x76c <_ZN6myDate17checkValidityDateEv+0xea>
     768:	81 e0       	ldi	r24, 0x01	; 1
     76a:	01 c0       	rjmp	.+2      	; 0x76e <_ZN6myDate17checkValidityDateEv+0xec>
     76c:	80 e0       	ldi	r24, 0x00	; 0
     76e:	88 23       	and	r24, r24
     770:	11 f0       	breq	.+4      	; 0x776 <_ZN6myDate17checkValidityDateEv+0xf4>
     772:	81 e0       	ldi	r24, 0x01	; 1
     774:	03 c0       	rjmp	.+6      	; 0x77c <_ZN6myDate17checkValidityDateEv+0xfa>
     776:	80 e0       	ldi	r24, 0x00	; 0
     778:	01 c0       	rjmp	.+2      	; 0x77c <_ZN6myDate17checkValidityDateEv+0xfa>
     77a:	80 e0       	ldi	r24, 0x00	; 0
     77c:	0f 90       	pop	r0
     77e:	0f 90       	pop	r0
     780:	0f 90       	pop	r0
     782:	df 91       	pop	r29
     784:	cf 91       	pop	r28
     786:	08 95       	ret

00000788 <_ZN6myDate7getDateEv>:
     788:	cf 93       	push	r28
     78a:	df 93       	push	r29
     78c:	cd b7       	in	r28, 0x3d	; 61
     78e:	de b7       	in	r29, 0x3e	; 62
     790:	2d 97       	sbiw	r28, 0x0d	; 13
     792:	0f b6       	in	r0, 0x3f	; 63
     794:	f8 94       	cli
     796:	de bf       	out	0x3e, r29	; 62
     798:	0f be       	out	0x3f, r0	; 63
     79a:	cd bf       	out	0x3d, r28	; 61
     79c:	9d 87       	std	Y+13, r25	; 0x0d
     79e:	8c 87       	std	Y+12, r24	; 0x0c
     7a0:	8c 85       	ldd	r24, Y+12	; 0x0c
     7a2:	9d 85       	ldd	r25, Y+13	; 0x0d
     7a4:	fc 01       	movw	r30, r24
     7a6:	80 81       	ld	r24, Z
     7a8:	91 81       	ldd	r25, Z+1	; 0x01
     7aa:	9e 01       	movw	r18, r28
     7ac:	2f 5f       	subi	r18, 0xFF	; 255
     7ae:	3f 4f       	sbci	r19, 0xFF	; 255
     7b0:	b9 01       	movw	r22, r18
     7b2:	4a e0       	ldi	r20, 0x0A	; 10
     7b4:	50 e0       	ldi	r21, 0x00	; 0
     7b6:	0e 94 5a 14 	call	0x28b4	; 0x28b4 <itoa>
     7ba:	8c 85       	ldd	r24, Y+12	; 0x0c
     7bc:	9d 85       	ldd	r25, Y+13	; 0x0d
     7be:	fc 01       	movw	r30, r24
     7c0:	82 81       	ldd	r24, Z+2	; 0x02
     7c2:	93 81       	ldd	r25, Z+3	; 0x03
     7c4:	9e 01       	movw	r18, r28
     7c6:	2c 5f       	subi	r18, 0xFC	; 252
     7c8:	3f 4f       	sbci	r19, 0xFF	; 255
     7ca:	b9 01       	movw	r22, r18
     7cc:	4a e0       	ldi	r20, 0x0A	; 10
     7ce:	50 e0       	ldi	r21, 0x00	; 0
     7d0:	0e 94 5a 14 	call	0x28b4	; 0x28b4 <itoa>
     7d4:	8c 85       	ldd	r24, Y+12	; 0x0c
     7d6:	9d 85       	ldd	r25, Y+13	; 0x0d
     7d8:	fc 01       	movw	r30, r24
     7da:	84 81       	ldd	r24, Z+4	; 0x04
     7dc:	95 81       	ldd	r25, Z+5	; 0x05
     7de:	9e 01       	movw	r18, r28
     7e0:	29 5f       	subi	r18, 0xF9	; 249
     7e2:	3f 4f       	sbci	r19, 0xFF	; 255
     7e4:	b9 01       	movw	r22, r18
     7e6:	4a e0       	ldi	r20, 0x0A	; 10
     7e8:	50 e0       	ldi	r21, 0x00	; 0
     7ea:	0e 94 5a 14 	call	0x28b4	; 0x28b4 <itoa>
     7ee:	8c 85       	ldd	r24, Y+12	; 0x0c
     7f0:	9d 85       	ldd	r25, Y+13	; 0x0d
     7f2:	06 96       	adiw	r24, 0x06	; 6
     7f4:	9e 01       	movw	r18, r28
     7f6:	2f 5f       	subi	r18, 0xFF	; 255
     7f8:	3f 4f       	sbci	r19, 0xFF	; 255
     7fa:	b9 01       	movw	r22, r18
     7fc:	0e 94 45 14 	call	0x288a	; 0x288a <strcpy>
     800:	8c 85       	ldd	r24, Y+12	; 0x0c
     802:	9d 85       	ldd	r25, Y+13	; 0x0d
     804:	9c 01       	movw	r18, r24
     806:	2a 5f       	subi	r18, 0xFA	; 250
     808:	3f 4f       	sbci	r19, 0xFF	; 255
     80a:	c9 01       	movw	r24, r18
     80c:	ac 01       	movw	r20, r24
     80e:	fa 01       	movw	r30, r20
     810:	01 90       	ld	r0, Z+
     812:	00 20       	and	r0, r0
     814:	e9 f7       	brne	.-6      	; 0x810 <_ZN6myDate7getDateEv+0x88>
     816:	cf 01       	movw	r24, r30
     818:	01 97       	sbiw	r24, 0x01	; 1
     81a:	84 1b       	sub	r24, r20
     81c:	95 0b       	sbc	r25, r21
     81e:	82 0f       	add	r24, r18
     820:	93 1f       	adc	r25, r19
     822:	2c e2       	ldi	r18, 0x2C	; 44
     824:	30 e0       	ldi	r19, 0x00	; 0
     826:	fc 01       	movw	r30, r24
     828:	31 83       	std	Z+1, r19	; 0x01
     82a:	20 83       	st	Z, r18
     82c:	8c 85       	ldd	r24, Y+12	; 0x0c
     82e:	9d 85       	ldd	r25, Y+13	; 0x0d
     830:	06 96       	adiw	r24, 0x06	; 6
     832:	9e 01       	movw	r18, r28
     834:	2c 5f       	subi	r18, 0xFC	; 252
     836:	3f 4f       	sbci	r19, 0xFF	; 255
     838:	b9 01       	movw	r22, r18
     83a:	0e 94 31 14 	call	0x2862	; 0x2862 <strcat>
     83e:	8c 85       	ldd	r24, Y+12	; 0x0c
     840:	9d 85       	ldd	r25, Y+13	; 0x0d
     842:	9c 01       	movw	r18, r24
     844:	2a 5f       	subi	r18, 0xFA	; 250
     846:	3f 4f       	sbci	r19, 0xFF	; 255
     848:	c9 01       	movw	r24, r18
     84a:	ac 01       	movw	r20, r24
     84c:	fa 01       	movw	r30, r20
     84e:	01 90       	ld	r0, Z+
     850:	00 20       	and	r0, r0
     852:	e9 f7       	brne	.-6      	; 0x84e <_ZN6myDate7getDateEv+0xc6>
     854:	cf 01       	movw	r24, r30
     856:	01 97       	sbiw	r24, 0x01	; 1
     858:	84 1b       	sub	r24, r20
     85a:	95 0b       	sbc	r25, r21
     85c:	82 0f       	add	r24, r18
     85e:	93 1f       	adc	r25, r19
     860:	2c e2       	ldi	r18, 0x2C	; 44
     862:	30 e0       	ldi	r19, 0x00	; 0
     864:	fc 01       	movw	r30, r24
     866:	31 83       	std	Z+1, r19	; 0x01
     868:	20 83       	st	Z, r18
     86a:	8c 85       	ldd	r24, Y+12	; 0x0c
     86c:	9d 85       	ldd	r25, Y+13	; 0x0d
     86e:	06 96       	adiw	r24, 0x06	; 6
     870:	9e 01       	movw	r18, r28
     872:	29 5f       	subi	r18, 0xF9	; 249
     874:	3f 4f       	sbci	r19, 0xFF	; 255
     876:	b9 01       	movw	r22, r18
     878:	0e 94 31 14 	call	0x2862	; 0x2862 <strcat>
     87c:	8c 85       	ldd	r24, Y+12	; 0x0c
     87e:	9d 85       	ldd	r25, Y+13	; 0x0d
     880:	fc 01       	movw	r30, r24
     882:	16 8a       	std	Z+22, r1	; 0x16
     884:	8c 85       	ldd	r24, Y+12	; 0x0c
     886:	9d 85       	ldd	r25, Y+13	; 0x0d
     888:	06 96       	adiw	r24, 0x06	; 6
     88a:	2d 96       	adiw	r28, 0x0d	; 13
     88c:	0f b6       	in	r0, 0x3f	; 63
     88e:	f8 94       	cli
     890:	de bf       	out	0x3e, r29	; 62
     892:	0f be       	out	0x3f, r0	; 63
     894:	cd bf       	out	0x3d, r28	; 61
     896:	df 91       	pop	r29
     898:	cf 91       	pop	r28
     89a:	08 95       	ret

0000089c <_ZN6myTimeC1Ev>:
     89c:	cf 93       	push	r28
     89e:	df 93       	push	r29
     8a0:	0f 92       	push	r0
     8a2:	0f 92       	push	r0
     8a4:	cd b7       	in	r28, 0x3d	; 61
     8a6:	de b7       	in	r29, 0x3e	; 62
     8a8:	9a 83       	std	Y+2, r25	; 0x02
     8aa:	89 83       	std	Y+1, r24	; 0x01
     8ac:	89 81       	ldd	r24, Y+1	; 0x01
     8ae:	9a 81       	ldd	r25, Y+2	; 0x02
     8b0:	0e 94 a6 00 	call	0x14c	; 0x14c <_ZN6myDateC1Ev>
     8b4:	89 81       	ldd	r24, Y+1	; 0x01
     8b6:	9a 81       	ldd	r25, Y+2	; 0x02
     8b8:	60 e0       	ldi	r22, 0x00	; 0
     8ba:	70 e0       	ldi	r23, 0x00	; 0
     8bc:	40 e0       	ldi	r20, 0x00	; 0
     8be:	50 e0       	ldi	r21, 0x00	; 0
     8c0:	20 e0       	ldi	r18, 0x00	; 0
     8c2:	30 e0       	ldi	r19, 0x00	; 0
     8c4:	0e 94 96 05 	call	0xb2c	; 0xb2c <_ZN6myTime7setTimeEiii>
     8c8:	0f 90       	pop	r0
     8ca:	0f 90       	pop	r0
     8cc:	df 91       	pop	r29
     8ce:	cf 91       	pop	r28
     8d0:	08 95       	ret

000008d2 <_ZN6myTimeC1Eiii>:
     8d2:	cf 93       	push	r28
     8d4:	df 93       	push	r29
     8d6:	cd b7       	in	r28, 0x3d	; 61
     8d8:	de b7       	in	r29, 0x3e	; 62
     8da:	28 97       	sbiw	r28, 0x08	; 8
     8dc:	0f b6       	in	r0, 0x3f	; 63
     8de:	f8 94       	cli
     8e0:	de bf       	out	0x3e, r29	; 62
     8e2:	0f be       	out	0x3f, r0	; 63
     8e4:	cd bf       	out	0x3d, r28	; 61
     8e6:	9a 83       	std	Y+2, r25	; 0x02
     8e8:	89 83       	std	Y+1, r24	; 0x01
     8ea:	7c 83       	std	Y+4, r23	; 0x04
     8ec:	6b 83       	std	Y+3, r22	; 0x03
     8ee:	5e 83       	std	Y+6, r21	; 0x06
     8f0:	4d 83       	std	Y+5, r20	; 0x05
     8f2:	38 87       	std	Y+8, r19	; 0x08
     8f4:	2f 83       	std	Y+7, r18	; 0x07
     8f6:	89 81       	ldd	r24, Y+1	; 0x01
     8f8:	9a 81       	ldd	r25, Y+2	; 0x02
     8fa:	0e 94 a6 00 	call	0x14c	; 0x14c <_ZN6myDateC1Ev>
     8fe:	89 81       	ldd	r24, Y+1	; 0x01
     900:	9a 81       	ldd	r25, Y+2	; 0x02
     902:	6b 81       	ldd	r22, Y+3	; 0x03
     904:	7c 81       	ldd	r23, Y+4	; 0x04
     906:	4d 81       	ldd	r20, Y+5	; 0x05
     908:	5e 81       	ldd	r21, Y+6	; 0x06
     90a:	2f 81       	ldd	r18, Y+7	; 0x07
     90c:	38 85       	ldd	r19, Y+8	; 0x08
     90e:	0e 94 96 05 	call	0xb2c	; 0xb2c <_ZN6myTime7setTimeEiii>
     912:	28 96       	adiw	r28, 0x08	; 8
     914:	0f b6       	in	r0, 0x3f	; 63
     916:	f8 94       	cli
     918:	de bf       	out	0x3e, r29	; 62
     91a:	0f be       	out	0x3f, r0	; 63
     91c:	cd bf       	out	0x3d, r28	; 61
     91e:	df 91       	pop	r29
     920:	cf 91       	pop	r28
     922:	08 95       	ret

00000924 <_ZN6myTimeC1Eiiiiii>:
     924:	cf 92       	push	r12
     926:	df 92       	push	r13
     928:	ef 92       	push	r14
     92a:	ff 92       	push	r15
     92c:	0f 93       	push	r16
     92e:	1f 93       	push	r17
     930:	cf 93       	push	r28
     932:	df 93       	push	r29
     934:	cd b7       	in	r28, 0x3d	; 61
     936:	de b7       	in	r29, 0x3e	; 62
     938:	2e 97       	sbiw	r28, 0x0e	; 14
     93a:	0f b6       	in	r0, 0x3f	; 63
     93c:	f8 94       	cli
     93e:	de bf       	out	0x3e, r29	; 62
     940:	0f be       	out	0x3f, r0	; 63
     942:	cd bf       	out	0x3d, r28	; 61
     944:	9a 83       	std	Y+2, r25	; 0x02
     946:	89 83       	std	Y+1, r24	; 0x01
     948:	7c 83       	std	Y+4, r23	; 0x04
     94a:	6b 83       	std	Y+3, r22	; 0x03
     94c:	5e 83       	std	Y+6, r21	; 0x06
     94e:	4d 83       	std	Y+5, r20	; 0x05
     950:	38 87       	std	Y+8, r19	; 0x08
     952:	2f 83       	std	Y+7, r18	; 0x07
     954:	1a 87       	std	Y+10, r17	; 0x0a
     956:	09 87       	std	Y+9, r16	; 0x09
     958:	fc 86       	std	Y+12, r15	; 0x0c
     95a:	eb 86       	std	Y+11, r14	; 0x0b
     95c:	de 86       	std	Y+14, r13	; 0x0e
     95e:	cd 86       	std	Y+13, r12	; 0x0d
     960:	89 81       	ldd	r24, Y+1	; 0x01
     962:	9a 81       	ldd	r25, Y+2	; 0x02
     964:	69 85       	ldd	r22, Y+9	; 0x09
     966:	7a 85       	ldd	r23, Y+10	; 0x0a
     968:	4b 85       	ldd	r20, Y+11	; 0x0b
     96a:	5c 85       	ldd	r21, Y+12	; 0x0c
     96c:	2d 85       	ldd	r18, Y+13	; 0x0d
     96e:	3e 85       	ldd	r19, Y+14	; 0x0e
     970:	0e 94 c2 00 	call	0x184	; 0x184 <_ZN6myDateC1Eiii>
     974:	89 81       	ldd	r24, Y+1	; 0x01
     976:	9a 81       	ldd	r25, Y+2	; 0x02
     978:	6b 81       	ldd	r22, Y+3	; 0x03
     97a:	7c 81       	ldd	r23, Y+4	; 0x04
     97c:	4d 81       	ldd	r20, Y+5	; 0x05
     97e:	5e 81       	ldd	r21, Y+6	; 0x06
     980:	2f 81       	ldd	r18, Y+7	; 0x07
     982:	38 85       	ldd	r19, Y+8	; 0x08
     984:	0e 94 96 05 	call	0xb2c	; 0xb2c <_ZN6myTime7setTimeEiii>
     988:	2e 96       	adiw	r28, 0x0e	; 14
     98a:	0f b6       	in	r0, 0x3f	; 63
     98c:	f8 94       	cli
     98e:	de bf       	out	0x3e, r29	; 62
     990:	0f be       	out	0x3f, r0	; 63
     992:	cd bf       	out	0x3d, r28	; 61
     994:	df 91       	pop	r29
     996:	cf 91       	pop	r28
     998:	1f 91       	pop	r17
     99a:	0f 91       	pop	r16
     99c:	ff 90       	pop	r15
     99e:	ef 90       	pop	r14
     9a0:	df 90       	pop	r13
     9a2:	cf 90       	pop	r12
     9a4:	08 95       	ret

000009a6 <_ZN6myTime10getSecondsEv>:
     9a6:	cf 93       	push	r28
     9a8:	df 93       	push	r29
     9aa:	0f 92       	push	r0
     9ac:	0f 92       	push	r0
     9ae:	cd b7       	in	r28, 0x3d	; 61
     9b0:	de b7       	in	r29, 0x3e	; 62
     9b2:	9a 83       	std	Y+2, r25	; 0x02
     9b4:	89 83       	std	Y+1, r24	; 0x01
     9b6:	89 81       	ldd	r24, Y+1	; 0x01
     9b8:	9a 81       	ldd	r25, Y+2	; 0x02
     9ba:	fc 01       	movw	r30, r24
     9bc:	83 8d       	ldd	r24, Z+27	; 0x1b
     9be:	94 8d       	ldd	r25, Z+28	; 0x1c
     9c0:	0f 90       	pop	r0
     9c2:	0f 90       	pop	r0
     9c4:	df 91       	pop	r29
     9c6:	cf 91       	pop	r28
     9c8:	08 95       	ret

000009ca <_ZN6myTime10getMinutesEv>:
     9ca:	cf 93       	push	r28
     9cc:	df 93       	push	r29
     9ce:	0f 92       	push	r0
     9d0:	0f 92       	push	r0
     9d2:	cd b7       	in	r28, 0x3d	; 61
     9d4:	de b7       	in	r29, 0x3e	; 62
     9d6:	9a 83       	std	Y+2, r25	; 0x02
     9d8:	89 83       	std	Y+1, r24	; 0x01
     9da:	89 81       	ldd	r24, Y+1	; 0x01
     9dc:	9a 81       	ldd	r25, Y+2	; 0x02
     9de:	fc 01       	movw	r30, r24
     9e0:	81 8d       	ldd	r24, Z+25	; 0x19
     9e2:	92 8d       	ldd	r25, Z+26	; 0x1a
     9e4:	0f 90       	pop	r0
     9e6:	0f 90       	pop	r0
     9e8:	df 91       	pop	r29
     9ea:	cf 91       	pop	r28
     9ec:	08 95       	ret

000009ee <_ZN6myTime8getHoursEv>:
     9ee:	cf 93       	push	r28
     9f0:	df 93       	push	r29
     9f2:	0f 92       	push	r0
     9f4:	0f 92       	push	r0
     9f6:	cd b7       	in	r28, 0x3d	; 61
     9f8:	de b7       	in	r29, 0x3e	; 62
     9fa:	9a 83       	std	Y+2, r25	; 0x02
     9fc:	89 83       	std	Y+1, r24	; 0x01
     9fe:	89 81       	ldd	r24, Y+1	; 0x01
     a00:	9a 81       	ldd	r25, Y+2	; 0x02
     a02:	fc 01       	movw	r30, r24
     a04:	87 89       	ldd	r24, Z+23	; 0x17
     a06:	90 8d       	ldd	r25, Z+24	; 0x18
     a08:	0f 90       	pop	r0
     a0a:	0f 90       	pop	r0
     a0c:	df 91       	pop	r29
     a0e:	cf 91       	pop	r28
     a10:	08 95       	ret

00000a12 <_ZN6myTime7setTimeEPc>:
     a12:	cf 93       	push	r28
     a14:	df 93       	push	r29
     a16:	cd b7       	in	r28, 0x3d	; 61
     a18:	de b7       	in	r29, 0x3e	; 62
     a1a:	a2 97       	sbiw	r28, 0x22	; 34
     a1c:	0f b6       	in	r0, 0x3f	; 63
     a1e:	f8 94       	cli
     a20:	de bf       	out	0x3e, r29	; 62
     a22:	0f be       	out	0x3f, r0	; 63
     a24:	cd bf       	out	0x3d, r28	; 61
     a26:	98 a3       	lds	r25, 0x58
     a28:	8f 8f       	std	Y+31, r24	; 0x1f
     a2a:	7a a3       	lds	r23, 0x5a
     a2c:	69 a3       	lds	r22, 0x59
     a2e:	ce 01       	movw	r24, r28
     a30:	0b 96       	adiw	r24, 0x0b	; 11
     a32:	29 a1       	lds	r18, 0x49
     a34:	3a a1       	lds	r19, 0x4a
     a36:	b9 01       	movw	r22, r18
     a38:	0e 94 45 14 	call	0x288a	; 0x288a <strcpy>
     a3c:	1a 82       	std	Y+2, r1	; 0x02
     a3e:	19 82       	std	Y+1, r1	; 0x01
     a40:	43 c0       	rjmp	.+134    	; 0xac8 <_ZN6myTime7setTimeEPc+0xb6>
     a42:	1c 82       	std	Y+4, r1	; 0x04
     a44:	1b 82       	std	Y+3, r1	; 0x03
     a46:	20 c0       	rjmp	.+64     	; 0xa88 <_ZN6myTime7setTimeEPc+0x76>
     a48:	29 81       	ldd	r18, Y+1	; 0x01
     a4a:	3a 81       	ldd	r19, Y+2	; 0x02
     a4c:	c9 01       	movw	r24, r18
     a4e:	88 0f       	add	r24, r24
     a50:	99 1f       	adc	r25, r25
     a52:	28 0f       	add	r18, r24
     a54:	39 1f       	adc	r19, r25
     a56:	8b 81       	ldd	r24, Y+3	; 0x03
     a58:	9c 81       	ldd	r25, Y+4	; 0x04
     a5a:	82 0f       	add	r24, r18
     a5c:	93 1f       	adc	r25, r19
     a5e:	9e 01       	movw	r18, r28
     a60:	25 5f       	subi	r18, 0xF5	; 245
     a62:	3f 4f       	sbci	r19, 0xFF	; 255
     a64:	82 0f       	add	r24, r18
     a66:	93 1f       	adc	r25, r19
     a68:	fc 01       	movw	r30, r24
     a6a:	40 81       	ld	r20, Z
     a6c:	9e 01       	movw	r18, r28
     a6e:	2b 5e       	subi	r18, 0xEB	; 235
     a70:	3f 4f       	sbci	r19, 0xFF	; 255
     a72:	8b 81       	ldd	r24, Y+3	; 0x03
     a74:	9c 81       	ldd	r25, Y+4	; 0x04
     a76:	82 0f       	add	r24, r18
     a78:	93 1f       	adc	r25, r19
     a7a:	fc 01       	movw	r30, r24
     a7c:	40 83       	st	Z, r20
     a7e:	8b 81       	ldd	r24, Y+3	; 0x03
     a80:	9c 81       	ldd	r25, Y+4	; 0x04
     a82:	01 96       	adiw	r24, 0x01	; 1
     a84:	9c 83       	std	Y+4, r25	; 0x04
     a86:	8b 83       	std	Y+3, r24	; 0x03
     a88:	21 e0       	ldi	r18, 0x01	; 1
     a8a:	8b 81       	ldd	r24, Y+3	; 0x03
     a8c:	9c 81       	ldd	r25, Y+4	; 0x04
     a8e:	82 30       	cpi	r24, 0x02	; 2
     a90:	91 05       	cpc	r25, r1
     a92:	0c f0       	brlt	.+2      	; 0xa96 <_ZN6myTime7setTimeEPc+0x84>
     a94:	20 e0       	ldi	r18, 0x00	; 0
     a96:	22 23       	and	r18, r18
     a98:	b9 f6       	brne	.-82     	; 0xa48 <_ZN6myTime7setTimeEPc+0x36>
     a9a:	ce 01       	movw	r24, r28
     a9c:	45 96       	adiw	r24, 0x15	; 21
     a9e:	0e 94 13 14 	call	0x2826	; 0x2826 <atoi>
     aa2:	9c 01       	movw	r18, r24
     aa4:	89 81       	ldd	r24, Y+1	; 0x01
     aa6:	9a 81       	ldd	r25, Y+2	; 0x02
     aa8:	88 0f       	add	r24, r24
     aaa:	99 1f       	adc	r25, r25
     aac:	ae 01       	movw	r20, r28
     aae:	4f 5f       	subi	r20, 0xFF	; 255
     ab0:	5f 4f       	sbci	r21, 0xFF	; 255
     ab2:	84 0f       	add	r24, r20
     ab4:	95 1f       	adc	r25, r21
     ab6:	04 96       	adiw	r24, 0x04	; 4
     ab8:	fc 01       	movw	r30, r24
     aba:	31 83       	std	Z+1, r19	; 0x01
     abc:	20 83       	st	Z, r18
     abe:	89 81       	ldd	r24, Y+1	; 0x01
     ac0:	9a 81       	ldd	r25, Y+2	; 0x02
     ac2:	01 96       	adiw	r24, 0x01	; 1
     ac4:	9a 83       	std	Y+2, r25	; 0x02
     ac6:	89 83       	std	Y+1, r24	; 0x01
     ac8:	21 e0       	ldi	r18, 0x01	; 1
     aca:	89 81       	ldd	r24, Y+1	; 0x01
     acc:	9a 81       	ldd	r25, Y+2	; 0x02
     ace:	83 30       	cpi	r24, 0x03	; 3
     ad0:	91 05       	cpc	r25, r1
     ad2:	0c f0       	brlt	.+2      	; 0xad6 <_ZN6myTime7setTimeEPc+0xc4>
     ad4:	20 e0       	ldi	r18, 0x00	; 0
     ad6:	22 23       	and	r18, r18
     ad8:	09 f0       	breq	.+2      	; 0xadc <_ZN6myTime7setTimeEPc+0xca>
     ada:	b3 cf       	rjmp	.-154    	; 0xa42 <_ZN6myTime7setTimeEPc+0x30>
     adc:	8d 81       	ldd	r24, Y+5	; 0x05
     ade:	9e 81       	ldd	r25, Y+6	; 0x06
     ae0:	47 96       	adiw	r24, 0x17	; 23
     ae2:	8f 32       	cpi	r24, 0x2F	; 47
     ae4:	91 05       	cpc	r25, r1
     ae6:	c0 f4       	brcc	.+48     	; 0xb18 <_ZN6myTime7setTimeEPc+0x106>
     ae8:	8f 81       	ldd	r24, Y+7	; 0x07
     aea:	98 85       	ldd	r25, Y+8	; 0x08
     aec:	cb 96       	adiw	r24, 0x3b	; 59
     aee:	87 37       	cpi	r24, 0x77	; 119
     af0:	91 05       	cpc	r25, r1
     af2:	90 f4       	brcc	.+36     	; 0xb18 <_ZN6myTime7setTimeEPc+0x106>
     af4:	89 85       	ldd	r24, Y+9	; 0x09
     af6:	9a 85       	ldd	r25, Y+10	; 0x0a
     af8:	cb 96       	adiw	r24, 0x3b	; 59
     afa:	87 37       	cpi	r24, 0x77	; 119
     afc:	91 05       	cpc	r25, r1
     afe:	60 f4       	brcc	.+24     	; 0xb18 <_ZN6myTime7setTimeEPc+0x106>
     b00:	6d 81       	ldd	r22, Y+5	; 0x05
     b02:	7e 81       	ldd	r23, Y+6	; 0x06
     b04:	4f 81       	ldd	r20, Y+7	; 0x07
     b06:	58 85       	ldd	r21, Y+8	; 0x08
     b08:	29 85       	ldd	r18, Y+9	; 0x09
     b0a:	3a 85       	ldd	r19, Y+10	; 0x0a
     b0c:	8f 8d       	ldd	r24, Y+31	; 0x1f
     b0e:	98 a1       	lds	r25, 0x48
     b10:	0e 94 96 05 	call	0xb2c	; 0xb2c <_ZN6myTime7setTimeEiii>
     b14:	81 e0       	ldi	r24, 0x01	; 1
     b16:	01 c0       	rjmp	.+2      	; 0xb1a <_ZN6myTime7setTimeEPc+0x108>
     b18:	80 e0       	ldi	r24, 0x00	; 0
     b1a:	a2 96       	adiw	r28, 0x22	; 34
     b1c:	0f b6       	in	r0, 0x3f	; 63
     b1e:	f8 94       	cli
     b20:	de bf       	out	0x3e, r29	; 62
     b22:	0f be       	out	0x3f, r0	; 63
     b24:	cd bf       	out	0x3d, r28	; 61
     b26:	df 91       	pop	r29
     b28:	cf 91       	pop	r28
     b2a:	08 95       	ret

00000b2c <_ZN6myTime7setTimeEiii>:
     b2c:	cf 93       	push	r28
     b2e:	df 93       	push	r29
     b30:	cd b7       	in	r28, 0x3d	; 61
     b32:	de b7       	in	r29, 0x3e	; 62
     b34:	28 97       	sbiw	r28, 0x08	; 8
     b36:	0f b6       	in	r0, 0x3f	; 63
     b38:	f8 94       	cli
     b3a:	de bf       	out	0x3e, r29	; 62
     b3c:	0f be       	out	0x3f, r0	; 63
     b3e:	cd bf       	out	0x3d, r28	; 61
     b40:	9a 83       	std	Y+2, r25	; 0x02
     b42:	89 83       	std	Y+1, r24	; 0x01
     b44:	7c 83       	std	Y+4, r23	; 0x04
     b46:	6b 83       	std	Y+3, r22	; 0x03
     b48:	5e 83       	std	Y+6, r21	; 0x06
     b4a:	4d 83       	std	Y+5, r20	; 0x05
     b4c:	38 87       	std	Y+8, r19	; 0x08
     b4e:	2f 83       	std	Y+7, r18	; 0x07
     b50:	89 81       	ldd	r24, Y+1	; 0x01
     b52:	9a 81       	ldd	r25, Y+2	; 0x02
     b54:	2b 81       	ldd	r18, Y+3	; 0x03
     b56:	3c 81       	ldd	r19, Y+4	; 0x04
     b58:	b9 01       	movw	r22, r18
     b5a:	0e 94 c6 05 	call	0xb8c	; 0xb8c <_ZN6myTime7setHourEi>
     b5e:	89 81       	ldd	r24, Y+1	; 0x01
     b60:	9a 81       	ldd	r25, Y+2	; 0x02
     b62:	2d 81       	ldd	r18, Y+5	; 0x05
     b64:	3e 81       	ldd	r19, Y+6	; 0x06
     b66:	b9 01       	movw	r22, r18
     b68:	0e 94 e4 05 	call	0xbc8	; 0xbc8 <_ZN6myTime9setMinuteEi>
     b6c:	89 81       	ldd	r24, Y+1	; 0x01
     b6e:	9a 81       	ldd	r25, Y+2	; 0x02
     b70:	2f 81       	ldd	r18, Y+7	; 0x07
     b72:	38 85       	ldd	r19, Y+8	; 0x08
     b74:	b9 01       	movw	r22, r18
     b76:	0e 94 02 06 	call	0xc04	; 0xc04 <_ZN6myTime9setSecondEi>
     b7a:	28 96       	adiw	r28, 0x08	; 8
     b7c:	0f b6       	in	r0, 0x3f	; 63
     b7e:	f8 94       	cli
     b80:	de bf       	out	0x3e, r29	; 62
     b82:	0f be       	out	0x3f, r0	; 63
     b84:	cd bf       	out	0x3d, r28	; 61
     b86:	df 91       	pop	r29
     b88:	cf 91       	pop	r28
     b8a:	08 95       	ret

00000b8c <_ZN6myTime7setHourEi>:
     b8c:	cf 93       	push	r28
     b8e:	df 93       	push	r29
     b90:	00 d0       	rcall	.+0      	; 0xb92 <_ZN6myTime7setHourEi+0x6>
     b92:	0f 92       	push	r0
     b94:	cd b7       	in	r28, 0x3d	; 61
     b96:	de b7       	in	r29, 0x3e	; 62
     b98:	9a 83       	std	Y+2, r25	; 0x02
     b9a:	89 83       	std	Y+1, r24	; 0x01
     b9c:	7c 83       	std	Y+4, r23	; 0x04
     b9e:	6b 83       	std	Y+3, r22	; 0x03
     ba0:	8b 81       	ldd	r24, Y+3	; 0x03
     ba2:	9c 81       	ldd	r25, Y+4	; 0x04
     ba4:	47 96       	adiw	r24, 0x17	; 23
     ba6:	8f 32       	cpi	r24, 0x2F	; 47
     ba8:	91 05       	cpc	r25, r1
     baa:	38 f4       	brcc	.+14     	; 0xbba <_ZN6myTime7setHourEi+0x2e>
     bac:	89 81       	ldd	r24, Y+1	; 0x01
     bae:	9a 81       	ldd	r25, Y+2	; 0x02
     bb0:	2b 81       	ldd	r18, Y+3	; 0x03
     bb2:	3c 81       	ldd	r19, Y+4	; 0x04
     bb4:	fc 01       	movw	r30, r24
     bb6:	30 8f       	std	Z+24, r19	; 0x18
     bb8:	27 8b       	std	Z+23, r18	; 0x17
     bba:	0f 90       	pop	r0
     bbc:	0f 90       	pop	r0
     bbe:	0f 90       	pop	r0
     bc0:	0f 90       	pop	r0
     bc2:	df 91       	pop	r29
     bc4:	cf 91       	pop	r28
     bc6:	08 95       	ret

00000bc8 <_ZN6myTime9setMinuteEi>:
     bc8:	cf 93       	push	r28
     bca:	df 93       	push	r29
     bcc:	00 d0       	rcall	.+0      	; 0xbce <_ZN6myTime9setMinuteEi+0x6>
     bce:	0f 92       	push	r0
     bd0:	cd b7       	in	r28, 0x3d	; 61
     bd2:	de b7       	in	r29, 0x3e	; 62
     bd4:	9a 83       	std	Y+2, r25	; 0x02
     bd6:	89 83       	std	Y+1, r24	; 0x01
     bd8:	7c 83       	std	Y+4, r23	; 0x04
     bda:	6b 83       	std	Y+3, r22	; 0x03
     bdc:	8b 81       	ldd	r24, Y+3	; 0x03
     bde:	9c 81       	ldd	r25, Y+4	; 0x04
     be0:	cb 96       	adiw	r24, 0x3b	; 59
     be2:	87 37       	cpi	r24, 0x77	; 119
     be4:	91 05       	cpc	r25, r1
     be6:	38 f4       	brcc	.+14     	; 0xbf6 <_ZN6myTime9setMinuteEi+0x2e>
     be8:	89 81       	ldd	r24, Y+1	; 0x01
     bea:	9a 81       	ldd	r25, Y+2	; 0x02
     bec:	2b 81       	ldd	r18, Y+3	; 0x03
     bee:	3c 81       	ldd	r19, Y+4	; 0x04
     bf0:	fc 01       	movw	r30, r24
     bf2:	32 8f       	std	Z+26, r19	; 0x1a
     bf4:	21 8f       	std	Z+25, r18	; 0x19
     bf6:	0f 90       	pop	r0
     bf8:	0f 90       	pop	r0
     bfa:	0f 90       	pop	r0
     bfc:	0f 90       	pop	r0
     bfe:	df 91       	pop	r29
     c00:	cf 91       	pop	r28
     c02:	08 95       	ret

00000c04 <_ZN6myTime9setSecondEi>:
     c04:	cf 93       	push	r28
     c06:	df 93       	push	r29
     c08:	00 d0       	rcall	.+0      	; 0xc0a <_ZN6myTime9setSecondEi+0x6>
     c0a:	0f 92       	push	r0
     c0c:	cd b7       	in	r28, 0x3d	; 61
     c0e:	de b7       	in	r29, 0x3e	; 62
     c10:	9a 83       	std	Y+2, r25	; 0x02
     c12:	89 83       	std	Y+1, r24	; 0x01
     c14:	7c 83       	std	Y+4, r23	; 0x04
     c16:	6b 83       	std	Y+3, r22	; 0x03
     c18:	8b 81       	ldd	r24, Y+3	; 0x03
     c1a:	9c 81       	ldd	r25, Y+4	; 0x04
     c1c:	cb 96       	adiw	r24, 0x3b	; 59
     c1e:	87 37       	cpi	r24, 0x77	; 119
     c20:	91 05       	cpc	r25, r1
     c22:	38 f4       	brcc	.+14     	; 0xc32 <_ZN6myTime9setSecondEi+0x2e>
     c24:	89 81       	ldd	r24, Y+1	; 0x01
     c26:	9a 81       	ldd	r25, Y+2	; 0x02
     c28:	2b 81       	ldd	r18, Y+3	; 0x03
     c2a:	3c 81       	ldd	r19, Y+4	; 0x04
     c2c:	fc 01       	movw	r30, r24
     c2e:	34 8f       	std	Z+28, r19	; 0x1c
     c30:	23 8f       	std	Z+27, r18	; 0x1b
     c32:	0f 90       	pop	r0
     c34:	0f 90       	pop	r0
     c36:	0f 90       	pop	r0
     c38:	0f 90       	pop	r0
     c3a:	df 91       	pop	r29
     c3c:	cf 91       	pop	r28
     c3e:	08 95       	ret

00000c40 <_ZN6myTime8addHoursEi>:
     c40:	cf 93       	push	r28
     c42:	df 93       	push	r29
     c44:	cd b7       	in	r28, 0x3d	; 61
     c46:	de b7       	in	r29, 0x3e	; 62
     c48:	28 97       	sbiw	r28, 0x08	; 8
     c4a:	0f b6       	in	r0, 0x3f	; 63
     c4c:	f8 94       	cli
     c4e:	de bf       	out	0x3e, r29	; 62
     c50:	0f be       	out	0x3f, r0	; 63
     c52:	cd bf       	out	0x3d, r28	; 61
     c54:	9e 83       	std	Y+6, r25	; 0x06
     c56:	8d 83       	std	Y+5, r24	; 0x05
     c58:	78 87       	std	Y+8, r23	; 0x08
     c5a:	6f 83       	std	Y+7, r22	; 0x07
     c5c:	8d 81       	ldd	r24, Y+5	; 0x05
     c5e:	9e 81       	ldd	r25, Y+6	; 0x06
     c60:	fc 01       	movw	r30, r24
     c62:	27 89       	ldd	r18, Z+23	; 0x17
     c64:	30 8d       	ldd	r19, Z+24	; 0x18
     c66:	8f 81       	ldd	r24, Y+7	; 0x07
     c68:	98 85       	ldd	r25, Y+8	; 0x08
     c6a:	82 0f       	add	r24, r18
     c6c:	93 1f       	adc	r25, r19
     c6e:	9a 83       	std	Y+2, r25	; 0x02
     c70:	89 83       	std	Y+1, r24	; 0x01
     c72:	89 81       	ldd	r24, Y+1	; 0x01
     c74:	9a 81       	ldd	r25, Y+2	; 0x02
     c76:	28 e1       	ldi	r18, 0x18	; 24
     c78:	30 e0       	ldi	r19, 0x00	; 0
     c7a:	b9 01       	movw	r22, r18
     c7c:	0e 94 e8 13 	call	0x27d0	; 0x27d0 <__divmodhi4>
     c80:	9c 01       	movw	r18, r24
     c82:	8d 81       	ldd	r24, Y+5	; 0x05
     c84:	9e 81       	ldd	r25, Y+6	; 0x06
     c86:	fc 01       	movw	r30, r24
     c88:	30 8f       	std	Z+24, r19	; 0x18
     c8a:	27 8b       	std	Z+23, r18	; 0x17
     c8c:	89 81       	ldd	r24, Y+1	; 0x01
     c8e:	9a 81       	ldd	r25, Y+2	; 0x02
     c90:	21 e0       	ldi	r18, 0x01	; 1
     c92:	88 31       	cpi	r24, 0x18	; 24
     c94:	91 05       	cpc	r25, r1
     c96:	0c f4       	brge	.+2      	; 0xc9a <_ZN6myTime8addHoursEi+0x5a>
     c98:	20 e0       	ldi	r18, 0x00	; 0
     c9a:	22 23       	and	r18, r18
     c9c:	91 f0       	breq	.+36     	; 0xcc2 <_ZN6myTime8addHoursEi+0x82>
     c9e:	89 81       	ldd	r24, Y+1	; 0x01
     ca0:	9a 81       	ldd	r25, Y+2	; 0x02
     ca2:	28 e1       	ldi	r18, 0x18	; 24
     ca4:	30 e0       	ldi	r19, 0x00	; 0
     ca6:	b9 01       	movw	r22, r18
     ca8:	0e 94 e8 13 	call	0x27d0	; 0x27d0 <__divmodhi4>
     cac:	9b 01       	movw	r18, r22
     cae:	c9 01       	movw	r24, r18
     cb0:	9c 83       	std	Y+4, r25	; 0x04
     cb2:	8b 83       	std	Y+3, r24	; 0x03
     cb4:	8d 81       	ldd	r24, Y+5	; 0x05
     cb6:	9e 81       	ldd	r25, Y+6	; 0x06
     cb8:	2b 81       	ldd	r18, Y+3	; 0x03
     cba:	3c 81       	ldd	r19, Y+4	; 0x04
     cbc:	b9 01       	movw	r22, r18
     cbe:	0e 94 83 02 	call	0x506	; 0x506 <_ZN6myDate7addDaysEi>
     cc2:	28 96       	adiw	r28, 0x08	; 8
     cc4:	0f b6       	in	r0, 0x3f	; 63
     cc6:	f8 94       	cli
     cc8:	de bf       	out	0x3e, r29	; 62
     cca:	0f be       	out	0x3f, r0	; 63
     ccc:	cd bf       	out	0x3d, r28	; 61
     cce:	df 91       	pop	r29
     cd0:	cf 91       	pop	r28
     cd2:	08 95       	ret

00000cd4 <_ZN6myTime10addMinutesEi>:
     cd4:	cf 93       	push	r28
     cd6:	df 93       	push	r29
     cd8:	cd b7       	in	r28, 0x3d	; 61
     cda:	de b7       	in	r29, 0x3e	; 62
     cdc:	28 97       	sbiw	r28, 0x08	; 8
     cde:	0f b6       	in	r0, 0x3f	; 63
     ce0:	f8 94       	cli
     ce2:	de bf       	out	0x3e, r29	; 62
     ce4:	0f be       	out	0x3f, r0	; 63
     ce6:	cd bf       	out	0x3d, r28	; 61
     ce8:	9e 83       	std	Y+6, r25	; 0x06
     cea:	8d 83       	std	Y+5, r24	; 0x05
     cec:	78 87       	std	Y+8, r23	; 0x08
     cee:	6f 83       	std	Y+7, r22	; 0x07
     cf0:	8d 81       	ldd	r24, Y+5	; 0x05
     cf2:	9e 81       	ldd	r25, Y+6	; 0x06
     cf4:	fc 01       	movw	r30, r24
     cf6:	21 8d       	ldd	r18, Z+25	; 0x19
     cf8:	32 8d       	ldd	r19, Z+26	; 0x1a
     cfa:	8f 81       	ldd	r24, Y+7	; 0x07
     cfc:	98 85       	ldd	r25, Y+8	; 0x08
     cfe:	82 0f       	add	r24, r18
     d00:	93 1f       	adc	r25, r19
     d02:	9a 83       	std	Y+2, r25	; 0x02
     d04:	89 83       	std	Y+1, r24	; 0x01
     d06:	89 81       	ldd	r24, Y+1	; 0x01
     d08:	9a 81       	ldd	r25, Y+2	; 0x02
     d0a:	2c e3       	ldi	r18, 0x3C	; 60
     d0c:	30 e0       	ldi	r19, 0x00	; 0
     d0e:	b9 01       	movw	r22, r18
     d10:	0e 94 e8 13 	call	0x27d0	; 0x27d0 <__divmodhi4>
     d14:	9c 01       	movw	r18, r24
     d16:	8d 81       	ldd	r24, Y+5	; 0x05
     d18:	9e 81       	ldd	r25, Y+6	; 0x06
     d1a:	fc 01       	movw	r30, r24
     d1c:	32 8f       	std	Z+26, r19	; 0x1a
     d1e:	21 8f       	std	Z+25, r18	; 0x19
     d20:	89 81       	ldd	r24, Y+1	; 0x01
     d22:	9a 81       	ldd	r25, Y+2	; 0x02
     d24:	21 e0       	ldi	r18, 0x01	; 1
     d26:	8c 33       	cpi	r24, 0x3C	; 60
     d28:	91 05       	cpc	r25, r1
     d2a:	0c f4       	brge	.+2      	; 0xd2e <_ZN6myTime10addMinutesEi+0x5a>
     d2c:	20 e0       	ldi	r18, 0x00	; 0
     d2e:	22 23       	and	r18, r18
     d30:	91 f0       	breq	.+36     	; 0xd56 <_ZN6myTime10addMinutesEi+0x82>
     d32:	89 81       	ldd	r24, Y+1	; 0x01
     d34:	9a 81       	ldd	r25, Y+2	; 0x02
     d36:	2c e3       	ldi	r18, 0x3C	; 60
     d38:	30 e0       	ldi	r19, 0x00	; 0
     d3a:	b9 01       	movw	r22, r18
     d3c:	0e 94 e8 13 	call	0x27d0	; 0x27d0 <__divmodhi4>
     d40:	9b 01       	movw	r18, r22
     d42:	c9 01       	movw	r24, r18
     d44:	9c 83       	std	Y+4, r25	; 0x04
     d46:	8b 83       	std	Y+3, r24	; 0x03
     d48:	2b 81       	ldd	r18, Y+3	; 0x03
     d4a:	3c 81       	ldd	r19, Y+4	; 0x04
     d4c:	8d 81       	ldd	r24, Y+5	; 0x05
     d4e:	9e 81       	ldd	r25, Y+6	; 0x06
     d50:	b9 01       	movw	r22, r18
     d52:	0e 94 20 06 	call	0xc40	; 0xc40 <_ZN6myTime8addHoursEi>
     d56:	28 96       	adiw	r28, 0x08	; 8
     d58:	0f b6       	in	r0, 0x3f	; 63
     d5a:	f8 94       	cli
     d5c:	de bf       	out	0x3e, r29	; 62
     d5e:	0f be       	out	0x3f, r0	; 63
     d60:	cd bf       	out	0x3d, r28	; 61
     d62:	df 91       	pop	r29
     d64:	cf 91       	pop	r28
     d66:	08 95       	ret

00000d68 <_ZN6myTime10addSecondsEi>:
     d68:	cf 93       	push	r28
     d6a:	df 93       	push	r29
     d6c:	cd b7       	in	r28, 0x3d	; 61
     d6e:	de b7       	in	r29, 0x3e	; 62
     d70:	28 97       	sbiw	r28, 0x08	; 8
     d72:	0f b6       	in	r0, 0x3f	; 63
     d74:	f8 94       	cli
     d76:	de bf       	out	0x3e, r29	; 62
     d78:	0f be       	out	0x3f, r0	; 63
     d7a:	cd bf       	out	0x3d, r28	; 61
     d7c:	9e 83       	std	Y+6, r25	; 0x06
     d7e:	8d 83       	std	Y+5, r24	; 0x05
     d80:	78 87       	std	Y+8, r23	; 0x08
     d82:	6f 83       	std	Y+7, r22	; 0x07
     d84:	8d 81       	ldd	r24, Y+5	; 0x05
     d86:	9e 81       	ldd	r25, Y+6	; 0x06
     d88:	fc 01       	movw	r30, r24
     d8a:	23 8d       	ldd	r18, Z+27	; 0x1b
     d8c:	34 8d       	ldd	r19, Z+28	; 0x1c
     d8e:	8f 81       	ldd	r24, Y+7	; 0x07
     d90:	98 85       	ldd	r25, Y+8	; 0x08
     d92:	82 0f       	add	r24, r18
     d94:	93 1f       	adc	r25, r19
     d96:	9a 83       	std	Y+2, r25	; 0x02
     d98:	89 83       	std	Y+1, r24	; 0x01
     d9a:	89 81       	ldd	r24, Y+1	; 0x01
     d9c:	9a 81       	ldd	r25, Y+2	; 0x02
     d9e:	2c e3       	ldi	r18, 0x3C	; 60
     da0:	30 e0       	ldi	r19, 0x00	; 0
     da2:	b9 01       	movw	r22, r18
     da4:	0e 94 e8 13 	call	0x27d0	; 0x27d0 <__divmodhi4>
     da8:	9c 01       	movw	r18, r24
     daa:	8d 81       	ldd	r24, Y+5	; 0x05
     dac:	9e 81       	ldd	r25, Y+6	; 0x06
     dae:	fc 01       	movw	r30, r24
     db0:	34 8f       	std	Z+28, r19	; 0x1c
     db2:	23 8f       	std	Z+27, r18	; 0x1b
     db4:	89 81       	ldd	r24, Y+1	; 0x01
     db6:	9a 81       	ldd	r25, Y+2	; 0x02
     db8:	21 e0       	ldi	r18, 0x01	; 1
     dba:	8c 33       	cpi	r24, 0x3C	; 60
     dbc:	91 05       	cpc	r25, r1
     dbe:	0c f4       	brge	.+2      	; 0xdc2 <_ZN6myTime10addSecondsEi+0x5a>
     dc0:	20 e0       	ldi	r18, 0x00	; 0
     dc2:	22 23       	and	r18, r18
     dc4:	91 f0       	breq	.+36     	; 0xdea <_ZN6myTime10addSecondsEi+0x82>
     dc6:	89 81       	ldd	r24, Y+1	; 0x01
     dc8:	9a 81       	ldd	r25, Y+2	; 0x02
     dca:	2c e3       	ldi	r18, 0x3C	; 60
     dcc:	30 e0       	ldi	r19, 0x00	; 0
     dce:	b9 01       	movw	r22, r18
     dd0:	0e 94 e8 13 	call	0x27d0	; 0x27d0 <__divmodhi4>
     dd4:	9b 01       	movw	r18, r22
     dd6:	c9 01       	movw	r24, r18
     dd8:	9c 83       	std	Y+4, r25	; 0x04
     dda:	8b 83       	std	Y+3, r24	; 0x03
     ddc:	2b 81       	ldd	r18, Y+3	; 0x03
     dde:	3c 81       	ldd	r19, Y+4	; 0x04
     de0:	8d 81       	ldd	r24, Y+5	; 0x05
     de2:	9e 81       	ldd	r25, Y+6	; 0x06
     de4:	b9 01       	movw	r22, r18
     de6:	0e 94 6a 06 	call	0xcd4	; 0xcd4 <_ZN6myTime10addMinutesEi>
     dea:	28 96       	adiw	r28, 0x08	; 8
     dec:	0f b6       	in	r0, 0x3f	; 63
     dee:	f8 94       	cli
     df0:	de bf       	out	0x3e, r29	; 62
     df2:	0f be       	out	0x3f, r0	; 63
     df4:	cd bf       	out	0x3d, r28	; 61
     df6:	df 91       	pop	r29
     df8:	cf 91       	pop	r28
     dfa:	08 95       	ret

00000dfc <_ZN6myTime13checkValidityEv>:
     dfc:	cf 93       	push	r28
     dfe:	df 93       	push	r29
     e00:	00 d0       	rcall	.+0      	; 0xe02 <_ZN6myTime13checkValidityEv+0x6>
     e02:	cd b7       	in	r28, 0x3d	; 61
     e04:	de b7       	in	r29, 0x3e	; 62
     e06:	9b 83       	std	Y+3, r25	; 0x03
     e08:	8a 83       	std	Y+2, r24	; 0x02
     e0a:	81 e0       	ldi	r24, 0x01	; 1
     e0c:	89 83       	std	Y+1, r24	; 0x01
     e0e:	8a 81       	ldd	r24, Y+2	; 0x02
     e10:	9b 81       	ldd	r25, Y+3	; 0x03
     e12:	fc 01       	movw	r30, r24
     e14:	83 8d       	ldd	r24, Z+27	; 0x1b
     e16:	94 8d       	ldd	r25, Z+28	; 0x1c
     e18:	cb 96       	adiw	r24, 0x3b	; 59
     e1a:	87 37       	cpi	r24, 0x77	; 119
     e1c:	91 05       	cpc	r25, r1
     e1e:	a0 f4       	brcc	.+40     	; 0xe48 <_ZN6myTime13checkValidityEv+0x4c>
     e20:	8a 81       	ldd	r24, Y+2	; 0x02
     e22:	9b 81       	ldd	r25, Y+3	; 0x03
     e24:	fc 01       	movw	r30, r24
     e26:	81 8d       	ldd	r24, Z+25	; 0x19
     e28:	92 8d       	ldd	r25, Z+26	; 0x1a
     e2a:	cb 96       	adiw	r24, 0x3b	; 59
     e2c:	87 37       	cpi	r24, 0x77	; 119
     e2e:	91 05       	cpc	r25, r1
     e30:	58 f4       	brcc	.+22     	; 0xe48 <_ZN6myTime13checkValidityEv+0x4c>
     e32:	8a 81       	ldd	r24, Y+2	; 0x02
     e34:	9b 81       	ldd	r25, Y+3	; 0x03
     e36:	fc 01       	movw	r30, r24
     e38:	87 89       	ldd	r24, Z+23	; 0x17
     e3a:	90 8d       	ldd	r25, Z+24	; 0x18
     e3c:	47 96       	adiw	r24, 0x17	; 23
     e3e:	8f 32       	cpi	r24, 0x2F	; 47
     e40:	91 05       	cpc	r25, r1
     e42:	10 f4       	brcc	.+4      	; 0xe48 <_ZN6myTime13checkValidityEv+0x4c>
     e44:	81 e0       	ldi	r24, 0x01	; 1
     e46:	01 c0       	rjmp	.+2      	; 0xe4a <_ZN6myTime13checkValidityEv+0x4e>
     e48:	80 e0       	ldi	r24, 0x00	; 0
     e4a:	88 23       	and	r24, r24
     e4c:	69 f0       	breq	.+26     	; 0xe68 <_ZN6myTime13checkValidityEv+0x6c>
     e4e:	8a 81       	ldd	r24, Y+2	; 0x02
     e50:	9b 81       	ldd	r25, Y+3	; 0x03
     e52:	0e 94 41 03 	call	0x682	; 0x682 <_ZN6myDate17checkValidityDateEv>
     e56:	98 2f       	mov	r25, r24
     e58:	81 e0       	ldi	r24, 0x01	; 1
     e5a:	99 23       	and	r25, r25
     e5c:	09 f4       	brne	.+2      	; 0xe60 <_ZN6myTime13checkValidityEv+0x64>
     e5e:	80 e0       	ldi	r24, 0x00	; 0
     e60:	88 23       	and	r24, r24
     e62:	11 f0       	breq	.+4      	; 0xe68 <_ZN6myTime13checkValidityEv+0x6c>
     e64:	81 e0       	ldi	r24, 0x01	; 1
     e66:	01 c0       	rjmp	.+2      	; 0xe6a <_ZN6myTime13checkValidityEv+0x6e>
     e68:	80 e0       	ldi	r24, 0x00	; 0
     e6a:	0f 90       	pop	r0
     e6c:	0f 90       	pop	r0
     e6e:	0f 90       	pop	r0
     e70:	df 91       	pop	r29
     e72:	cf 91       	pop	r28
     e74:	08 95       	ret

00000e76 <_ZN6myTime7getTimeEv>:
     e76:	cf 93       	push	r28
     e78:	df 93       	push	r29
     e7a:	cd b7       	in	r28, 0x3d	; 61
     e7c:	de b7       	in	r29, 0x3e	; 62
     e7e:	2b 97       	sbiw	r28, 0x0b	; 11
     e80:	0f b6       	in	r0, 0x3f	; 63
     e82:	f8 94       	cli
     e84:	de bf       	out	0x3e, r29	; 62
     e86:	0f be       	out	0x3f, r0	; 63
     e88:	cd bf       	out	0x3d, r28	; 61
     e8a:	9b 87       	std	Y+11, r25	; 0x0b
     e8c:	8a 87       	std	Y+10, r24	; 0x0a
     e8e:	8a 85       	ldd	r24, Y+10	; 0x0a
     e90:	9b 85       	ldd	r25, Y+11	; 0x0b
     e92:	fc 01       	movw	r30, r24
     e94:	87 89       	ldd	r24, Z+23	; 0x17
     e96:	90 8d       	ldd	r25, Z+24	; 0x18
     e98:	9e 01       	movw	r18, r28
     e9a:	2f 5f       	subi	r18, 0xFF	; 255
     e9c:	3f 4f       	sbci	r19, 0xFF	; 255
     e9e:	b9 01       	movw	r22, r18
     ea0:	4a e0       	ldi	r20, 0x0A	; 10
     ea2:	50 e0       	ldi	r21, 0x00	; 0
     ea4:	0e 94 5a 14 	call	0x28b4	; 0x28b4 <itoa>
     ea8:	8a 85       	ldd	r24, Y+10	; 0x0a
     eaa:	9b 85       	ldd	r25, Y+11	; 0x0b
     eac:	fc 01       	movw	r30, r24
     eae:	81 8d       	ldd	r24, Z+25	; 0x19
     eb0:	92 8d       	ldd	r25, Z+26	; 0x1a
     eb2:	9e 01       	movw	r18, r28
     eb4:	2c 5f       	subi	r18, 0xFC	; 252
     eb6:	3f 4f       	sbci	r19, 0xFF	; 255
     eb8:	b9 01       	movw	r22, r18
     eba:	4a e0       	ldi	r20, 0x0A	; 10
     ebc:	50 e0       	ldi	r21, 0x00	; 0
     ebe:	0e 94 5a 14 	call	0x28b4	; 0x28b4 <itoa>
     ec2:	8a 85       	ldd	r24, Y+10	; 0x0a
     ec4:	9b 85       	ldd	r25, Y+11	; 0x0b
     ec6:	fc 01       	movw	r30, r24
     ec8:	83 8d       	ldd	r24, Z+27	; 0x1b
     eca:	94 8d       	ldd	r25, Z+28	; 0x1c
     ecc:	9e 01       	movw	r18, r28
     ece:	29 5f       	subi	r18, 0xF9	; 249
     ed0:	3f 4f       	sbci	r19, 0xFF	; 255
     ed2:	b9 01       	movw	r22, r18
     ed4:	4a e0       	ldi	r20, 0x0A	; 10
     ed6:	50 e0       	ldi	r21, 0x00	; 0
     ed8:	0e 94 5a 14 	call	0x28b4	; 0x28b4 <itoa>
     edc:	8a 85       	ldd	r24, Y+10	; 0x0a
     ede:	9b 85       	ldd	r25, Y+11	; 0x0b
     ee0:	4d 96       	adiw	r24, 0x1d	; 29
     ee2:	9e 01       	movw	r18, r28
     ee4:	2f 5f       	subi	r18, 0xFF	; 255
     ee6:	3f 4f       	sbci	r19, 0xFF	; 255
     ee8:	b9 01       	movw	r22, r18
     eea:	0e 94 45 14 	call	0x288a	; 0x288a <strcpy>
     eee:	8a 85       	ldd	r24, Y+10	; 0x0a
     ef0:	9b 85       	ldd	r25, Y+11	; 0x0b
     ef2:	9c 01       	movw	r18, r24
     ef4:	23 5e       	subi	r18, 0xE3	; 227
     ef6:	3f 4f       	sbci	r19, 0xFF	; 255
     ef8:	c9 01       	movw	r24, r18
     efa:	ac 01       	movw	r20, r24
     efc:	fa 01       	movw	r30, r20
     efe:	01 90       	ld	r0, Z+
     f00:	00 20       	and	r0, r0
     f02:	e9 f7       	brne	.-6      	; 0xefe <_ZN6myTime7getTimeEv+0x88>
     f04:	cf 01       	movw	r24, r30
     f06:	01 97       	sbiw	r24, 0x01	; 1
     f08:	84 1b       	sub	r24, r20
     f0a:	95 0b       	sbc	r25, r21
     f0c:	82 0f       	add	r24, r18
     f0e:	93 1f       	adc	r25, r19
     f10:	2a e3       	ldi	r18, 0x3A	; 58
     f12:	30 e0       	ldi	r19, 0x00	; 0
     f14:	fc 01       	movw	r30, r24
     f16:	31 83       	std	Z+1, r19	; 0x01
     f18:	20 83       	st	Z, r18
     f1a:	8a 85       	ldd	r24, Y+10	; 0x0a
     f1c:	9b 85       	ldd	r25, Y+11	; 0x0b
     f1e:	4d 96       	adiw	r24, 0x1d	; 29
     f20:	9e 01       	movw	r18, r28
     f22:	2c 5f       	subi	r18, 0xFC	; 252
     f24:	3f 4f       	sbci	r19, 0xFF	; 255
     f26:	b9 01       	movw	r22, r18
     f28:	0e 94 31 14 	call	0x2862	; 0x2862 <strcat>
     f2c:	8a 85       	ldd	r24, Y+10	; 0x0a
     f2e:	9b 85       	ldd	r25, Y+11	; 0x0b
     f30:	9c 01       	movw	r18, r24
     f32:	23 5e       	subi	r18, 0xE3	; 227
     f34:	3f 4f       	sbci	r19, 0xFF	; 255
     f36:	c9 01       	movw	r24, r18
     f38:	ac 01       	movw	r20, r24
     f3a:	fa 01       	movw	r30, r20
     f3c:	01 90       	ld	r0, Z+
     f3e:	00 20       	and	r0, r0
     f40:	e9 f7       	brne	.-6      	; 0xf3c <_ZN6myTime7getTimeEv+0xc6>
     f42:	cf 01       	movw	r24, r30
     f44:	01 97       	sbiw	r24, 0x01	; 1
     f46:	84 1b       	sub	r24, r20
     f48:	95 0b       	sbc	r25, r21
     f4a:	82 0f       	add	r24, r18
     f4c:	93 1f       	adc	r25, r19
     f4e:	2a e3       	ldi	r18, 0x3A	; 58
     f50:	30 e0       	ldi	r19, 0x00	; 0
     f52:	fc 01       	movw	r30, r24
     f54:	31 83       	std	Z+1, r19	; 0x01
     f56:	20 83       	st	Z, r18
     f58:	8a 85       	ldd	r24, Y+10	; 0x0a
     f5a:	9b 85       	ldd	r25, Y+11	; 0x0b
     f5c:	4d 96       	adiw	r24, 0x1d	; 29
     f5e:	9e 01       	movw	r18, r28
     f60:	29 5f       	subi	r18, 0xF9	; 249
     f62:	3f 4f       	sbci	r19, 0xFF	; 255
     f64:	b9 01       	movw	r22, r18
     f66:	0e 94 31 14 	call	0x2862	; 0x2862 <strcat>
     f6a:	8a 85       	ldd	r24, Y+10	; 0x0a
     f6c:	9b 85       	ldd	r25, Y+11	; 0x0b
     f6e:	fc 01       	movw	r30, r24
     f70:	10 a6       	lds	r17, 0xb0
     f72:	8a 85       	ldd	r24, Y+10	; 0x0a
     f74:	9b 85       	ldd	r25, Y+11	; 0x0b
     f76:	4d 96       	adiw	r24, 0x1d	; 29
     f78:	2b 96       	adiw	r28, 0x0b	; 11
     f7a:	0f b6       	in	r0, 0x3f	; 63
     f7c:	f8 94       	cli
     f7e:	de bf       	out	0x3e, r29	; 62
     f80:	0f be       	out	0x3f, r0	; 63
     f82:	cd bf       	out	0x3d, r28	; 61
     f84:	df 91       	pop	r29
     f86:	cf 91       	pop	r28
     f88:	08 95       	ret

00000f8a <_Z18getDateTime_eepromhh>:
     f8a:	cf 93       	push	r28
     f8c:	df 93       	push	r29
     f8e:	cd b7       	in	r28, 0x3d	; 61
     f90:	de b7       	in	r29, 0x3e	; 62
     f92:	2f 97       	sbiw	r28, 0x0f	; 15
     f94:	0f b6       	in	r0, 0x3f	; 63
     f96:	f8 94       	cli
     f98:	de bf       	out	0x3e, r29	; 62
     f9a:	0f be       	out	0x3f, r0	; 63
     f9c:	cd bf       	out	0x3d, r28	; 61
     f9e:	8e 87       	std	Y+14, r24	; 0x0e
     fa0:	6f 87       	std	Y+15, r22	; 0x0f
     fa2:	f8 94       	cli
     fa4:	8e 85       	ldd	r24, Y+14	; 0x0e
     fa6:	88 23       	and	r24, r24
     fa8:	09 f4       	brne	.+2      	; 0xfac <_Z18getDateTime_eepromhh+0x22>
     faa:	4b c0       	rjmp	.+150    	; 0x1042 <_Z18getDateTime_eepromhh+0xb8>
     fac:	1a 82       	std	Y+2, r1	; 0x02
     fae:	19 82       	std	Y+1, r1	; 0x01
     fb0:	81 e0       	ldi	r24, 0x01	; 1
     fb2:	8b 83       	std	Y+3, r24	; 0x03
     fb4:	2c c0       	rjmp	.+88     	; 0x100e <_Z18getDateTime_eepromhh+0x84>
     fb6:	82 e0       	ldi	r24, 0x02	; 2
     fb8:	90 e0       	ldi	r25, 0x00	; 0
     fba:	0e 94 83 14 	call	0x2906	; 0x2906 <__eerd_byte_m2560>
     fbe:	8f 83       	std	Y+7, r24	; 0x07
     fc0:	81 e0       	ldi	r24, 0x01	; 1
     fc2:	90 e0       	ldi	r25, 0x00	; 0
     fc4:	0e 94 83 14 	call	0x2906	; 0x2906 <__eerd_byte_m2560>
     fc8:	88 87       	std	Y+8, r24	; 0x08
     fca:	80 e0       	ldi	r24, 0x00	; 0
     fcc:	90 e0       	ldi	r25, 0x00	; 0
     fce:	0e 94 83 14 	call	0x2906	; 0x2906 <__eerd_byte_m2560>
     fd2:	89 87       	std	Y+9, r24	; 0x09
     fd4:	8f 81       	ldd	r24, Y+7	; 0x07
     fd6:	8c 33       	cpi	r24, 0x3C	; 60
     fd8:	a8 f4       	brcc	.+42     	; 0x1004 <_Z18getDateTime_eepromhh+0x7a>
     fda:	88 85       	ldd	r24, Y+8	; 0x08
     fdc:	8c 33       	cpi	r24, 0x3C	; 60
     fde:	90 f4       	brcc	.+36     	; 0x1004 <_Z18getDateTime_eepromhh+0x7a>
     fe0:	89 85       	ldd	r24, Y+9	; 0x09
     fe2:	88 31       	cpi	r24, 0x18	; 24
     fe4:	78 f4       	brcc	.+30     	; 0x1004 <_Z18getDateTime_eepromhh+0x7a>
     fe6:	89 85       	ldd	r24, Y+9	; 0x09
     fe8:	68 2f       	mov	r22, r24
     fea:	70 e0       	ldi	r23, 0x00	; 0
     fec:	88 85       	ldd	r24, Y+8	; 0x08
     fee:	48 2f       	mov	r20, r24
     ff0:	50 e0       	ldi	r21, 0x00	; 0
     ff2:	8f 81       	ldd	r24, Y+7	; 0x07
     ff4:	28 2f       	mov	r18, r24
     ff6:	30 e0       	ldi	r19, 0x00	; 0
     ff8:	86 e6       	ldi	r24, 0x66	; 102
     ffa:	92 e0       	ldi	r25, 0x02	; 2
     ffc:	0e 94 96 05 	call	0xb2c	; 0xb2c <_ZN6myTime7setTimeEiii>
    1000:	1b 82       	std	Y+3, r1	; 0x03
    1002:	05 c0       	rjmp	.+10     	; 0x100e <_Z18getDateTime_eepromhh+0x84>
    1004:	89 81       	ldd	r24, Y+1	; 0x01
    1006:	9a 81       	ldd	r25, Y+2	; 0x02
    1008:	01 96       	adiw	r24, 0x01	; 1
    100a:	9a 83       	std	Y+2, r25	; 0x02
    100c:	89 83       	std	Y+1, r24	; 0x01
    100e:	8b 81       	ldd	r24, Y+3	; 0x03
    1010:	88 23       	and	r24, r24
    1012:	39 f0       	breq	.+14     	; 0x1022 <_Z18getDateTime_eepromhh+0x98>
    1014:	89 81       	ldd	r24, Y+1	; 0x01
    1016:	9a 81       	ldd	r25, Y+2	; 0x02
    1018:	83 30       	cpi	r24, 0x03	; 3
    101a:	91 05       	cpc	r25, r1
    101c:	14 f4       	brge	.+4      	; 0x1022 <_Z18getDateTime_eepromhh+0x98>
    101e:	81 e0       	ldi	r24, 0x01	; 1
    1020:	01 c0       	rjmp	.+2      	; 0x1024 <_Z18getDateTime_eepromhh+0x9a>
    1022:	80 e0       	ldi	r24, 0x00	; 0
    1024:	88 23       	and	r24, r24
    1026:	39 f6       	brne	.-114    	; 0xfb6 <_Z18getDateTime_eepromhh+0x2c>
    1028:	8b 81       	ldd	r24, Y+3	; 0x03
    102a:	88 23       	and	r24, r24
    102c:	51 f0       	breq	.+20     	; 0x1042 <_Z18getDateTime_eepromhh+0xb8>
    102e:	86 e6       	ldi	r24, 0x66	; 102
    1030:	92 e0       	ldi	r25, 0x02	; 2
    1032:	61 e0       	ldi	r22, 0x01	; 1
    1034:	70 e0       	ldi	r23, 0x00	; 0
    1036:	41 e0       	ldi	r20, 0x01	; 1
    1038:	50 e0       	ldi	r21, 0x00	; 0
    103a:	21 e0       	ldi	r18, 0x01	; 1
    103c:	30 e0       	ldi	r19, 0x00	; 0
    103e:	0e 94 96 05 	call	0xb2c	; 0xb2c <_ZN6myTime7setTimeEiii>
    1042:	8f 85       	ldd	r24, Y+15	; 0x0f
    1044:	88 23       	and	r24, r24
    1046:	09 f4       	brne	.+2      	; 0x104a <_Z18getDateTime_eepromhh+0xc0>
    1048:	4e c0       	rjmp	.+156    	; 0x10e6 <_Z18getDateTime_eepromhh+0x15c>
    104a:	1d 82       	std	Y+5, r1	; 0x05
    104c:	1c 82       	std	Y+4, r1	; 0x04
    104e:	81 e0       	ldi	r24, 0x01	; 1
    1050:	8e 83       	std	Y+6, r24	; 0x06
    1052:	2f c0       	rjmp	.+94     	; 0x10b2 <_Z18getDateTime_eepromhh+0x128>
    1054:	84 e0       	ldi	r24, 0x04	; 4
    1056:	90 e0       	ldi	r25, 0x00	; 0
    1058:	0e 94 83 14 	call	0x2906	; 0x2906 <__eerd_byte_m2560>
    105c:	8a 87       	std	Y+10, r24	; 0x0a
    105e:	83 e0       	ldi	r24, 0x03	; 3
    1060:	90 e0       	ldi	r25, 0x00	; 0
    1062:	0e 94 83 14 	call	0x2906	; 0x2906 <__eerd_byte_m2560>
    1066:	8b 87       	std	Y+11, r24	; 0x0b
    1068:	85 e0       	ldi	r24, 0x05	; 5
    106a:	90 e0       	ldi	r25, 0x00	; 0
    106c:	0e 94 8b 14 	call	0x2916	; 0x2916 <__eerd_word_m2560>
    1070:	9d 87       	std	Y+13, r25	; 0x0d
    1072:	8c 87       	std	Y+12, r24	; 0x0c
    1074:	8a 85       	ldd	r24, Y+10	; 0x0a
    1076:	8f 31       	cpi	r24, 0x1F	; 31
    1078:	b8 f4       	brcc	.+46     	; 0x10a8 <_Z18getDateTime_eepromhh+0x11e>
    107a:	8b 85       	ldd	r24, Y+11	; 0x0b
    107c:	8d 30       	cpi	r24, 0x0D	; 13
    107e:	a0 f4       	brcc	.+40     	; 0x10a8 <_Z18getDateTime_eepromhh+0x11e>
    1080:	8c 85       	ldd	r24, Y+12	; 0x0c
    1082:	9d 85       	ldd	r25, Y+13	; 0x0d
    1084:	27 e2       	ldi	r18, 0x27	; 39
    1086:	80 31       	cpi	r24, 0x10	; 16
    1088:	92 07       	cpc	r25, r18
    108a:	70 f4       	brcc	.+28     	; 0x10a8 <_Z18getDateTime_eepromhh+0x11e>
    108c:	8b 85       	ldd	r24, Y+11	; 0x0b
    108e:	68 2f       	mov	r22, r24
    1090:	70 e0       	ldi	r23, 0x00	; 0
    1092:	8a 85       	ldd	r24, Y+10	; 0x0a
    1094:	48 2f       	mov	r20, r24
    1096:	50 e0       	ldi	r21, 0x00	; 0
    1098:	2c 85       	ldd	r18, Y+12	; 0x0c
    109a:	3d 85       	ldd	r19, Y+13	; 0x0d
    109c:	86 e6       	ldi	r24, 0x66	; 102
    109e:	92 e0       	ldi	r25, 0x02	; 2
    10a0:	0e 94 c5 01 	call	0x38a	; 0x38a <_ZN6myDate7setDateEiii>
    10a4:	1e 82       	std	Y+6, r1	; 0x06
    10a6:	05 c0       	rjmp	.+10     	; 0x10b2 <_Z18getDateTime_eepromhh+0x128>
    10a8:	8c 81       	ldd	r24, Y+4	; 0x04
    10aa:	9d 81       	ldd	r25, Y+5	; 0x05
    10ac:	01 96       	adiw	r24, 0x01	; 1
    10ae:	9d 83       	std	Y+5, r25	; 0x05
    10b0:	8c 83       	std	Y+4, r24	; 0x04
    10b2:	8e 81       	ldd	r24, Y+6	; 0x06
    10b4:	88 23       	and	r24, r24
    10b6:	39 f0       	breq	.+14     	; 0x10c6 <_Z18getDateTime_eepromhh+0x13c>
    10b8:	8c 81       	ldd	r24, Y+4	; 0x04
    10ba:	9d 81       	ldd	r25, Y+5	; 0x05
    10bc:	83 30       	cpi	r24, 0x03	; 3
    10be:	91 05       	cpc	r25, r1
    10c0:	14 f4       	brge	.+4      	; 0x10c6 <_Z18getDateTime_eepromhh+0x13c>
    10c2:	81 e0       	ldi	r24, 0x01	; 1
    10c4:	01 c0       	rjmp	.+2      	; 0x10c8 <_Z18getDateTime_eepromhh+0x13e>
    10c6:	80 e0       	ldi	r24, 0x00	; 0
    10c8:	88 23       	and	r24, r24
    10ca:	21 f6       	brne	.-120    	; 0x1054 <_Z18getDateTime_eepromhh+0xca>
    10cc:	8e 81       	ldd	r24, Y+6	; 0x06
    10ce:	88 23       	and	r24, r24
    10d0:	51 f0       	breq	.+20     	; 0x10e6 <_Z18getDateTime_eepromhh+0x15c>
    10d2:	86 e6       	ldi	r24, 0x66	; 102
    10d4:	92 e0       	ldi	r25, 0x02	; 2
    10d6:	61 e0       	ldi	r22, 0x01	; 1
    10d8:	70 e0       	ldi	r23, 0x00	; 0
    10da:	41 e0       	ldi	r20, 0x01	; 1
    10dc:	50 e0       	ldi	r21, 0x00	; 0
    10de:	21 ed       	ldi	r18, 0xD1	; 209
    10e0:	37 e0       	ldi	r19, 0x07	; 7
    10e2:	0e 94 c5 01 	call	0x38a	; 0x38a <_ZN6myDate7setDateEiii>
    10e6:	78 94       	sei
    10e8:	2f 96       	adiw	r28, 0x0f	; 15
    10ea:	0f b6       	in	r0, 0x3f	; 63
    10ec:	f8 94       	cli
    10ee:	de bf       	out	0x3e, r29	; 62
    10f0:	0f be       	out	0x3f, r0	; 63
    10f2:	cd bf       	out	0x3d, r28	; 61
    10f4:	df 91       	pop	r29
    10f6:	cf 91       	pop	r28
    10f8:	08 95       	ret

000010fa <_Z19saveDateTime_eepromhh>:
    10fa:	cf 93       	push	r28
    10fc:	df 93       	push	r29
    10fe:	cd b7       	in	r28, 0x3d	; 61
    1100:	de b7       	in	r29, 0x3e	; 62
    1102:	29 97       	sbiw	r28, 0x09	; 9
    1104:	0f b6       	in	r0, 0x3f	; 63
    1106:	f8 94       	cli
    1108:	de bf       	out	0x3e, r29	; 62
    110a:	0f be       	out	0x3f, r0	; 63
    110c:	cd bf       	out	0x3d, r28	; 61
    110e:	88 87       	std	Y+8, r24	; 0x08
    1110:	69 87       	std	Y+9, r22	; 0x09
    1112:	f8 94       	cli
    1114:	88 85       	ldd	r24, Y+8	; 0x08
    1116:	88 23       	and	r24, r24
    1118:	f1 f0       	breq	.+60     	; 0x1156 <_Z19saveDateTime_eepromhh+0x5c>
    111a:	86 e6       	ldi	r24, 0x66	; 102
    111c:	92 e0       	ldi	r25, 0x02	; 2
    111e:	0e 94 f7 04 	call	0x9ee	; 0x9ee <_ZN6myTime8getHoursEv>
    1122:	89 83       	std	Y+1, r24	; 0x01
    1124:	86 e6       	ldi	r24, 0x66	; 102
    1126:	92 e0       	ldi	r25, 0x02	; 2
    1128:	0e 94 e5 04 	call	0x9ca	; 0x9ca <_ZN6myTime10getMinutesEv>
    112c:	8a 83       	std	Y+2, r24	; 0x02
    112e:	86 e6       	ldi	r24, 0x66	; 102
    1130:	92 e0       	ldi	r25, 0x02	; 2
    1132:	0e 94 d3 04 	call	0x9a6	; 0x9a6 <_ZN6myTime10getSecondsEv>
    1136:	8b 83       	std	Y+3, r24	; 0x03
    1138:	82 e0       	ldi	r24, 0x02	; 2
    113a:	90 e0       	ldi	r25, 0x00	; 0
    113c:	6b 81       	ldd	r22, Y+3	; 0x03
    113e:	0e 94 91 14 	call	0x2922	; 0x2922 <__eewr_byte_m2560>
    1142:	81 e0       	ldi	r24, 0x01	; 1
    1144:	90 e0       	ldi	r25, 0x00	; 0
    1146:	6a 81       	ldd	r22, Y+2	; 0x02
    1148:	0e 94 91 14 	call	0x2922	; 0x2922 <__eewr_byte_m2560>
    114c:	80 e0       	ldi	r24, 0x00	; 0
    114e:	90 e0       	ldi	r25, 0x00	; 0
    1150:	69 81       	ldd	r22, Y+1	; 0x01
    1152:	0e 94 91 14 	call	0x2922	; 0x2922 <__eewr_byte_m2560>
    1156:	89 85       	ldd	r24, Y+9	; 0x09
    1158:	88 23       	and	r24, r24
    115a:	09 f1       	breq	.+66     	; 0x119e <_Z19saveDateTime_eepromhh+0xa4>
    115c:	86 e6       	ldi	r24, 0x66	; 102
    115e:	92 e0       	ldi	r25, 0x02	; 2
    1160:	0e 94 f9 00 	call	0x1f2	; 0x1f2 <_ZN6myDate8getYearsEv>
    1164:	9d 83       	std	Y+5, r25	; 0x05
    1166:	8c 83       	std	Y+4, r24	; 0x04
    1168:	86 e6       	ldi	r24, 0x66	; 102
    116a:	92 e0       	ldi	r25, 0x02	; 2
    116c:	0e 94 e7 00 	call	0x1ce	; 0x1ce <_ZN6myDate9getMonthsEv>
    1170:	8e 83       	std	Y+6, r24	; 0x06
    1172:	86 e6       	ldi	r24, 0x66	; 102
    1174:	92 e0       	ldi	r25, 0x02	; 2
    1176:	0e 94 0b 01 	call	0x216	; 0x216 <_ZN6myDate7getDaysEv>
    117a:	8f 83       	std	Y+7, r24	; 0x07
    117c:	85 e0       	ldi	r24, 0x05	; 5
    117e:	90 e0       	ldi	r25, 0x00	; 0
    1180:	2c 81       	ldd	r18, Y+4	; 0x04
    1182:	3d 81       	ldd	r19, Y+5	; 0x05
    1184:	b9 01       	movw	r22, r18
    1186:	0e 94 9f 14 	call	0x293e	; 0x293e <__eewr_word_m2560>
    118a:	83 e0       	ldi	r24, 0x03	; 3
    118c:	90 e0       	ldi	r25, 0x00	; 0
    118e:	6e 81       	ldd	r22, Y+6	; 0x06
    1190:	0e 94 91 14 	call	0x2922	; 0x2922 <__eewr_byte_m2560>
    1194:	84 e0       	ldi	r24, 0x04	; 4
    1196:	90 e0       	ldi	r25, 0x00	; 0
    1198:	6f 81       	ldd	r22, Y+7	; 0x07
    119a:	0e 94 91 14 	call	0x2922	; 0x2922 <__eewr_byte_m2560>
    119e:	78 94       	sei
    11a0:	29 96       	adiw	r28, 0x09	; 9
    11a2:	0f b6       	in	r0, 0x3f	; 63
    11a4:	f8 94       	cli
    11a6:	de bf       	out	0x3e, r29	; 62
    11a8:	0f be       	out	0x3f, r0	; 63
    11aa:	cd bf       	out	0x3d, r28	; 61
    11ac:	df 91       	pop	r29
    11ae:	cf 91       	pop	r28
    11b0:	08 95       	ret

000011b2 <_Z13PutUartChBonec>:
    11b2:	cf 93       	push	r28
    11b4:	df 93       	push	r29
    11b6:	0f 92       	push	r0
    11b8:	cd b7       	in	r28, 0x3d	; 61
    11ba:	de b7       	in	r29, 0x3e	; 62
    11bc:	89 83       	std	Y+1, r24	; 0x01
    11be:	00 00       	nop
    11c0:	80 ec       	ldi	r24, 0xC0	; 192
    11c2:	90 e0       	ldi	r25, 0x00	; 0
    11c4:	fc 01       	movw	r30, r24
    11c6:	80 81       	ld	r24, Z
    11c8:	88 2f       	mov	r24, r24
    11ca:	90 e0       	ldi	r25, 0x00	; 0
    11cc:	80 72       	andi	r24, 0x20	; 32
    11ce:	90 70       	andi	r25, 0x00	; 0
    11d0:	21 e0       	ldi	r18, 0x01	; 1
    11d2:	00 97       	sbiw	r24, 0x00	; 0
    11d4:	09 f0       	breq	.+2      	; 0x11d8 <_Z13PutUartChBonec+0x26>
    11d6:	20 e0       	ldi	r18, 0x00	; 0
    11d8:	22 23       	and	r18, r18
    11da:	91 f7       	brne	.-28     	; 0x11c0 <_Z13PutUartChBonec+0xe>
    11dc:	86 ec       	ldi	r24, 0xC6	; 198
    11de:	90 e0       	ldi	r25, 0x00	; 0
    11e0:	29 81       	ldd	r18, Y+1	; 0x01
    11e2:	fc 01       	movw	r30, r24
    11e4:	20 83       	st	Z, r18
    11e6:	0f 90       	pop	r0
    11e8:	df 91       	pop	r29
    11ea:	cf 91       	pop	r28
    11ec:	08 95       	ret

000011ee <_Z9PrintBonePc>:
    11ee:	cf 93       	push	r28
    11f0:	df 93       	push	r29
    11f2:	00 d0       	rcall	.+0      	; 0x11f4 <_Z9PrintBonePc+0x6>
    11f4:	cd b7       	in	r28, 0x3d	; 61
    11f6:	de b7       	in	r29, 0x3e	; 62
    11f8:	9b 83       	std	Y+3, r25	; 0x03
    11fa:	8a 83       	std	Y+2, r24	; 0x02
    11fc:	19 82       	std	Y+1, r1	; 0x01
    11fe:	0e c0       	rjmp	.+28     	; 0x121c <_Z9PrintBonePc+0x2e>
    1200:	89 81       	ldd	r24, Y+1	; 0x01
    1202:	88 2f       	mov	r24, r24
    1204:	90 e0       	ldi	r25, 0x00	; 0
    1206:	2a 81       	ldd	r18, Y+2	; 0x02
    1208:	3b 81       	ldd	r19, Y+3	; 0x03
    120a:	82 0f       	add	r24, r18
    120c:	93 1f       	adc	r25, r19
    120e:	fc 01       	movw	r30, r24
    1210:	80 81       	ld	r24, Z
    1212:	99 81       	ldd	r25, Y+1	; 0x01
    1214:	9f 5f       	subi	r25, 0xFF	; 255
    1216:	99 83       	std	Y+1, r25	; 0x01
    1218:	0e 94 d9 08 	call	0x11b2	; 0x11b2 <_Z13PutUartChBonec>
    121c:	89 81       	ldd	r24, Y+1	; 0x01
    121e:	88 2f       	mov	r24, r24
    1220:	90 e0       	ldi	r25, 0x00	; 0
    1222:	2a 81       	ldd	r18, Y+2	; 0x02
    1224:	3b 81       	ldd	r19, Y+3	; 0x03
    1226:	82 0f       	add	r24, r18
    1228:	93 1f       	adc	r25, r19
    122a:	fc 01       	movw	r30, r24
    122c:	90 81       	ld	r25, Z
    122e:	81 e0       	ldi	r24, 0x01	; 1
    1230:	99 23       	and	r25, r25
    1232:	09 f4       	brne	.+2      	; 0x1236 <_Z9PrintBonePc+0x48>
    1234:	80 e0       	ldi	r24, 0x00	; 0
    1236:	88 23       	and	r24, r24
    1238:	19 f7       	brne	.-58     	; 0x1200 <_Z9PrintBonePc+0x12>
    123a:	0f 90       	pop	r0
    123c:	0f 90       	pop	r0
    123e:	0f 90       	pop	r0
    1240:	df 91       	pop	r29
    1242:	cf 91       	pop	r28
    1244:	08 95       	ret

00001246 <_Z13PutUartChWAVRc>:
    1246:	cf 93       	push	r28
    1248:	df 93       	push	r29
    124a:	0f 92       	push	r0
    124c:	cd b7       	in	r28, 0x3d	; 61
    124e:	de b7       	in	r29, 0x3e	; 62
    1250:	89 83       	std	Y+1, r24	; 0x01
    1252:	00 00       	nop
    1254:	88 ec       	ldi	r24, 0xC8	; 200
    1256:	90 e0       	ldi	r25, 0x00	; 0
    1258:	fc 01       	movw	r30, r24
    125a:	80 81       	ld	r24, Z
    125c:	88 2f       	mov	r24, r24
    125e:	90 e0       	ldi	r25, 0x00	; 0
    1260:	80 72       	andi	r24, 0x20	; 32
    1262:	90 70       	andi	r25, 0x00	; 0
    1264:	21 e0       	ldi	r18, 0x01	; 1
    1266:	00 97       	sbiw	r24, 0x00	; 0
    1268:	09 f0       	breq	.+2      	; 0x126c <_Z13PutUartChWAVRc+0x26>
    126a:	20 e0       	ldi	r18, 0x00	; 0
    126c:	22 23       	and	r18, r18
    126e:	91 f7       	brne	.-28     	; 0x1254 <_Z13PutUartChWAVRc+0xe>
    1270:	8e ec       	ldi	r24, 0xCE	; 206
    1272:	90 e0       	ldi	r25, 0x00	; 0
    1274:	29 81       	ldd	r18, Y+1	; 0x01
    1276:	fc 01       	movw	r30, r24
    1278:	20 83       	st	Z, r18
    127a:	0f 90       	pop	r0
    127c:	df 91       	pop	r29
    127e:	cf 91       	pop	r28
    1280:	08 95       	ret

00001282 <_Z9PrintWAVRPc>:
    1282:	cf 93       	push	r28
    1284:	df 93       	push	r29
    1286:	00 d0       	rcall	.+0      	; 0x1288 <_Z9PrintWAVRPc+0x6>
    1288:	cd b7       	in	r28, 0x3d	; 61
    128a:	de b7       	in	r29, 0x3e	; 62
    128c:	9b 83       	std	Y+3, r25	; 0x03
    128e:	8a 83       	std	Y+2, r24	; 0x02
    1290:	19 82       	std	Y+1, r1	; 0x01
    1292:	0e c0       	rjmp	.+28     	; 0x12b0 <_Z9PrintWAVRPc+0x2e>
    1294:	89 81       	ldd	r24, Y+1	; 0x01
    1296:	88 2f       	mov	r24, r24
    1298:	90 e0       	ldi	r25, 0x00	; 0
    129a:	2a 81       	ldd	r18, Y+2	; 0x02
    129c:	3b 81       	ldd	r19, Y+3	; 0x03
    129e:	82 0f       	add	r24, r18
    12a0:	93 1f       	adc	r25, r19
    12a2:	fc 01       	movw	r30, r24
    12a4:	80 81       	ld	r24, Z
    12a6:	99 81       	ldd	r25, Y+1	; 0x01
    12a8:	9f 5f       	subi	r25, 0xFF	; 255
    12aa:	99 83       	std	Y+1, r25	; 0x01
    12ac:	0e 94 23 09 	call	0x1246	; 0x1246 <_Z13PutUartChWAVRc>
    12b0:	89 81       	ldd	r24, Y+1	; 0x01
    12b2:	88 2f       	mov	r24, r24
    12b4:	90 e0       	ldi	r25, 0x00	; 0
    12b6:	2a 81       	ldd	r18, Y+2	; 0x02
    12b8:	3b 81       	ldd	r19, Y+3	; 0x03
    12ba:	82 0f       	add	r24, r18
    12bc:	93 1f       	adc	r25, r19
    12be:	fc 01       	movw	r30, r24
    12c0:	90 81       	ld	r25, Z
    12c2:	81 e0       	ldi	r24, 0x01	; 1
    12c4:	99 23       	and	r25, r25
    12c6:	09 f4       	brne	.+2      	; 0x12ca <_Z9PrintWAVRPc+0x48>
    12c8:	80 e0       	ldi	r24, 0x00	; 0
    12ca:	88 23       	and	r24, r24
    12cc:	19 f7       	brne	.-58     	; 0x1294 <_Z9PrintWAVRPc+0x12>
    12ce:	0f 90       	pop	r0
    12d0:	0f 90       	pop	r0
    12d2:	0f 90       	pop	r0
    12d4:	df 91       	pop	r29
    12d6:	cf 91       	pop	r28
    12d8:	08 95       	ret

000012da <_Z11ReceiveWAVRv>:
    12da:	cf 93       	push	r28
    12dc:	df 93       	push	r29
    12de:	cd b7       	in	r28, 0x3d	; 61
    12e0:	de b7       	in	r29, 0x3e	; 62
    12e2:	cf 54       	subi	r28, 0x4F	; 79
    12e4:	d0 40       	sbci	r29, 0x00	; 0
    12e6:	0f b6       	in	r0, 0x3f	; 63
    12e8:	f8 94       	cli
    12ea:	de bf       	out	0x3e, r29	; 62
    12ec:	0f be       	out	0x3f, r0	; 63
    12ee:	cd bf       	out	0x3d, r28	; 61
    12f0:	78 94       	sei
    12f2:	1e 8a       	std	Y+22, r1	; 0x16
    12f4:	1d 8a       	std	Y+21, r1	; 0x15
    12f6:	1a 82       	std	Y+2, r1	; 0x02
    12f8:	19 82       	std	Y+1, r1	; 0x01
    12fa:	81 e0       	ldi	r24, 0x01	; 1
    12fc:	8b 83       	std	Y+3, r24	; 0x03
    12fe:	8d 89       	ldd	r24, Y+21	; 0x15
    1300:	9e 89       	ldd	r25, Y+22	; 0x16
    1302:	82 30       	cpi	r24, 0x02	; 2
    1304:	91 05       	cpc	r25, r1
    1306:	09 f4       	brne	.+2      	; 0x130a <_Z11ReceiveWAVRv+0x30>
    1308:	9a c0       	rjmp	.+308    	; 0x143e <_Z11ReceiveWAVRv+0x164>
    130a:	83 30       	cpi	r24, 0x03	; 3
    130c:	91 05       	cpc	r25, r1
    130e:	38 f4       	brcc	.+14     	; 0x131e <_Z11ReceiveWAVRv+0x44>
    1310:	00 97       	sbiw	r24, 0x00	; 0
    1312:	91 f0       	breq	.+36     	; 0x1338 <_Z11ReceiveWAVRv+0x5e>
    1314:	81 30       	cpi	r24, 0x01	; 1
    1316:	91 05       	cpc	r25, r1
    1318:	09 f4       	brne	.+2      	; 0x131c <_Z11ReceiveWAVRv+0x42>
    131a:	83 c0       	rjmp	.+262    	; 0x1422 <_Z11ReceiveWAVRv+0x148>
    131c:	c5 c2       	rjmp	.+1418   	; 0x18a8 <_Z11ReceiveWAVRv+0x5ce>
    131e:	84 30       	cpi	r24, 0x04	; 4
    1320:	91 05       	cpc	r25, r1
    1322:	09 f4       	brne	.+2      	; 0x1326 <_Z11ReceiveWAVRv+0x4c>
    1324:	b5 c2       	rjmp	.+1386   	; 0x1890 <_Z11ReceiveWAVRv+0x5b6>
    1326:	84 30       	cpi	r24, 0x04	; 4
    1328:	91 05       	cpc	r25, r1
    132a:	08 f4       	brcc	.+2      	; 0x132e <_Z11ReceiveWAVRv+0x54>
    132c:	d1 c0       	rjmp	.+418    	; 0x14d0 <_Z11ReceiveWAVRv+0x1f6>
    132e:	85 30       	cpi	r24, 0x05	; 5
    1330:	91 05       	cpc	r25, r1
    1332:	09 f4       	brne	.+2      	; 0x1336 <_Z11ReceiveWAVRv+0x5c>
    1334:	b1 c2       	rjmp	.+1378   	; 0x1898 <_Z11ReceiveWAVRv+0x5be>
    1336:	b8 c2       	rjmp	.+1392   	; 0x18a8 <_Z11ReceiveWAVRv+0x5ce>
    1338:	1a 82       	std	Y+2, r1	; 0x02
    133a:	19 82       	std	Y+1, r1	; 0x01
    133c:	8e ec       	ldi	r24, 0xCE	; 206
    133e:	90 e0       	ldi	r25, 0x00	; 0
    1340:	fc 01       	movw	r30, r24
    1342:	80 81       	ld	r24, Z
    1344:	8c 8b       	std	Y+20, r24	; 0x14
    1346:	8c 89       	ldd	r24, Y+20	; 0x14
    1348:	8e 32       	cpi	r24, 0x2E	; 46
    134a:	49 f4       	brne	.+18     	; 0x135e <_Z11ReceiveWAVRv+0x84>
    134c:	80 e0       	ldi	r24, 0x00	; 0
    134e:	92 e0       	ldi	r25, 0x02	; 2
    1350:	0e 94 41 09 	call	0x1282	; 0x1282 <_Z9PrintWAVRPc>
    1354:	84 e0       	ldi	r24, 0x04	; 4
    1356:	90 e0       	ldi	r25, 0x00	; 0
    1358:	9e 8b       	std	Y+22, r25	; 0x16
    135a:	8d 8b       	std	Y+21, r24	; 0x15
    135c:	ab c2       	rjmp	.+1366   	; 0x18b4 <_Z11ReceiveWAVRv+0x5da>
    135e:	9e 01       	movw	r18, r28
    1360:	28 5d       	subi	r18, 0xD8	; 216
    1362:	3f 4f       	sbci	r19, 0xFF	; 255
    1364:	89 81       	ldd	r24, Y+1	; 0x01
    1366:	9a 81       	ldd	r25, Y+2	; 0x02
    1368:	82 0f       	add	r24, r18
    136a:	93 1f       	adc	r25, r19
    136c:	2c 89       	ldd	r18, Y+20	; 0x14
    136e:	fc 01       	movw	r30, r24
    1370:	20 83       	st	Z, r18
    1372:	89 81       	ldd	r24, Y+1	; 0x01
    1374:	9a 81       	ldd	r25, Y+2	; 0x02
    1376:	01 96       	adiw	r24, 0x01	; 1
    1378:	9a 83       	std	Y+2, r25	; 0x02
    137a:	89 83       	std	Y+1, r24	; 0x01
    137c:	81 e0       	ldi	r24, 0x01	; 1
    137e:	90 e0       	ldi	r25, 0x00	; 0
    1380:	9e 8b       	std	Y+22, r25	; 0x16
    1382:	8d 8b       	std	Y+21, r24	; 0x15
    1384:	97 c2       	rjmp	.+1326   	; 0x18b4 <_Z11ReceiveWAVRv+0x5da>
    1386:	00 00       	nop
    1388:	88 ec       	ldi	r24, 0xC8	; 200
    138a:	90 e0       	ldi	r25, 0x00	; 0
    138c:	fc 01       	movw	r30, r24
    138e:	80 81       	ld	r24, Z
    1390:	88 23       	and	r24, r24
    1392:	34 f0       	brlt	.+12     	; 0x13a0 <_Z11ReceiveWAVRv+0xc6>
    1394:	80 91 60 02 	lds	r24, 0x0260
    1398:	88 23       	and	r24, r24
    139a:	11 f0       	breq	.+4      	; 0x13a0 <_Z11ReceiveWAVRv+0xc6>
    139c:	81 e0       	ldi	r24, 0x01	; 1
    139e:	01 c0       	rjmp	.+2      	; 0x13a2 <_Z11ReceiveWAVRv+0xc8>
    13a0:	80 e0       	ldi	r24, 0x00	; 0
    13a2:	88 23       	and	r24, r24
    13a4:	89 f7       	brne	.-30     	; 0x1388 <_Z11ReceiveWAVRv+0xae>
    13a6:	80 91 60 02 	lds	r24, 0x0260
    13aa:	88 23       	and	r24, r24
    13ac:	21 f4       	brne	.+8      	; 0x13b6 <_Z11ReceiveWAVRv+0xdc>
    13ae:	1e 8a       	std	Y+22, r1	; 0x16
    13b0:	1d 8a       	std	Y+21, r1	; 0x15
    13b2:	00 00       	nop
    13b4:	7f c2       	rjmp	.+1278   	; 0x18b4 <_Z11ReceiveWAVRv+0x5da>
    13b6:	8e ec       	ldi	r24, 0xCE	; 206
    13b8:	90 e0       	ldi	r25, 0x00	; 0
    13ba:	fc 01       	movw	r30, r24
    13bc:	80 81       	ld	r24, Z
    13be:	8c 8b       	std	Y+20, r24	; 0x14
    13c0:	9e 01       	movw	r18, r28
    13c2:	28 5d       	subi	r18, 0xD8	; 216
    13c4:	3f 4f       	sbci	r19, 0xFF	; 255
    13c6:	89 81       	ldd	r24, Y+1	; 0x01
    13c8:	9a 81       	ldd	r25, Y+2	; 0x02
    13ca:	82 0f       	add	r24, r18
    13cc:	93 1f       	adc	r25, r19
    13ce:	2c 89       	ldd	r18, Y+20	; 0x14
    13d0:	fc 01       	movw	r30, r24
    13d2:	20 83       	st	Z, r18
    13d4:	89 81       	ldd	r24, Y+1	; 0x01
    13d6:	9a 81       	ldd	r25, Y+2	; 0x02
    13d8:	01 96       	adiw	r24, 0x01	; 1
    13da:	9a 83       	std	Y+2, r25	; 0x02
    13dc:	89 83       	std	Y+1, r24	; 0x01
    13de:	8c 89       	ldd	r24, Y+20	; 0x14
    13e0:	8e 32       	cpi	r24, 0x2E	; 46
    13e2:	79 f4       	brne	.+30     	; 0x1402 <_Z11ReceiveWAVRv+0x128>
    13e4:	9e 01       	movw	r18, r28
    13e6:	28 5d       	subi	r18, 0xD8	; 216
    13e8:	3f 4f       	sbci	r19, 0xFF	; 255
    13ea:	89 81       	ldd	r24, Y+1	; 0x01
    13ec:	9a 81       	ldd	r25, Y+2	; 0x02
    13ee:	82 0f       	add	r24, r18
    13f0:	93 1f       	adc	r25, r19
    13f2:	fc 01       	movw	r30, r24
    13f4:	10 82       	st	Z, r1
    13f6:	1b 82       	std	Y+3, r1	; 0x03
    13f8:	82 e0       	ldi	r24, 0x02	; 2
    13fa:	90 e0       	ldi	r25, 0x00	; 0
    13fc:	9e 8b       	std	Y+22, r25	; 0x16
    13fe:	8d 8b       	std	Y+21, r24	; 0x15
    1400:	10 c0       	rjmp	.+32     	; 0x1422 <_Z11ReceiveWAVRv+0x148>
    1402:	89 81       	ldd	r24, Y+1	; 0x01
    1404:	9a 81       	ldd	r25, Y+2	; 0x02
    1406:	87 32       	cpi	r24, 0x27	; 39
    1408:	91 05       	cpc	r25, r1
    140a:	5c f0       	brlt	.+22     	; 0x1422 <_Z11ReceiveWAVRv+0x148>
    140c:	1a 82       	std	Y+2, r1	; 0x02
    140e:	19 82       	std	Y+1, r1	; 0x01
    1410:	1b 82       	std	Y+3, r1	; 0x03
    1412:	10 92 60 02 	sts	0x0260, r1
    1416:	80 e0       	ldi	r24, 0x00	; 0
    1418:	92 e0       	ldi	r25, 0x02	; 2
    141a:	0e 94 41 09 	call	0x1282	; 0x1282 <_Z9PrintWAVRPc>
    141e:	1e 8a       	std	Y+22, r1	; 0x16
    1420:	1d 8a       	std	Y+21, r1	; 0x15
    1422:	8b 81       	ldd	r24, Y+3	; 0x03
    1424:	88 23       	and	r24, r24
    1426:	31 f0       	breq	.+12     	; 0x1434 <_Z11ReceiveWAVRv+0x15a>
    1428:	80 91 60 02 	lds	r24, 0x0260
    142c:	88 23       	and	r24, r24
    142e:	11 f0       	breq	.+4      	; 0x1434 <_Z11ReceiveWAVRv+0x15a>
    1430:	81 e0       	ldi	r24, 0x01	; 1
    1432:	01 c0       	rjmp	.+2      	; 0x1436 <_Z11ReceiveWAVRv+0x15c>
    1434:	80 e0       	ldi	r24, 0x00	; 0
    1436:	88 23       	and	r24, r24
    1438:	09 f0       	breq	.+2      	; 0x143c <_Z11ReceiveWAVRv+0x162>
    143a:	a5 cf       	rjmp	.-182    	; 0x1386 <_Z11ReceiveWAVRv+0xac>
    143c:	3b c2       	rjmp	.+1142   	; 0x18b4 <_Z11ReceiveWAVRv+0x5da>
    143e:	ce 01       	movw	r24, r28
    1440:	88 96       	adiw	r24, 0x28	; 40
    1442:	2a e0       	ldi	r18, 0x0A	; 10
    1444:	32 e0       	ldi	r19, 0x02	; 2
    1446:	b9 01       	movw	r22, r18
    1448:	48 e0       	ldi	r20, 0x08	; 8
    144a:	50 e0       	ldi	r21, 0x00	; 0
    144c:	0e 94 4c 14 	call	0x2898	; 0x2898 <strncmp>
    1450:	00 97       	sbiw	r24, 0x00	; 0
    1452:	29 f4       	brne	.+10     	; 0x145e <_Z11ReceiveWAVRv+0x184>
    1454:	84 e0       	ldi	r24, 0x04	; 4
    1456:	90 e0       	ldi	r25, 0x00	; 0
    1458:	9e 8b       	std	Y+22, r25	; 0x16
    145a:	8d 8b       	std	Y+21, r24	; 0x15
    145c:	2a c2       	rjmp	.+1108   	; 0x18b2 <_Z11ReceiveWAVRv+0x5d8>
    145e:	ce 01       	movw	r24, r28
    1460:	88 96       	adiw	r24, 0x28	; 40
    1462:	23 e1       	ldi	r18, 0x13	; 19
    1464:	32 e0       	ldi	r19, 0x02	; 2
    1466:	b9 01       	movw	r22, r18
    1468:	46 e0       	ldi	r20, 0x06	; 6
    146a:	50 e0       	ldi	r21, 0x00	; 0
    146c:	0e 94 4c 14 	call	0x2898	; 0x2898 <strncmp>
    1470:	00 97       	sbiw	r24, 0x00	; 0
    1472:	99 f4       	brne	.+38     	; 0x149a <_Z11ReceiveWAVRv+0x1c0>
    1474:	84 e0       	ldi	r24, 0x04	; 4
    1476:	90 e0       	ldi	r25, 0x00	; 0
    1478:	9e 8b       	std	Y+22, r25	; 0x16
    147a:	8d 8b       	std	Y+21, r24	; 0x15
    147c:	8a e1       	ldi	r24, 0x1A	; 26
    147e:	92 e0       	ldi	r25, 0x02	; 2
    1480:	0e 94 41 09 	call	0x1282	; 0x1282 <_Z9PrintWAVRPc>
    1484:	81 e0       	ldi	r24, 0x01	; 1
    1486:	80 93 5c 02 	sts	0x025C, r24
    148a:	80 91 5d 02 	lds	r24, 0x025D
    148e:	88 23       	and	r24, r24
    1490:	09 f4       	brne	.+2      	; 0x1494 <_Z11ReceiveWAVRv+0x1ba>
    1492:	0f c2       	rjmp	.+1054   	; 0x18b2 <_Z11ReceiveWAVRv+0x5d8>
    1494:	10 92 5d 02 	sts	0x025D, r1
    1498:	0c c2       	rjmp	.+1048   	; 0x18b2 <_Z11ReceiveWAVRv+0x5d8>
    149a:	8c a5       	lds	r24, 0x6c
    149c:	91 e0       	ldi	r25, 0x01	; 1
    149e:	8a 33       	cpi	r24, 0x3A	; 58
    14a0:	09 f0       	breq	.+2      	; 0x14a4 <_Z11ReceiveWAVRv+0x1ca>
    14a2:	90 e0       	ldi	r25, 0x00	; 0
    14a4:	2d a5       	lds	r18, 0x6d
    14a6:	81 e0       	ldi	r24, 0x01	; 1
    14a8:	2a 33       	cpi	r18, 0x3A	; 58
    14aa:	09 f0       	breq	.+2      	; 0x14ae <_Z11ReceiveWAVRv+0x1d4>
    14ac:	80 e0       	ldi	r24, 0x00	; 0
    14ae:	89 27       	eor	r24, r25
    14b0:	88 23       	and	r24, r24
    14b2:	29 f0       	breq	.+10     	; 0x14be <_Z11ReceiveWAVRv+0x1e4>
    14b4:	83 e0       	ldi	r24, 0x03	; 3
    14b6:	90 e0       	ldi	r25, 0x00	; 0
    14b8:	9e 8b       	std	Y+22, r25	; 0x16
    14ba:	8d 8b       	std	Y+21, r24	; 0x15
    14bc:	fa c1       	rjmp	.+1012   	; 0x18b2 <_Z11ReceiveWAVRv+0x5d8>
    14be:	80 e0       	ldi	r24, 0x00	; 0
    14c0:	92 e0       	ldi	r25, 0x02	; 2
    14c2:	0e 94 41 09 	call	0x1282	; 0x1282 <_Z9PrintWAVRPc>
    14c6:	84 e0       	ldi	r24, 0x04	; 4
    14c8:	90 e0       	ldi	r25, 0x00	; 0
    14ca:	9e 8b       	std	Y+22, r25	; 0x16
    14cc:	8d 8b       	std	Y+21, r24	; 0x15
    14ce:	f1 c1       	rjmp	.+994    	; 0x18b2 <_Z11ReceiveWAVRv+0x5d8>
    14d0:	1c 82       	std	Y+4, r1	; 0x04
    14d2:	1d 82       	std	Y+5, r1	; 0x05
    14d4:	1f 82       	std	Y+7, r1	; 0x07
    14d6:	1e 82       	std	Y+6, r1	; 0x06
    14d8:	18 8e       	std	Y+24, r1	; 0x18
    14da:	1f 8a       	std	Y+23, r1	; 0x17
    14dc:	1a 8e       	std	Y+26, r1	; 0x1a
    14de:	19 8e       	std	Y+25, r1	; 0x19
    14e0:	1c 8e       	std	Y+28, r1	; 0x1c
    14e2:	1b 8e       	std	Y+27, r1	; 0x1b
    14e4:	1e 8e       	std	Y+30, r1	; 0x1e
    14e6:	1d 8e       	std	Y+29, r1	; 0x1d
    14e8:	18 a2       	lds	r17, 0x98
    14ea:	1f 8e       	std	Y+31, r1	; 0x1f
    14ec:	1a a2       	lds	r17, 0x9a
    14ee:	19 a2       	lds	r17, 0x99
    14f0:	19 86       	std	Y+9, r1	; 0x09
    14f2:	18 86       	std	Y+8, r1	; 0x08
    14f4:	1b 86       	std	Y+11, r1	; 0x0b
    14f6:	1a 86       	std	Y+10, r1	; 0x0a
    14f8:	1d 86       	std	Y+13, r1	; 0x0d
    14fa:	1c 86       	std	Y+12, r1	; 0x0c
    14fc:	73 c0       	rjmp	.+230    	; 0x15e4 <_Z11ReceiveWAVRv+0x30a>
    14fe:	9e 01       	movw	r18, r28
    1500:	28 5d       	subi	r18, 0xD8	; 216
    1502:	3f 4f       	sbci	r19, 0xFF	; 255
    1504:	8e 81       	ldd	r24, Y+6	; 0x06
    1506:	9f 81       	ldd	r25, Y+7	; 0x07
    1508:	82 0f       	add	r24, r18
    150a:	93 1f       	adc	r25, r19
    150c:	fc 01       	movw	r30, r24
    150e:	80 81       	ld	r24, Z
    1510:	8a 33       	cpi	r24, 0x3A	; 58
    1512:	e9 f0       	breq	.+58     	; 0x154e <_Z11ReceiveWAVRv+0x274>
    1514:	8a 85       	ldd	r24, Y+10	; 0x0a
    1516:	9b 85       	ldd	r25, Y+11	; 0x0b
    1518:	83 30       	cpi	r24, 0x03	; 3
    151a:	91 05       	cpc	r25, r1
    151c:	c4 f4       	brge	.+48     	; 0x154e <_Z11ReceiveWAVRv+0x274>
    151e:	9e 01       	movw	r18, r28
    1520:	28 5d       	subi	r18, 0xD8	; 216
    1522:	3f 4f       	sbci	r19, 0xFF	; 255
    1524:	8e 81       	ldd	r24, Y+6	; 0x06
    1526:	9f 81       	ldd	r25, Y+7	; 0x07
    1528:	82 0f       	add	r24, r18
    152a:	93 1f       	adc	r25, r19
    152c:	fc 01       	movw	r30, r24
    152e:	40 81       	ld	r20, Z
    1530:	9e 01       	movw	r18, r28
    1532:	2d 5d       	subi	r18, 0xDD	; 221
    1534:	3f 4f       	sbci	r19, 0xFF	; 255
    1536:	8c 85       	ldd	r24, Y+12	; 0x0c
    1538:	9d 85       	ldd	r25, Y+13	; 0x0d
    153a:	82 0f       	add	r24, r18
    153c:	93 1f       	adc	r25, r19
    153e:	fc 01       	movw	r30, r24
    1540:	40 83       	st	Z, r20
    1542:	8c 85       	ldd	r24, Y+12	; 0x0c
    1544:	9d 85       	ldd	r25, Y+13	; 0x0d
    1546:	01 96       	adiw	r24, 0x01	; 1
    1548:	9d 87       	std	Y+13, r25	; 0x0d
    154a:	8c 87       	std	Y+12, r24	; 0x0c
    154c:	46 c0       	rjmp	.+140    	; 0x15da <_Z11ReceiveWAVRv+0x300>
    154e:	8a 85       	ldd	r24, Y+10	; 0x0a
    1550:	9b 85       	ldd	r25, Y+11	; 0x0b
    1552:	82 30       	cpi	r24, 0x02	; 2
    1554:	91 05       	cpc	r25, r1
    1556:	0c f0       	brlt	.+2      	; 0x155a <_Z11ReceiveWAVRv+0x280>
    1558:	40 c0       	rjmp	.+128    	; 0x15da <_Z11ReceiveWAVRv+0x300>
    155a:	9e 01       	movw	r18, r28
    155c:	28 5d       	subi	r18, 0xD8	; 216
    155e:	3f 4f       	sbci	r19, 0xFF	; 255
    1560:	8e 81       	ldd	r24, Y+6	; 0x06
    1562:	9f 81       	ldd	r25, Y+7	; 0x07
    1564:	82 0f       	add	r24, r18
    1566:	93 1f       	adc	r25, r19
    1568:	fc 01       	movw	r30, r24
    156a:	80 81       	ld	r24, Z
    156c:	8a 33       	cpi	r24, 0x3A	; 58
    156e:	a9 f5       	brne	.+106    	; 0x15da <_Z11ReceiveWAVRv+0x300>
    1570:	ce 01       	movw	r24, r28
    1572:	83 96       	adiw	r24, 0x23	; 35
    1574:	0e 94 13 14 	call	0x2826	; 0x2826 <atoi>
    1578:	9c 01       	movw	r18, r24
    157a:	8a 85       	ldd	r24, Y+10	; 0x0a
    157c:	9b 85       	ldd	r25, Y+11	; 0x0b
    157e:	88 0f       	add	r24, r24
    1580:	99 1f       	adc	r25, r25
    1582:	ae 01       	movw	r20, r28
    1584:	4f 5f       	subi	r20, 0xFF	; 255
    1586:	5f 4f       	sbci	r21, 0xFF	; 255
    1588:	84 0f       	add	r24, r20
    158a:	95 1f       	adc	r25, r21
    158c:	46 96       	adiw	r24, 0x16	; 22
    158e:	fc 01       	movw	r30, r24
    1590:	31 83       	std	Z+1, r19	; 0x01
    1592:	20 83       	st	Z, r18
    1594:	8a 85       	ldd	r24, Y+10	; 0x0a
    1596:	9b 85       	ldd	r25, Y+11	; 0x0b
    1598:	01 96       	adiw	r24, 0x01	; 1
    159a:	9b 87       	std	Y+11, r25	; 0x0b
    159c:	8a 87       	std	Y+10, r24	; 0x0a
    159e:	1f 86       	std	Y+15, r1	; 0x0f
    15a0:	1e 86       	std	Y+14, r1	; 0x0e
    15a2:	0e c0       	rjmp	.+28     	; 0x15c0 <_Z11ReceiveWAVRv+0x2e6>
    15a4:	9e 01       	movw	r18, r28
    15a6:	2d 5d       	subi	r18, 0xDD	; 221
    15a8:	3f 4f       	sbci	r19, 0xFF	; 255
    15aa:	8e 85       	ldd	r24, Y+14	; 0x0e
    15ac:	9f 85       	ldd	r25, Y+15	; 0x0f
    15ae:	82 0f       	add	r24, r18
    15b0:	93 1f       	adc	r25, r19
    15b2:	fc 01       	movw	r30, r24
    15b4:	10 82       	st	Z, r1
    15b6:	8e 85       	ldd	r24, Y+14	; 0x0e
    15b8:	9f 85       	ldd	r25, Y+15	; 0x0f
    15ba:	01 96       	adiw	r24, 0x01	; 1
    15bc:	9f 87       	std	Y+15, r25	; 0x0f
    15be:	8e 87       	std	Y+14, r24	; 0x0e
    15c0:	41 e0       	ldi	r20, 0x01	; 1
    15c2:	2e 85       	ldd	r18, Y+14	; 0x0e
    15c4:	3f 85       	ldd	r19, Y+15	; 0x0f
    15c6:	8c 85       	ldd	r24, Y+12	; 0x0c
    15c8:	9d 85       	ldd	r25, Y+13	; 0x0d
    15ca:	82 17       	cp	r24, r18
    15cc:	93 07       	cpc	r25, r19
    15ce:	0c f4       	brge	.+2      	; 0x15d2 <_Z11ReceiveWAVRv+0x2f8>
    15d0:	40 e0       	ldi	r20, 0x00	; 0
    15d2:	44 23       	and	r20, r20
    15d4:	39 f7       	brne	.-50     	; 0x15a4 <_Z11ReceiveWAVRv+0x2ca>
    15d6:	1d 86       	std	Y+13, r1	; 0x0d
    15d8:	1c 86       	std	Y+12, r1	; 0x0c
    15da:	8e 81       	ldd	r24, Y+6	; 0x06
    15dc:	9f 81       	ldd	r25, Y+7	; 0x07
    15de:	01 96       	adiw	r24, 0x01	; 1
    15e0:	9f 83       	std	Y+7, r25	; 0x07
    15e2:	8e 83       	std	Y+6, r24	; 0x06
    15e4:	9e 01       	movw	r18, r28
    15e6:	28 5d       	subi	r18, 0xD8	; 216
    15e8:	3f 4f       	sbci	r19, 0xFF	; 255
    15ea:	8e 81       	ldd	r24, Y+6	; 0x06
    15ec:	9f 81       	ldd	r25, Y+7	; 0x07
    15ee:	82 0f       	add	r24, r18
    15f0:	93 1f       	adc	r25, r19
    15f2:	fc 01       	movw	r30, r24
    15f4:	80 81       	ld	r24, Z
    15f6:	8f 32       	cpi	r24, 0x2F	; 47
    15f8:	69 f0       	breq	.+26     	; 0x1614 <_Z11ReceiveWAVRv+0x33a>
    15fa:	9e 01       	movw	r18, r28
    15fc:	28 5d       	subi	r18, 0xD8	; 216
    15fe:	3f 4f       	sbci	r19, 0xFF	; 255
    1600:	8e 81       	ldd	r24, Y+6	; 0x06
    1602:	9f 81       	ldd	r25, Y+7	; 0x07
    1604:	82 0f       	add	r24, r18
    1606:	93 1f       	adc	r25, r19
    1608:	fc 01       	movw	r30, r24
    160a:	80 81       	ld	r24, Z
    160c:	88 23       	and	r24, r24
    160e:	11 f0       	breq	.+4      	; 0x1614 <_Z11ReceiveWAVRv+0x33a>
    1610:	81 e0       	ldi	r24, 0x01	; 1
    1612:	01 c0       	rjmp	.+2      	; 0x1616 <_Z11ReceiveWAVRv+0x33c>
    1614:	80 e0       	ldi	r24, 0x00	; 0
    1616:	88 23       	and	r24, r24
    1618:	09 f0       	breq	.+2      	; 0x161c <_Z11ReceiveWAVRv+0x342>
    161a:	71 cf       	rjmp	.-286    	; 0x14fe <_Z11ReceiveWAVRv+0x224>
    161c:	9e 01       	movw	r18, r28
    161e:	28 5d       	subi	r18, 0xD8	; 216
    1620:	3f 4f       	sbci	r19, 0xFF	; 255
    1622:	8e 81       	ldd	r24, Y+6	; 0x06
    1624:	9f 81       	ldd	r25, Y+7	; 0x07
    1626:	82 0f       	add	r24, r18
    1628:	93 1f       	adc	r25, r19
    162a:	fc 01       	movw	r30, r24
    162c:	80 81       	ld	r24, Z
    162e:	8f 32       	cpi	r24, 0x2F	; 47
    1630:	a9 f4       	brne	.+42     	; 0x165c <_Z11ReceiveWAVRv+0x382>
    1632:	ce 01       	movw	r24, r28
    1634:	83 96       	adiw	r24, 0x23	; 35
    1636:	0e 94 13 14 	call	0x2826	; 0x2826 <atoi>
    163a:	9c 01       	movw	r18, r24
    163c:	8a 85       	ldd	r24, Y+10	; 0x0a
    163e:	9b 85       	ldd	r25, Y+11	; 0x0b
    1640:	88 0f       	add	r24, r24
    1642:	99 1f       	adc	r25, r25
    1644:	ae 01       	movw	r20, r28
    1646:	4f 5f       	subi	r20, 0xFF	; 255
    1648:	5f 4f       	sbci	r21, 0xFF	; 255
    164a:	84 0f       	add	r24, r20
    164c:	95 1f       	adc	r25, r21
    164e:	46 96       	adiw	r24, 0x16	; 22
    1650:	fc 01       	movw	r30, r24
    1652:	31 83       	std	Z+1, r19	; 0x01
    1654:	20 83       	st	Z, r18
    1656:	81 e0       	ldi	r24, 0x01	; 1
    1658:	8c 83       	std	Y+4, r24	; 0x04
    165a:	04 c0       	rjmp	.+8      	; 0x1664 <_Z11ReceiveWAVRv+0x38a>
    165c:	85 e0       	ldi	r24, 0x05	; 5
    165e:	90 e0       	ldi	r25, 0x00	; 0
    1660:	9e 8b       	std	Y+22, r25	; 0x16
    1662:	8d 8b       	std	Y+21, r24	; 0x15
    1664:	19 8a       	std	Y+17, r1	; 0x11
    1666:	18 8a       	std	Y+16, r1	; 0x10
    1668:	0e c0       	rjmp	.+28     	; 0x1686 <_Z11ReceiveWAVRv+0x3ac>
    166a:	9e 01       	movw	r18, r28
    166c:	2d 5d       	subi	r18, 0xDD	; 221
    166e:	3f 4f       	sbci	r19, 0xFF	; 255
    1670:	88 89       	ldd	r24, Y+16	; 0x10
    1672:	99 89       	ldd	r25, Y+17	; 0x11
    1674:	82 0f       	add	r24, r18
    1676:	93 1f       	adc	r25, r19
    1678:	fc 01       	movw	r30, r24
    167a:	10 82       	st	Z, r1
    167c:	88 89       	ldd	r24, Y+16	; 0x10
    167e:	99 89       	ldd	r25, Y+17	; 0x11
    1680:	01 96       	adiw	r24, 0x01	; 1
    1682:	99 8b       	std	Y+17, r25	; 0x11
    1684:	88 8b       	std	Y+16, r24	; 0x10
    1686:	41 e0       	ldi	r20, 0x01	; 1
    1688:	28 89       	ldd	r18, Y+16	; 0x10
    168a:	39 89       	ldd	r19, Y+17	; 0x11
    168c:	8c 85       	ldd	r24, Y+12	; 0x0c
    168e:	9d 85       	ldd	r25, Y+13	; 0x0d
    1690:	82 17       	cp	r24, r18
    1692:	93 07       	cpc	r25, r19
    1694:	0c f4       	brge	.+2      	; 0x1698 <_Z11ReceiveWAVRv+0x3be>
    1696:	40 e0       	ldi	r20, 0x00	; 0
    1698:	44 23       	and	r20, r20
    169a:	39 f7       	brne	.-50     	; 0x166a <_Z11ReceiveWAVRv+0x390>
    169c:	1d 86       	std	Y+13, r1	; 0x0d
    169e:	1c 86       	std	Y+12, r1	; 0x0c
    16a0:	8e 81       	ldd	r24, Y+6	; 0x06
    16a2:	9f 81       	ldd	r25, Y+7	; 0x07
    16a4:	01 96       	adiw	r24, 0x01	; 1
    16a6:	9f 83       	std	Y+7, r25	; 0x07
    16a8:	8e 83       	std	Y+6, r24	; 0x06
    16aa:	73 c0       	rjmp	.+230    	; 0x1792 <_Z11ReceiveWAVRv+0x4b8>
    16ac:	9e 01       	movw	r18, r28
    16ae:	28 5d       	subi	r18, 0xD8	; 216
    16b0:	3f 4f       	sbci	r19, 0xFF	; 255
    16b2:	8e 81       	ldd	r24, Y+6	; 0x06
    16b4:	9f 81       	ldd	r25, Y+7	; 0x07
    16b6:	82 0f       	add	r24, r18
    16b8:	93 1f       	adc	r25, r19
    16ba:	fc 01       	movw	r30, r24
    16bc:	80 81       	ld	r24, Z
    16be:	8c 32       	cpi	r24, 0x2C	; 44
    16c0:	e9 f0       	breq	.+58     	; 0x16fc <_Z11ReceiveWAVRv+0x422>
    16c2:	88 85       	ldd	r24, Y+8	; 0x08
    16c4:	99 85       	ldd	r25, Y+9	; 0x09
    16c6:	83 30       	cpi	r24, 0x03	; 3
    16c8:	91 05       	cpc	r25, r1
    16ca:	c4 f4       	brge	.+48     	; 0x16fc <_Z11ReceiveWAVRv+0x422>
    16cc:	9e 01       	movw	r18, r28
    16ce:	28 5d       	subi	r18, 0xD8	; 216
    16d0:	3f 4f       	sbci	r19, 0xFF	; 255
    16d2:	8e 81       	ldd	r24, Y+6	; 0x06
    16d4:	9f 81       	ldd	r25, Y+7	; 0x07
    16d6:	82 0f       	add	r24, r18
    16d8:	93 1f       	adc	r25, r19
    16da:	fc 01       	movw	r30, r24
    16dc:	40 81       	ld	r20, Z
    16de:	9e 01       	movw	r18, r28
    16e0:	2d 5d       	subi	r18, 0xDD	; 221
    16e2:	3f 4f       	sbci	r19, 0xFF	; 255
    16e4:	8c 85       	ldd	r24, Y+12	; 0x0c
    16e6:	9d 85       	ldd	r25, Y+13	; 0x0d
    16e8:	82 0f       	add	r24, r18
    16ea:	93 1f       	adc	r25, r19
    16ec:	fc 01       	movw	r30, r24
    16ee:	40 83       	st	Z, r20
    16f0:	8c 85       	ldd	r24, Y+12	; 0x0c
    16f2:	9d 85       	ldd	r25, Y+13	; 0x0d
    16f4:	01 96       	adiw	r24, 0x01	; 1
    16f6:	9d 87       	std	Y+13, r25	; 0x0d
    16f8:	8c 87       	std	Y+12, r24	; 0x0c
    16fa:	46 c0       	rjmp	.+140    	; 0x1788 <_Z11ReceiveWAVRv+0x4ae>
    16fc:	88 85       	ldd	r24, Y+8	; 0x08
    16fe:	99 85       	ldd	r25, Y+9	; 0x09
    1700:	82 30       	cpi	r24, 0x02	; 2
    1702:	91 05       	cpc	r25, r1
    1704:	0c f0       	brlt	.+2      	; 0x1708 <_Z11ReceiveWAVRv+0x42e>
    1706:	40 c0       	rjmp	.+128    	; 0x1788 <_Z11ReceiveWAVRv+0x4ae>
    1708:	9e 01       	movw	r18, r28
    170a:	28 5d       	subi	r18, 0xD8	; 216
    170c:	3f 4f       	sbci	r19, 0xFF	; 255
    170e:	8e 81       	ldd	r24, Y+6	; 0x06
    1710:	9f 81       	ldd	r25, Y+7	; 0x07
    1712:	82 0f       	add	r24, r18
    1714:	93 1f       	adc	r25, r19
    1716:	fc 01       	movw	r30, r24
    1718:	80 81       	ld	r24, Z
    171a:	8c 32       	cpi	r24, 0x2C	; 44
    171c:	a9 f5       	brne	.+106    	; 0x1788 <_Z11ReceiveWAVRv+0x4ae>
    171e:	ce 01       	movw	r24, r28
    1720:	83 96       	adiw	r24, 0x23	; 35
    1722:	0e 94 13 14 	call	0x2826	; 0x2826 <atoi>
    1726:	9c 01       	movw	r18, r24
    1728:	88 85       	ldd	r24, Y+8	; 0x08
    172a:	99 85       	ldd	r25, Y+9	; 0x09
    172c:	88 0f       	add	r24, r24
    172e:	99 1f       	adc	r25, r25
    1730:	ae 01       	movw	r20, r28
    1732:	4f 5f       	subi	r20, 0xFF	; 255
    1734:	5f 4f       	sbci	r21, 0xFF	; 255
    1736:	84 0f       	add	r24, r20
    1738:	95 1f       	adc	r25, r21
    173a:	4c 96       	adiw	r24, 0x1c	; 28
    173c:	fc 01       	movw	r30, r24
    173e:	31 83       	std	Z+1, r19	; 0x01
    1740:	20 83       	st	Z, r18
    1742:	88 85       	ldd	r24, Y+8	; 0x08
    1744:	99 85       	ldd	r25, Y+9	; 0x09
    1746:	01 96       	adiw	r24, 0x01	; 1
    1748:	99 87       	std	Y+9, r25	; 0x09
    174a:	88 87       	std	Y+8, r24	; 0x08
    174c:	1b 8a       	std	Y+19, r1	; 0x13
    174e:	1a 8a       	std	Y+18, r1	; 0x12
    1750:	0e c0       	rjmp	.+28     	; 0x176e <_Z11ReceiveWAVRv+0x494>
    1752:	9e 01       	movw	r18, r28
    1754:	2d 5d       	subi	r18, 0xDD	; 221
    1756:	3f 4f       	sbci	r19, 0xFF	; 255
    1758:	8a 89       	ldd	r24, Y+18	; 0x12
    175a:	9b 89       	ldd	r25, Y+19	; 0x13
    175c:	82 0f       	add	r24, r18
    175e:	93 1f       	adc	r25, r19
    1760:	fc 01       	movw	r30, r24
    1762:	10 82       	st	Z, r1
    1764:	8a 89       	ldd	r24, Y+18	; 0x12
    1766:	9b 89       	ldd	r25, Y+19	; 0x13
    1768:	01 96       	adiw	r24, 0x01	; 1
    176a:	9b 8b       	std	Y+19, r25	; 0x13
    176c:	8a 8b       	std	Y+18, r24	; 0x12
    176e:	41 e0       	ldi	r20, 0x01	; 1
    1770:	2a 89       	ldd	r18, Y+18	; 0x12
    1772:	3b 89       	ldd	r19, Y+19	; 0x13
    1774:	8c 85       	ldd	r24, Y+12	; 0x0c
    1776:	9d 85       	ldd	r25, Y+13	; 0x0d
    1778:	82 17       	cp	r24, r18
    177a:	93 07       	cpc	r25, r19
    177c:	0c f4       	brge	.+2      	; 0x1780 <_Z11ReceiveWAVRv+0x4a6>
    177e:	40 e0       	ldi	r20, 0x00	; 0
    1780:	44 23       	and	r20, r20
    1782:	39 f7       	brne	.-50     	; 0x1752 <_Z11ReceiveWAVRv+0x478>
    1784:	1d 86       	std	Y+13, r1	; 0x0d
    1786:	1c 86       	std	Y+12, r1	; 0x0c
    1788:	8e 81       	ldd	r24, Y+6	; 0x06
    178a:	9f 81       	ldd	r25, Y+7	; 0x07
    178c:	01 96       	adiw	r24, 0x01	; 1
    178e:	9f 83       	std	Y+7, r25	; 0x07
    1790:	8e 83       	std	Y+6, r24	; 0x06
    1792:	9e 01       	movw	r18, r28
    1794:	28 5d       	subi	r18, 0xD8	; 216
    1796:	3f 4f       	sbci	r19, 0xFF	; 255
    1798:	8e 81       	ldd	r24, Y+6	; 0x06
    179a:	9f 81       	ldd	r25, Y+7	; 0x07
    179c:	82 0f       	add	r24, r18
    179e:	93 1f       	adc	r25, r19
    17a0:	fc 01       	movw	r30, r24
    17a2:	80 81       	ld	r24, Z
    17a4:	8e 32       	cpi	r24, 0x2E	; 46
    17a6:	a1 f0       	breq	.+40     	; 0x17d0 <_Z11ReceiveWAVRv+0x4f6>
    17a8:	9e 01       	movw	r18, r28
    17aa:	28 5d       	subi	r18, 0xD8	; 216
    17ac:	3f 4f       	sbci	r19, 0xFF	; 255
    17ae:	8e 81       	ldd	r24, Y+6	; 0x06
    17b0:	9f 81       	ldd	r25, Y+7	; 0x07
    17b2:	82 0f       	add	r24, r18
    17b4:	93 1f       	adc	r25, r19
    17b6:	fc 01       	movw	r30, r24
    17b8:	80 81       	ld	r24, Z
    17ba:	88 23       	and	r24, r24
    17bc:	49 f0       	breq	.+18     	; 0x17d0 <_Z11ReceiveWAVRv+0x4f6>
    17be:	2e 81       	ldd	r18, Y+6	; 0x06
    17c0:	3f 81       	ldd	r19, Y+7	; 0x07
    17c2:	89 81       	ldd	r24, Y+1	; 0x01
    17c4:	9a 81       	ldd	r25, Y+2	; 0x02
    17c6:	28 17       	cp	r18, r24
    17c8:	39 07       	cpc	r19, r25
    17ca:	11 f0       	breq	.+4      	; 0x17d0 <_Z11ReceiveWAVRv+0x4f6>
    17cc:	81 e0       	ldi	r24, 0x01	; 1
    17ce:	01 c0       	rjmp	.+2      	; 0x17d2 <_Z11ReceiveWAVRv+0x4f8>
    17d0:	80 e0       	ldi	r24, 0x00	; 0
    17d2:	88 23       	and	r24, r24
    17d4:	09 f0       	breq	.+2      	; 0x17d8 <_Z11ReceiveWAVRv+0x4fe>
    17d6:	6a cf       	rjmp	.-300    	; 0x16ac <_Z11ReceiveWAVRv+0x3d2>
    17d8:	9e 01       	movw	r18, r28
    17da:	28 5d       	subi	r18, 0xD8	; 216
    17dc:	3f 4f       	sbci	r19, 0xFF	; 255
    17de:	8e 81       	ldd	r24, Y+6	; 0x06
    17e0:	9f 81       	ldd	r25, Y+7	; 0x07
    17e2:	82 0f       	add	r24, r18
    17e4:	93 1f       	adc	r25, r19
    17e6:	fc 01       	movw	r30, r24
    17e8:	80 81       	ld	r24, Z
    17ea:	8e 32       	cpi	r24, 0x2E	; 46
    17ec:	a9 f4       	brne	.+42     	; 0x1818 <_Z11ReceiveWAVRv+0x53e>
    17ee:	ce 01       	movw	r24, r28
    17f0:	83 96       	adiw	r24, 0x23	; 35
    17f2:	0e 94 13 14 	call	0x2826	; 0x2826 <atoi>
    17f6:	9c 01       	movw	r18, r24
    17f8:	88 85       	ldd	r24, Y+8	; 0x08
    17fa:	99 85       	ldd	r25, Y+9	; 0x09
    17fc:	88 0f       	add	r24, r24
    17fe:	99 1f       	adc	r25, r25
    1800:	ae 01       	movw	r20, r28
    1802:	4f 5f       	subi	r20, 0xFF	; 255
    1804:	5f 4f       	sbci	r21, 0xFF	; 255
    1806:	84 0f       	add	r24, r20
    1808:	95 1f       	adc	r25, r21
    180a:	4c 96       	adiw	r24, 0x1c	; 28
    180c:	fc 01       	movw	r30, r24
    180e:	31 83       	std	Z+1, r19	; 0x01
    1810:	20 83       	st	Z, r18
    1812:	81 e0       	ldi	r24, 0x01	; 1
    1814:	8d 83       	std	Y+5, r24	; 0x05
    1816:	04 c0       	rjmp	.+8      	; 0x1820 <_Z11ReceiveWAVRv+0x546>
    1818:	85 e0       	ldi	r24, 0x05	; 5
    181a:	90 e0       	ldi	r25, 0x00	; 0
    181c:	9e 8b       	std	Y+22, r25	; 0x16
    181e:	8d 8b       	std	Y+21, r24	; 0x15
    1820:	8d 81       	ldd	r24, Y+5	; 0x05
    1822:	88 23       	and	r24, r24
    1824:	79 f1       	breq	.+94     	; 0x1884 <_Z11ReceiveWAVRv+0x5aa>
    1826:	8c 81       	ldd	r24, Y+4	; 0x04
    1828:	88 23       	and	r24, r24
    182a:	61 f1       	breq	.+88     	; 0x1884 <_Z11ReceiveWAVRv+0x5aa>
    182c:	6f 89       	ldd	r22, Y+23	; 0x17
    182e:	78 8d       	ldd	r23, Y+24	; 0x18
    1830:	49 8d       	ldd	r20, Y+25	; 0x19
    1832:	5a 8d       	ldd	r21, Y+26	; 0x1a
    1834:	2b 8d       	ldd	r18, Y+27	; 0x1b
    1836:	3c 8d       	ldd	r19, Y+28	; 0x1c
    1838:	86 e6       	ldi	r24, 0x66	; 102
    183a:	92 e0       	ldi	r25, 0x02	; 2
    183c:	0e 94 96 05 	call	0xb2c	; 0xb2c <_ZN6myTime7setTimeEiii>
    1840:	6d 8d       	ldd	r22, Y+29	; 0x1d
    1842:	7e 8d       	ldd	r23, Y+30	; 0x1e
    1844:	4f 8d       	ldd	r20, Y+31	; 0x1f
    1846:	58 a1       	lds	r21, 0x48
    1848:	29 a1       	lds	r18, 0x49
    184a:	3a a1       	lds	r19, 0x4a
    184c:	86 e6       	ldi	r24, 0x66	; 102
    184e:	92 e0       	ldi	r25, 0x02	; 2
    1850:	0e 94 c5 01 	call	0x38a	; 0x38a <_ZN6myDate7setDateEiii>
    1854:	81 e0       	ldi	r24, 0x01	; 1
    1856:	61 e0       	ldi	r22, 0x01	; 1
    1858:	0e 94 7d 08 	call	0x10fa	; 0x10fa <_Z19saveDateTime_eepromhh>
    185c:	10 92 5c 02 	sts	0x025C, r1
    1860:	81 e0       	ldi	r24, 0x01	; 1
    1862:	80 93 5d 02 	sts	0x025D, r24
    1866:	81 e4       	ldi	r24, 0x41	; 65
    1868:	88 a7       	lds	r24, 0x78
    186a:	83 e4       	ldi	r24, 0x43	; 67
    186c:	89 a7       	lds	r24, 0x79
    186e:	8b e4       	ldi	r24, 0x4B	; 75
    1870:	8a a7       	lds	r24, 0x7a
    1872:	ce 01       	movw	r24, r28
    1874:	88 96       	adiw	r24, 0x28	; 40
    1876:	0e 94 41 09 	call	0x1282	; 0x1282 <_Z9PrintWAVRPc>
    187a:	84 e0       	ldi	r24, 0x04	; 4
    187c:	90 e0       	ldi	r25, 0x00	; 0
    187e:	9e 8b       	std	Y+22, r25	; 0x16
    1880:	8d 8b       	std	Y+21, r24	; 0x15
    1882:	18 c0       	rjmp	.+48     	; 0x18b4 <_Z11ReceiveWAVRv+0x5da>
    1884:	81 e0       	ldi	r24, 0x01	; 1
    1886:	80 93 5c 02 	sts	0x025C, r24
    188a:	10 92 5d 02 	sts	0x025D, r1
    188e:	12 c0       	rjmp	.+36     	; 0x18b4 <_Z11ReceiveWAVRv+0x5da>
    1890:	1e 8a       	std	Y+22, r1	; 0x16
    1892:	1d 8a       	std	Y+21, r1	; 0x15
    1894:	10 92 60 02 	sts	0x0260, r1
    1898:	81 e2       	ldi	r24, 0x21	; 33
    189a:	92 e0       	ldi	r25, 0x02	; 2
    189c:	0e 94 41 09 	call	0x1282	; 0x1282 <_Z9PrintWAVRPc>
    18a0:	10 92 60 02 	sts	0x0260, r1
    18a4:	1e 8a       	std	Y+22, r1	; 0x16
    18a6:	1d 8a       	std	Y+21, r1	; 0x15
    18a8:	1e 8a       	std	Y+22, r1	; 0x16
    18aa:	1d 8a       	std	Y+21, r1	; 0x15
    18ac:	10 92 60 02 	sts	0x0260, r1
    18b0:	01 c0       	rjmp	.+2      	; 0x18b4 <_Z11ReceiveWAVRv+0x5da>
    18b2:	00 00       	nop
    18b4:	90 91 60 02 	lds	r25, 0x0260
    18b8:	81 e0       	ldi	r24, 0x01	; 1
    18ba:	99 23       	and	r25, r25
    18bc:	09 f4       	brne	.+2      	; 0x18c0 <_Z11ReceiveWAVRv+0x5e6>
    18be:	80 e0       	ldi	r24, 0x00	; 0
    18c0:	88 23       	and	r24, r24
    18c2:	09 f0       	breq	.+2      	; 0x18c6 <_Z11ReceiveWAVRv+0x5ec>
    18c4:	1c cd       	rjmp	.-1480   	; 0x12fe <_Z11ReceiveWAVRv+0x24>
    18c6:	c1 5b       	subi	r28, 0xB1	; 177
    18c8:	df 4f       	sbci	r29, 0xFF	; 255
    18ca:	0f b6       	in	r0, 0x3f	; 63
    18cc:	f8 94       	cli
    18ce:	de bf       	out	0x3e, r29	; 62
    18d0:	0f be       	out	0x3f, r0	; 63
    18d2:	cd bf       	out	0x3d, r28	; 61
    18d4:	df 91       	pop	r29
    18d6:	cf 91       	pop	r28
    18d8:	08 95       	ret

000018da <_Z11ReceiveBonev>:
    18da:	cf 93       	push	r28
    18dc:	df 93       	push	r29
    18de:	cd b7       	in	r28, 0x3d	; 61
    18e0:	de b7       	in	r29, 0x3e	; 62
    18e2:	df 91       	pop	r29
    18e4:	cf 91       	pop	r28
    18e6:	08 95       	ret

000018e8 <_Z8SendWAVRh>:
    18e8:	cf 93       	push	r28
    18ea:	df 93       	push	r29
    18ec:	cd b7       	in	r28, 0x3d	; 61
    18ee:	de b7       	in	r29, 0x3e	; 62
    18f0:	cb 55       	subi	r28, 0x5B	; 91
    18f2:	d0 40       	sbci	r29, 0x00	; 0
    18f4:	0f b6       	in	r0, 0x3f	; 63
    18f6:	f8 94       	cli
    18f8:	de bf       	out	0x3e, r29	; 62
    18fa:	0f be       	out	0x3f, r0	; 63
    18fc:	cd bf       	out	0x3d, r28	; 61
    18fe:	9e 01       	movw	r18, r28
    1900:	25 5a       	subi	r18, 0xA5	; 165
    1902:	3f 4f       	sbci	r19, 0xFF	; 255
    1904:	f9 01       	movw	r30, r18
    1906:	80 83       	st	Z, r24
    1908:	81 e0       	ldi	r24, 0x01	; 1
    190a:	89 87       	std	Y+9, r24	; 0x09
    190c:	1a 86       	std	Y+10, r1	; 0x0a
    190e:	1a 82       	std	Y+2, r1	; 0x02
    1910:	19 82       	std	Y+1, r1	; 0x01
    1912:	80 91 98 02 	lds	r24, 0x0298
    1916:	90 91 99 02 	lds	r25, 0x0299
    191a:	83 30       	cpi	r24, 0x03	; 3
    191c:	91 05       	cpc	r25, r1
    191e:	09 f4       	brne	.+2      	; 0x1922 <_Z8SendWAVRh+0x3a>
    1920:	06 c1       	rjmp	.+524    	; 0x1b2e <_Z8SendWAVRh+0x246>
    1922:	84 30       	cpi	r24, 0x04	; 4
    1924:	91 05       	cpc	r25, r1
    1926:	48 f4       	brcc	.+18     	; 0x193a <_Z8SendWAVRh+0x52>
    1928:	81 30       	cpi	r24, 0x01	; 1
    192a:	91 05       	cpc	r25, r1
    192c:	09 f4       	brne	.+2      	; 0x1930 <_Z8SendWAVRh+0x48>
    192e:	8e c0       	rjmp	.+284    	; 0x1a4c <_Z8SendWAVRh+0x164>
    1930:	82 30       	cpi	r24, 0x02	; 2
    1932:	91 05       	cpc	r25, r1
    1934:	08 f0       	brcs	.+2      	; 0x1938 <_Z8SendWAVRh+0x50>
    1936:	98 c0       	rjmp	.+304    	; 0x1a68 <_Z8SendWAVRh+0x180>
    1938:	0d c0       	rjmp	.+26     	; 0x1954 <_Z8SendWAVRh+0x6c>
    193a:	85 30       	cpi	r24, 0x05	; 5
    193c:	91 05       	cpc	r25, r1
    193e:	09 f4       	brne	.+2      	; 0x1942 <_Z8SendWAVRh+0x5a>
    1940:	9a c1       	rjmp	.+820    	; 0x1c76 <_Z8SendWAVRh+0x38e>
    1942:	85 30       	cpi	r24, 0x05	; 5
    1944:	91 05       	cpc	r25, r1
    1946:	08 f4       	brcc	.+2      	; 0x194a <_Z8SendWAVRh+0x62>
    1948:	7d c1       	rjmp	.+762    	; 0x1c44 <_Z8SendWAVRh+0x35c>
    194a:	86 30       	cpi	r24, 0x06	; 6
    194c:	91 05       	cpc	r25, r1
    194e:	09 f4       	brne	.+2      	; 0x1952 <_Z8SendWAVRh+0x6a>
    1950:	9b c1       	rjmp	.+822    	; 0x1c88 <_Z8SendWAVRh+0x3a0>
    1952:	a1 c1       	rjmp	.+834    	; 0x1c96 <_Z8SendWAVRh+0x3ae>
    1954:	88 e0       	ldi	r24, 0x08	; 8
    1956:	91 e0       	ldi	r25, 0x01	; 1
    1958:	28 e0       	ldi	r18, 0x08	; 8
    195a:	31 e0       	ldi	r19, 0x01	; 1
    195c:	f9 01       	movw	r30, r18
    195e:	20 81       	ld	r18, Z
    1960:	20 68       	ori	r18, 0x80	; 128
    1962:	fc 01       	movw	r30, r24
    1964:	20 83       	st	Z, r18
    1966:	1c 82       	std	Y+4, r1	; 0x04
    1968:	1b 82       	std	Y+3, r1	; 0x03
    196a:	06 c0       	rjmp	.+12     	; 0x1978 <_Z8SendWAVRh+0x90>
    196c:	00 00       	nop
    196e:	8b 81       	ldd	r24, Y+3	; 0x03
    1970:	9c 81       	ldd	r25, Y+4	; 0x04
    1972:	01 96       	adiw	r24, 0x01	; 1
    1974:	9c 83       	std	Y+4, r25	; 0x04
    1976:	8b 83       	std	Y+3, r24	; 0x03
    1978:	21 e0       	ldi	r18, 0x01	; 1
    197a:	8b 81       	ldd	r24, Y+3	; 0x03
    197c:	9c 81       	ldd	r25, Y+4	; 0x04
    197e:	82 30       	cpi	r24, 0x02	; 2
    1980:	91 05       	cpc	r25, r1
    1982:	0c f0       	brlt	.+2      	; 0x1986 <_Z8SendWAVRh+0x9e>
    1984:	20 e0       	ldi	r18, 0x00	; 0
    1986:	22 23       	and	r18, r18
    1988:	89 f7       	brne	.-30     	; 0x196c <_Z8SendWAVRh+0x84>
    198a:	88 e0       	ldi	r24, 0x08	; 8
    198c:	91 e0       	ldi	r25, 0x01	; 1
    198e:	28 e0       	ldi	r18, 0x08	; 8
    1990:	31 e0       	ldi	r19, 0x01	; 1
    1992:	f9 01       	movw	r30, r18
    1994:	20 81       	ld	r18, Z
    1996:	2f 77       	andi	r18, 0x7F	; 127
    1998:	fc 01       	movw	r30, r24
    199a:	20 83       	st	Z, r18
    199c:	81 e0       	ldi	r24, 0x01	; 1
    199e:	90 e0       	ldi	r25, 0x00	; 0
    19a0:	90 93 99 02 	sts	0x0299, r25
    19a4:	80 93 98 02 	sts	0x0298, r24
    19a8:	7d c1       	rjmp	.+762    	; 0x1ca4 <_Z8SendWAVRh+0x3bc>
    19aa:	00 00       	nop
    19ac:	88 ec       	ldi	r24, 0xC8	; 200
    19ae:	90 e0       	ldi	r25, 0x00	; 0
    19b0:	fc 01       	movw	r30, r24
    19b2:	80 81       	ld	r24, Z
    19b4:	88 23       	and	r24, r24
    19b6:	34 f0       	brlt	.+12     	; 0x19c4 <_Z8SendWAVRh+0xdc>
    19b8:	80 91 61 02 	lds	r24, 0x0261
    19bc:	88 23       	and	r24, r24
    19be:	11 f0       	breq	.+4      	; 0x19c4 <_Z8SendWAVRh+0xdc>
    19c0:	81 e0       	ldi	r24, 0x01	; 1
    19c2:	01 c0       	rjmp	.+2      	; 0x19c6 <_Z8SendWAVRh+0xde>
    19c4:	80 e0       	ldi	r24, 0x00	; 0
    19c6:	88 23       	and	r24, r24
    19c8:	89 f7       	brne	.-30     	; 0x19ac <_Z8SendWAVRh+0xc4>
    19ca:	80 91 61 02 	lds	r24, 0x0261
    19ce:	88 23       	and	r24, r24
    19d0:	41 f4       	brne	.+16     	; 0x19e2 <_Z8SendWAVRh+0xfa>
    19d2:	85 e0       	ldi	r24, 0x05	; 5
    19d4:	90 e0       	ldi	r25, 0x00	; 0
    19d6:	90 93 99 02 	sts	0x0299, r25
    19da:	80 93 98 02 	sts	0x0298, r24
    19de:	00 00       	nop
    19e0:	61 c1       	rjmp	.+706    	; 0x1ca4 <_Z8SendWAVRh+0x3bc>
    19e2:	8e ec       	ldi	r24, 0xCE	; 206
    19e4:	90 e0       	ldi	r25, 0x00	; 0
    19e6:	fc 01       	movw	r30, r24
    19e8:	80 81       	ld	r24, Z
    19ea:	8f 83       	std	Y+7, r24	; 0x07
    19ec:	9e 01       	movw	r18, r28
    19ee:	2d 5c       	subi	r18, 0xCD	; 205
    19f0:	3f 4f       	sbci	r19, 0xFF	; 255
    19f2:	89 81       	ldd	r24, Y+1	; 0x01
    19f4:	9a 81       	ldd	r25, Y+2	; 0x02
    19f6:	82 0f       	add	r24, r18
    19f8:	93 1f       	adc	r25, r19
    19fa:	2f 81       	ldd	r18, Y+7	; 0x07
    19fc:	fc 01       	movw	r30, r24
    19fe:	20 83       	st	Z, r18
    1a00:	89 81       	ldd	r24, Y+1	; 0x01
    1a02:	9a 81       	ldd	r25, Y+2	; 0x02
    1a04:	01 96       	adiw	r24, 0x01	; 1
    1a06:	9a 83       	std	Y+2, r25	; 0x02
    1a08:	89 83       	std	Y+1, r24	; 0x01
    1a0a:	8f 81       	ldd	r24, Y+7	; 0x07
    1a0c:	8e 32       	cpi	r24, 0x2E	; 46
    1a0e:	81 f4       	brne	.+32     	; 0x1a30 <_Z8SendWAVRh+0x148>
    1a10:	9e 01       	movw	r18, r28
    1a12:	2d 5c       	subi	r18, 0xCD	; 205
    1a14:	3f 4f       	sbci	r19, 0xFF	; 255
    1a16:	89 81       	ldd	r24, Y+1	; 0x01
    1a18:	9a 81       	ldd	r25, Y+2	; 0x02
    1a1a:	82 0f       	add	r24, r18
    1a1c:	93 1f       	adc	r25, r19
    1a1e:	fc 01       	movw	r30, r24
    1a20:	10 82       	st	Z, r1
    1a22:	82 e0       	ldi	r24, 0x02	; 2
    1a24:	90 e0       	ldi	r25, 0x00	; 0
    1a26:	90 93 99 02 	sts	0x0299, r25
    1a2a:	80 93 98 02 	sts	0x0298, r24
    1a2e:	0e c0       	rjmp	.+28     	; 0x1a4c <_Z8SendWAVRh+0x164>
    1a30:	89 81       	ldd	r24, Y+1	; 0x01
    1a32:	9a 81       	ldd	r25, Y+2	; 0x02
    1a34:	87 32       	cpi	r24, 0x27	; 39
    1a36:	91 05       	cpc	r25, r1
    1a38:	48 f0       	brcs	.+18     	; 0x1a4c <_Z8SendWAVRh+0x164>
    1a3a:	1a 82       	std	Y+2, r1	; 0x02
    1a3c:	19 82       	std	Y+1, r1	; 0x01
    1a3e:	19 86       	std	Y+9, r1	; 0x09
    1a40:	85 e0       	ldi	r24, 0x05	; 5
    1a42:	90 e0       	ldi	r25, 0x00	; 0
    1a44:	90 93 99 02 	sts	0x0299, r25
    1a48:	80 93 98 02 	sts	0x0298, r24
    1a4c:	89 85       	ldd	r24, Y+9	; 0x09
    1a4e:	88 23       	and	r24, r24
    1a50:	31 f0       	breq	.+12     	; 0x1a5e <_Z8SendWAVRh+0x176>
    1a52:	80 91 61 02 	lds	r24, 0x0261
    1a56:	88 23       	and	r24, r24
    1a58:	11 f0       	breq	.+4      	; 0x1a5e <_Z8SendWAVRh+0x176>
    1a5a:	81 e0       	ldi	r24, 0x01	; 1
    1a5c:	01 c0       	rjmp	.+2      	; 0x1a60 <_Z8SendWAVRh+0x178>
    1a5e:	80 e0       	ldi	r24, 0x00	; 0
    1a60:	88 23       	and	r24, r24
    1a62:	09 f0       	breq	.+2      	; 0x1a66 <_Z8SendWAVRh+0x17e>
    1a64:	a2 cf       	rjmp	.-188    	; 0x19aa <_Z8SendWAVRh+0xc2>
    1a66:	1e c1       	rjmp	.+572    	; 0x1ca4 <_Z8SendWAVRh+0x3bc>
    1a68:	ce 01       	movw	r24, r28
    1a6a:	c3 96       	adiw	r24, 0x33	; 51
    1a6c:	29 e2       	ldi	r18, 0x29	; 41
    1a6e:	32 e0       	ldi	r19, 0x02	; 2
    1a70:	b9 01       	movw	r22, r18
    1a72:	45 e0       	ldi	r20, 0x05	; 5
    1a74:	50 e0       	ldi	r21, 0x00	; 0
    1a76:	0e 94 4c 14 	call	0x2898	; 0x2898 <strncmp>
    1a7a:	00 97       	sbiw	r24, 0x00	; 0
    1a7c:	39 f4       	brne	.+14     	; 0x1a8c <_Z8SendWAVRh+0x1a4>
    1a7e:	83 e0       	ldi	r24, 0x03	; 3
    1a80:	90 e0       	ldi	r25, 0x00	; 0
    1a82:	90 93 99 02 	sts	0x0299, r25
    1a86:	80 93 98 02 	sts	0x0298, r24
    1a8a:	0c c1       	rjmp	.+536    	; 0x1ca4 <_Z8SendWAVRh+0x3bc>
    1a8c:	ce 01       	movw	r24, r28
    1a8e:	c3 96       	adiw	r24, 0x33	; 51
    1a90:	2f e2       	ldi	r18, 0x2F	; 47
    1a92:	32 e0       	ldi	r19, 0x02	; 2
    1a94:	b9 01       	movw	r22, r18
    1a96:	48 e0       	ldi	r20, 0x08	; 8
    1a98:	50 e0       	ldi	r21, 0x00	; 0
    1a9a:	0e 94 4c 14 	call	0x2898	; 0x2898 <strncmp>
    1a9e:	00 97       	sbiw	r24, 0x00	; 0
    1aa0:	39 f4       	brne	.+14     	; 0x1ab0 <_Z8SendWAVRh+0x1c8>
    1aa2:	85 e0       	ldi	r24, 0x05	; 5
    1aa4:	90 e0       	ldi	r25, 0x00	; 0
    1aa6:	90 93 99 02 	sts	0x0299, r25
    1aaa:	80 93 98 02 	sts	0x0298, r24
    1aae:	fa c0       	rjmp	.+500    	; 0x1ca4 <_Z8SendWAVRh+0x3bc>
    1ab0:	ce 01       	movw	r24, r28
    1ab2:	c3 96       	adiw	r24, 0x33	; 51
    1ab4:	9e 01       	movw	r18, r28
    1ab6:	25 5f       	subi	r18, 0xF5	; 245
    1ab8:	3f 4f       	sbci	r19, 0xFF	; 255
    1aba:	b9 01       	movw	r22, r18
    1abc:	0e 94 3c 14 	call	0x2878	; 0x2878 <strcmp>
    1ac0:	00 97       	sbiw	r24, 0x00	; 0
    1ac2:	39 f4       	brne	.+14     	; 0x1ad2 <_Z8SendWAVRh+0x1ea>
    1ac4:	86 e0       	ldi	r24, 0x06	; 6
    1ac6:	90 e0       	ldi	r25, 0x00	; 0
    1ac8:	90 93 99 02 	sts	0x0299, r25
    1acc:	80 93 98 02 	sts	0x0298, r24
    1ad0:	e9 c0       	rjmp	.+466    	; 0x1ca4 <_Z8SendWAVRh+0x3bc>
    1ad2:	ce 01       	movw	r24, r28
    1ad4:	c3 96       	adiw	r24, 0x33	; 51
    1ad6:	28 e3       	ldi	r18, 0x38	; 56
    1ad8:	32 e0       	ldi	r19, 0x02	; 2
    1ada:	b9 01       	movw	r22, r18
    1adc:	46 e0       	ldi	r20, 0x06	; 6
    1ade:	50 e0       	ldi	r21, 0x00	; 0
    1ae0:	0e 94 4c 14 	call	0x2898	; 0x2898 <strncmp>
    1ae4:	00 97       	sbiw	r24, 0x00	; 0
    1ae6:	51 f4       	brne	.+20     	; 0x1afc <_Z8SendWAVRh+0x214>
    1ae8:	86 e0       	ldi	r24, 0x06	; 6
    1aea:	90 e0       	ldi	r25, 0x00	; 0
    1aec:	90 93 99 02 	sts	0x0299, r25
    1af0:	80 93 98 02 	sts	0x0298, r24
    1af4:	81 e0       	ldi	r24, 0x01	; 1
    1af6:	80 93 5e 02 	sts	0x025E, r24
    1afa:	d4 c0       	rjmp	.+424    	; 0x1ca4 <_Z8SendWAVRh+0x3bc>
    1afc:	ce 01       	movw	r24, r28
    1afe:	c3 96       	adiw	r24, 0x33	; 51
    1b00:	21 e2       	ldi	r18, 0x21	; 33
    1b02:	32 e0       	ldi	r19, 0x02	; 2
    1b04:	b9 01       	movw	r22, r18
    1b06:	47 e0       	ldi	r20, 0x07	; 7
    1b08:	50 e0       	ldi	r21, 0x00	; 0
    1b0a:	0e 94 4c 14 	call	0x2898	; 0x2898 <strncmp>
    1b0e:	00 97       	sbiw	r24, 0x00	; 0
    1b10:	39 f4       	brne	.+14     	; 0x1b20 <_Z8SendWAVRh+0x238>
    1b12:	84 e0       	ldi	r24, 0x04	; 4
    1b14:	90 e0       	ldi	r25, 0x00	; 0
    1b16:	90 93 99 02 	sts	0x0299, r25
    1b1a:	80 93 98 02 	sts	0x0298, r24
    1b1e:	c2 c0       	rjmp	.+388    	; 0x1ca4 <_Z8SendWAVRh+0x3bc>
    1b20:	85 e0       	ldi	r24, 0x05	; 5
    1b22:	90 e0       	ldi	r25, 0x00	; 0
    1b24:	90 93 99 02 	sts	0x0299, r25
    1b28:	80 93 98 02 	sts	0x0298, r24
    1b2c:	bb c0       	rjmp	.+374    	; 0x1ca4 <_Z8SendWAVRh+0x3bc>
    1b2e:	80 91 5e 02 	lds	r24, 0x025E
    1b32:	88 23       	and	r24, r24
    1b34:	21 f0       	breq	.+8      	; 0x1b3e <_Z8SendWAVRh+0x256>
    1b36:	8f e3       	ldi	r24, 0x3F	; 63
    1b38:	92 e0       	ldi	r25, 0x02	; 2
    1b3a:	0e 94 41 09 	call	0x1282	; 0x1282 <_Z9PrintWAVRPc>
    1b3e:	80 91 5c 02 	lds	r24, 0x025C
    1b42:	88 23       	and	r24, r24
    1b44:	09 f4       	brne	.+2      	; 0x1b48 <_Z8SendWAVRh+0x260>
    1b46:	56 c0       	rjmp	.+172    	; 0x1bf4 <_Z8SendWAVRh+0x30c>
    1b48:	9e 01       	movw	r18, r28
    1b4a:	25 5f       	subi	r18, 0xF5	; 245
    1b4c:	3f 4f       	sbci	r19, 0xFF	; 255
    1b4e:	81 e4       	ldi	r24, 0x41	; 65
    1b50:	93 e4       	ldi	r25, 0x43	; 67
    1b52:	ab e4       	ldi	r26, 0x4B	; 75
    1b54:	b0 e0       	ldi	r27, 0x00	; 0
    1b56:	f9 01       	movw	r30, r18
    1b58:	80 83       	st	Z, r24
    1b5a:	91 83       	std	Z+1, r25	; 0x01
    1b5c:	a2 83       	std	Z+2, r26	; 0x02
    1b5e:	b3 83       	std	Z+3, r27	; 0x03
    1b60:	86 e6       	ldi	r24, 0x66	; 102
    1b62:	92 e0       	ldi	r25, 0x02	; 2
    1b64:	0e 94 3b 07 	call	0xe76	; 0xe76 <_ZN6myTime7getTimeEv>
    1b68:	9c 01       	movw	r18, r24
    1b6a:	ce 01       	movw	r24, r28
    1b6c:	0b 96       	adiw	r24, 0x0b	; 11
    1b6e:	b9 01       	movw	r22, r18
    1b70:	0e 94 45 14 	call	0x288a	; 0x288a <strcpy>
    1b74:	ce 01       	movw	r24, r28
    1b76:	0b 96       	adiw	r24, 0x0b	; 11
    1b78:	9c 01       	movw	r18, r24
    1b7a:	f9 01       	movw	r30, r18
    1b7c:	01 90       	ld	r0, Z+
    1b7e:	00 20       	and	r0, r0
    1b80:	e9 f7       	brne	.-6      	; 0x1b7c <_Z8SendWAVRh+0x294>
    1b82:	cf 01       	movw	r24, r30
    1b84:	01 97       	sbiw	r24, 0x01	; 1
    1b86:	82 1b       	sub	r24, r18
    1b88:	93 0b       	sbc	r25, r19
    1b8a:	9e 01       	movw	r18, r28
    1b8c:	25 5f       	subi	r18, 0xF5	; 245
    1b8e:	3f 4f       	sbci	r19, 0xFF	; 255
    1b90:	82 0f       	add	r24, r18
    1b92:	93 1f       	adc	r25, r19
    1b94:	2f e2       	ldi	r18, 0x2F	; 47
    1b96:	30 e0       	ldi	r19, 0x00	; 0
    1b98:	fc 01       	movw	r30, r24
    1b9a:	31 83       	std	Z+1, r19	; 0x01
    1b9c:	20 83       	st	Z, r18
    1b9e:	86 e6       	ldi	r24, 0x66	; 102
    1ba0:	92 e0       	ldi	r25, 0x02	; 2
    1ba2:	0e 94 c4 03 	call	0x788	; 0x788 <_ZN6myDate7getDateEv>
    1ba6:	9c 01       	movw	r18, r24
    1ba8:	ce 01       	movw	r24, r28
    1baa:	0b 96       	adiw	r24, 0x0b	; 11
    1bac:	b9 01       	movw	r22, r18
    1bae:	0e 94 31 14 	call	0x2862	; 0x2862 <strcat>
    1bb2:	ce 01       	movw	r24, r28
    1bb4:	0b 96       	adiw	r24, 0x0b	; 11
    1bb6:	9c 01       	movw	r18, r24
    1bb8:	f9 01       	movw	r30, r18
    1bba:	01 90       	ld	r0, Z+
    1bbc:	00 20       	and	r0, r0
    1bbe:	e9 f7       	brne	.-6      	; 0x1bba <_Z8SendWAVRh+0x2d2>
    1bc0:	cf 01       	movw	r24, r30
    1bc2:	01 97       	sbiw	r24, 0x01	; 1
    1bc4:	82 1b       	sub	r24, r18
    1bc6:	93 0b       	sbc	r25, r19
    1bc8:	9e 01       	movw	r18, r28
    1bca:	25 5f       	subi	r18, 0xF5	; 245
    1bcc:	3f 4f       	sbci	r19, 0xFF	; 255
    1bce:	82 0f       	add	r24, r18
    1bd0:	93 1f       	adc	r25, r19
    1bd2:	2e e2       	ldi	r18, 0x2E	; 46
    1bd4:	30 e0       	ldi	r19, 0x00	; 0
    1bd6:	fc 01       	movw	r30, r24
    1bd8:	31 83       	std	Z+1, r19	; 0x01
    1bda:	20 83       	st	Z, r18
    1bdc:	88 e4       	ldi	r24, 0x48	; 72
    1bde:	92 e0       	ldi	r25, 0x02	; 2
    1be0:	0e 94 41 09 	call	0x1282	; 0x1282 <_Z9PrintWAVRPc>
    1be4:	80 e0       	ldi	r24, 0x00	; 0
    1be6:	61 e0       	ldi	r22, 0x01	; 1
    1be8:	41 e0       	ldi	r20, 0x01	; 1
    1bea:	0e 94 70 0e 	call	0x1ce0	; 0x1ce0 <_Z13printTimeDatehhh>
    1bee:	80 e0       	ldi	r24, 0x00	; 0
    1bf0:	0e 94 23 09 	call	0x1246	; 0x1246 <_Z13PutUartChWAVRc>
    1bf4:	1e 82       	std	Y+6, r1	; 0x06
    1bf6:	1d 82       	std	Y+5, r1	; 0x05
    1bf8:	0e c0       	rjmp	.+28     	; 0x1c16 <_Z8SendWAVRh+0x32e>
    1bfa:	9e 01       	movw	r18, r28
    1bfc:	2d 5c       	subi	r18, 0xCD	; 205
    1bfe:	3f 4f       	sbci	r19, 0xFF	; 255
    1c00:	8d 81       	ldd	r24, Y+5	; 0x05
    1c02:	9e 81       	ldd	r25, Y+6	; 0x06
    1c04:	82 0f       	add	r24, r18
    1c06:	93 1f       	adc	r25, r19
    1c08:	fc 01       	movw	r30, r24
    1c0a:	10 82       	st	Z, r1
    1c0c:	8d 81       	ldd	r24, Y+5	; 0x05
    1c0e:	9e 81       	ldd	r25, Y+6	; 0x06
    1c10:	01 96       	adiw	r24, 0x01	; 1
    1c12:	9e 83       	std	Y+6, r25	; 0x06
    1c14:	8d 83       	std	Y+5, r24	; 0x05
    1c16:	2d 81       	ldd	r18, Y+5	; 0x05
    1c18:	3e 81       	ldd	r19, Y+6	; 0x06
    1c1a:	41 e0       	ldi	r20, 0x01	; 1
    1c1c:	89 81       	ldd	r24, Y+1	; 0x01
    1c1e:	9a 81       	ldd	r25, Y+2	; 0x02
    1c20:	82 17       	cp	r24, r18
    1c22:	93 07       	cpc	r25, r19
    1c24:	08 f4       	brcc	.+2      	; 0x1c28 <_Z8SendWAVRh+0x340>
    1c26:	40 e0       	ldi	r20, 0x00	; 0
    1c28:	44 23       	and	r20, r20
    1c2a:	39 f7       	brne	.-50     	; 0x1bfa <_Z8SendWAVRh+0x312>
    1c2c:	1a 82       	std	Y+2, r1	; 0x02
    1c2e:	19 82       	std	Y+1, r1	; 0x01
    1c30:	1f 82       	std	Y+7, r1	; 0x07
    1c32:	81 e0       	ldi	r24, 0x01	; 1
    1c34:	89 87       	std	Y+9, r24	; 0x09
    1c36:	81 e0       	ldi	r24, 0x01	; 1
    1c38:	90 e0       	ldi	r25, 0x00	; 0
    1c3a:	90 93 99 02 	sts	0x0299, r25
    1c3e:	80 93 98 02 	sts	0x0298, r24
    1c42:	30 c0       	rjmp	.+96     	; 0x1ca4 <_Z8SendWAVRh+0x3bc>
    1c44:	86 e6       	ldi	r24, 0x66	; 102
    1c46:	92 e0       	ldi	r25, 0x02	; 2
    1c48:	0e 94 fe 06 	call	0xdfc	; 0xdfc <_ZN6myTime13checkValidityEv>
    1c4c:	88 87       	std	Y+8, r24	; 0x08
    1c4e:	88 85       	ldd	r24, Y+8	; 0x08
    1c50:	88 23       	and	r24, r24
    1c52:	39 f0       	breq	.+14     	; 0x1c62 <_Z8SendWAVRh+0x37a>
    1c54:	85 e0       	ldi	r24, 0x05	; 5
    1c56:	90 e0       	ldi	r25, 0x00	; 0
    1c58:	90 93 99 02 	sts	0x0299, r25
    1c5c:	80 93 98 02 	sts	0x0298, r24
    1c60:	21 c0       	rjmp	.+66     	; 0x1ca4 <_Z8SendWAVRh+0x3bc>
    1c62:	86 e0       	ldi	r24, 0x06	; 6
    1c64:	90 e0       	ldi	r25, 0x00	; 0
    1c66:	90 93 99 02 	sts	0x0299, r25
    1c6a:	80 93 98 02 	sts	0x0298, r24
    1c6e:	81 e0       	ldi	r24, 0x01	; 1
    1c70:	80 93 5f 02 	sts	0x025F, r24
    1c74:	17 c0       	rjmp	.+46     	; 0x1ca4 <_Z8SendWAVRh+0x3bc>
    1c76:	10 92 99 02 	sts	0x0299, r1
    1c7a:	10 92 98 02 	sts	0x0298, r1
    1c7e:	10 92 61 02 	sts	0x0261, r1
    1c82:	81 e0       	ldi	r24, 0x01	; 1
    1c84:	8a 87       	std	Y+10, r24	; 0x0a
    1c86:	0e c0       	rjmp	.+28     	; 0x1ca4 <_Z8SendWAVRh+0x3bc>
    1c88:	10 92 99 02 	sts	0x0299, r1
    1c8c:	10 92 98 02 	sts	0x0298, r1
    1c90:	10 92 61 02 	sts	0x0261, r1
    1c94:	07 c0       	rjmp	.+14     	; 0x1ca4 <_Z8SendWAVRh+0x3bc>
    1c96:	10 92 99 02 	sts	0x0299, r1
    1c9a:	10 92 98 02 	sts	0x0298, r1
    1c9e:	10 92 61 02 	sts	0x0261, r1
    1ca2:	00 00       	nop
    1ca4:	90 91 61 02 	lds	r25, 0x0261
    1ca8:	81 e0       	ldi	r24, 0x01	; 1
    1caa:	99 23       	and	r25, r25
    1cac:	09 f4       	brne	.+2      	; 0x1cb0 <_Z8SendWAVRh+0x3c8>
    1cae:	80 e0       	ldi	r24, 0x00	; 0
    1cb0:	88 23       	and	r24, r24
    1cb2:	09 f0       	breq	.+2      	; 0x1cb6 <_Z8SendWAVRh+0x3ce>
    1cb4:	2e ce       	rjmp	.-932    	; 0x1912 <_Z8SendWAVRh+0x2a>
    1cb6:	9a 85       	ldd	r25, Y+10	; 0x0a
    1cb8:	81 e0       	ldi	r24, 0x01	; 1
    1cba:	99 23       	and	r25, r25
    1cbc:	09 f4       	brne	.+2      	; 0x1cc0 <_Z8SendWAVRh+0x3d8>
    1cbe:	80 e0       	ldi	r24, 0x00	; 0
    1cc0:	88 23       	and	r24, r24
    1cc2:	21 f0       	breq	.+8      	; 0x1ccc <_Z8SendWAVRh+0x3e4>
    1cc4:	81 e0       	ldi	r24, 0x01	; 1
    1cc6:	80 93 61 02 	sts	0x0261, r24
    1cca:	1a 86       	std	Y+10, r1	; 0x0a
    1ccc:	c5 5a       	subi	r28, 0xA5	; 165
    1cce:	df 4f       	sbci	r29, 0xFF	; 255
    1cd0:	0f b6       	in	r0, 0x3f	; 63
    1cd2:	f8 94       	cli
    1cd4:	de bf       	out	0x3e, r29	; 62
    1cd6:	0f be       	out	0x3f, r0	; 63
    1cd8:	cd bf       	out	0x3d, r28	; 61
    1cda:	df 91       	pop	r29
    1cdc:	cf 91       	pop	r28
    1cde:	08 95       	ret

00001ce0 <_Z13printTimeDatehhh>:
    1ce0:	cf 93       	push	r28
    1ce2:	df 93       	push	r29
    1ce4:	cd b7       	in	r28, 0x3d	; 61
    1ce6:	de b7       	in	r29, 0x3e	; 62
    1ce8:	eb 97       	sbiw	r28, 0x3b	; 59
    1cea:	0f b6       	in	r0, 0x3f	; 63
    1cec:	f8 94       	cli
    1cee:	de bf       	out	0x3e, r29	; 62
    1cf0:	0f be       	out	0x3f, r0	; 63
    1cf2:	cd bf       	out	0x3d, r28	; 61
    1cf4:	89 af       	sts	0x79, r24
    1cf6:	6a af       	sts	0x7a, r22
    1cf8:	4b af       	sts	0x7b, r20
    1cfa:	89 ad       	sts	0x69, r24
    1cfc:	88 23       	and	r24, r24
    1cfe:	51 f1       	breq	.+84     	; 0x1d54 <_Z13printTimeDatehhh+0x74>
    1d00:	8a ad       	sts	0x6a, r24
    1d02:	88 23       	and	r24, r24
    1d04:	89 f0       	breq	.+34     	; 0x1d28 <_Z13printTimeDatehhh+0x48>
    1d06:	86 e6       	ldi	r24, 0x66	; 102
    1d08:	92 e0       	ldi	r25, 0x02	; 2
    1d0a:	0e 94 3b 07 	call	0xe76	; 0xe76 <_ZN6myTime7getTimeEv>
    1d0e:	9c 01       	movw	r18, r24
    1d10:	ce 01       	movw	r24, r28
    1d12:	01 96       	adiw	r24, 0x01	; 1
    1d14:	b9 01       	movw	r22, r18
    1d16:	0e 94 45 14 	call	0x288a	; 0x288a <strcpy>
    1d1a:	ce 01       	movw	r24, r28
    1d1c:	01 96       	adiw	r24, 0x01	; 1
    1d1e:	0e 94 f7 08 	call	0x11ee	; 0x11ee <_Z9PrintBonePc>
    1d22:	8f e2       	ldi	r24, 0x2F	; 47
    1d24:	0e 94 d9 08 	call	0x11b2	; 0x11b2 <_Z13PutUartChBonec>
    1d28:	8b ad       	sts	0x6b, r24
    1d2a:	88 23       	and	r24, r24
    1d2c:	e1 f1       	breq	.+120    	; 0x1da6 <_Z13printTimeDatehhh+0xc6>
    1d2e:	86 e6       	ldi	r24, 0x66	; 102
    1d30:	92 e0       	ldi	r25, 0x02	; 2
    1d32:	0e 94 c4 03 	call	0x788	; 0x788 <_ZN6myDate7getDateEv>
    1d36:	9c 01       	movw	r18, r24
    1d38:	ce 01       	movw	r24, r28
    1d3a:	0c 96       	adiw	r24, 0x0c	; 12
    1d3c:	b9 01       	movw	r22, r18
    1d3e:	0e 94 45 14 	call	0x288a	; 0x288a <strcpy>
    1d42:	ce 01       	movw	r24, r28
    1d44:	0c 96       	adiw	r24, 0x0c	; 12
    1d46:	0e 94 f7 08 	call	0x11ee	; 0x11ee <_Z9PrintBonePc>
    1d4a:	8c e4       	ldi	r24, 0x4C	; 76
    1d4c:	92 e0       	ldi	r25, 0x02	; 2
    1d4e:	0e 94 f7 08 	call	0x11ee	; 0x11ee <_Z9PrintBonePc>
    1d52:	29 c0       	rjmp	.+82     	; 0x1da6 <_Z13printTimeDatehhh+0xc6>
    1d54:	8a ad       	sts	0x6a, r24
    1d56:	88 23       	and	r24, r24
    1d58:	89 f0       	breq	.+34     	; 0x1d7c <_Z13printTimeDatehhh+0x9c>
    1d5a:	86 e6       	ldi	r24, 0x66	; 102
    1d5c:	92 e0       	ldi	r25, 0x02	; 2
    1d5e:	0e 94 3b 07 	call	0xe76	; 0xe76 <_ZN6myTime7getTimeEv>
    1d62:	9c 01       	movw	r18, r24
    1d64:	ce 01       	movw	r24, r28
    1d66:	4d 96       	adiw	r24, 0x1d	; 29
    1d68:	b9 01       	movw	r22, r18
    1d6a:	0e 94 45 14 	call	0x288a	; 0x288a <strcpy>
    1d6e:	ce 01       	movw	r24, r28
    1d70:	4d 96       	adiw	r24, 0x1d	; 29
    1d72:	0e 94 41 09 	call	0x1282	; 0x1282 <_Z9PrintWAVRPc>
    1d76:	8f e2       	ldi	r24, 0x2F	; 47
    1d78:	0e 94 23 09 	call	0x1246	; 0x1246 <_Z13PutUartChWAVRc>
    1d7c:	8b ad       	sts	0x6b, r24
    1d7e:	88 23       	and	r24, r24
    1d80:	91 f0       	breq	.+36     	; 0x1da6 <_Z13printTimeDatehhh+0xc6>
    1d82:	86 e6       	ldi	r24, 0x66	; 102
    1d84:	92 e0       	ldi	r25, 0x02	; 2
    1d86:	0e 94 c4 03 	call	0x788	; 0x788 <_ZN6myDate7getDateEv>
    1d8a:	9c 01       	movw	r18, r24
    1d8c:	ce 01       	movw	r24, r28
    1d8e:	88 96       	adiw	r24, 0x28	; 40
    1d90:	b9 01       	movw	r22, r18
    1d92:	0e 94 45 14 	call	0x288a	; 0x288a <strcpy>
    1d96:	ce 01       	movw	r24, r28
    1d98:	88 96       	adiw	r24, 0x28	; 40
    1d9a:	0e 94 41 09 	call	0x1282	; 0x1282 <_Z9PrintWAVRPc>
    1d9e:	8c e4       	ldi	r24, 0x4C	; 76
    1da0:	92 e0       	ldi	r25, 0x02	; 2
    1da2:	0e 94 41 09 	call	0x1282	; 0x1282 <_Z9PrintWAVRPc>
    1da6:	eb 96       	adiw	r28, 0x3b	; 59
    1da8:	0f b6       	in	r0, 0x3f	; 63
    1daa:	f8 94       	cli
    1dac:	de bf       	out	0x3e, r29	; 62
    1dae:	0f be       	out	0x3f, r0	; 63
    1db0:	cd bf       	out	0x3d, r28	; 61
    1db2:	df 91       	pop	r29
    1db4:	cf 91       	pop	r28
    1db6:	08 95       	ret

00001db8 <__vector_1>:
    1db8:	1f 92       	push	r1
    1dba:	0f 92       	push	r0
    1dbc:	0f b6       	in	r0, 0x3f	; 63
    1dbe:	0f 92       	push	r0
    1dc0:	00 90 5b 00 	lds	r0, 0x005B
    1dc4:	0f 92       	push	r0
    1dc6:	11 24       	eor	r1, r1
    1dc8:	2f 93       	push	r18
    1dca:	3f 93       	push	r19
    1dcc:	4f 93       	push	r20
    1dce:	5f 93       	push	r21
    1dd0:	6f 93       	push	r22
    1dd2:	7f 93       	push	r23
    1dd4:	8f 93       	push	r24
    1dd6:	9f 93       	push	r25
    1dd8:	af 93       	push	r26
    1dda:	bf 93       	push	r27
    1ddc:	ef 93       	push	r30
    1dde:	ff 93       	push	r31
    1de0:	cf 93       	push	r28
    1de2:	df 93       	push	r29
    1de4:	cd b7       	in	r28, 0x3d	; 61
    1de6:	de b7       	in	r29, 0x3e	; 62
    1de8:	f8 94       	cli
    1dea:	81 e0       	ldi	r24, 0x01	; 1
    1dec:	80 93 64 02 	sts	0x0264, r24
    1df0:	89 ec       	ldi	r24, 0xC9	; 201
    1df2:	90 e0       	ldi	r25, 0x00	; 0
    1df4:	29 ec       	ldi	r18, 0xC9	; 201
    1df6:	30 e0       	ldi	r19, 0x00	; 0
    1df8:	f9 01       	movw	r30, r18
    1dfa:	20 81       	ld	r18, Z
    1dfc:	20 68       	ori	r18, 0x80	; 128
    1dfe:	fc 01       	movw	r30, r24
    1e00:	20 83       	st	Z, r18
    1e02:	8d e3       	ldi	r24, 0x3D	; 61
    1e04:	90 e0       	ldi	r25, 0x00	; 0
    1e06:	2d e3       	ldi	r18, 0x3D	; 61
    1e08:	30 e0       	ldi	r19, 0x00	; 0
    1e0a:	f9 01       	movw	r30, r18
    1e0c:	20 81       	ld	r18, Z
    1e0e:	2c 7f       	andi	r18, 0xFC	; 252
    1e10:	fc 01       	movw	r30, r24
    1e12:	20 83       	st	Z, r18
    1e14:	8f e4       	ldi	r24, 0x4F	; 79
    1e16:	92 e0       	ldi	r25, 0x02	; 2
    1e18:	0e 94 f7 08 	call	0x11ee	; 0x11ee <_Z9PrintBonePc>
    1e1c:	78 94       	sei
    1e1e:	df 91       	pop	r29
    1e20:	cf 91       	pop	r28
    1e22:	ff 91       	pop	r31
    1e24:	ef 91       	pop	r30
    1e26:	bf 91       	pop	r27
    1e28:	af 91       	pop	r26
    1e2a:	9f 91       	pop	r25
    1e2c:	8f 91       	pop	r24
    1e2e:	7f 91       	pop	r23
    1e30:	6f 91       	pop	r22
    1e32:	5f 91       	pop	r21
    1e34:	4f 91       	pop	r20
    1e36:	3f 91       	pop	r19
    1e38:	2f 91       	pop	r18
    1e3a:	0f 90       	pop	r0
    1e3c:	00 92 5b 00 	sts	0x005B, r0
    1e40:	0f 90       	pop	r0
    1e42:	0f be       	out	0x3f, r0	; 63
    1e44:	0f 90       	pop	r0
    1e46:	1f 90       	pop	r1
    1e48:	18 95       	reti

00001e4a <__vector_2>:
    1e4a:	1f 92       	push	r1
    1e4c:	0f 92       	push	r0
    1e4e:	0f b6       	in	r0, 0x3f	; 63
    1e50:	0f 92       	push	r0
    1e52:	00 90 5b 00 	lds	r0, 0x005B
    1e56:	0f 92       	push	r0
    1e58:	11 24       	eor	r1, r1
    1e5a:	2f 93       	push	r18
    1e5c:	3f 93       	push	r19
    1e5e:	4f 93       	push	r20
    1e60:	5f 93       	push	r21
    1e62:	6f 93       	push	r22
    1e64:	7f 93       	push	r23
    1e66:	8f 93       	push	r24
    1e68:	9f 93       	push	r25
    1e6a:	af 93       	push	r26
    1e6c:	bf 93       	push	r27
    1e6e:	ef 93       	push	r30
    1e70:	ff 93       	push	r31
    1e72:	cf 93       	push	r28
    1e74:	df 93       	push	r29
    1e76:	cd b7       	in	r28, 0x3d	; 61
    1e78:	de b7       	in	r29, 0x3e	; 62
    1e7a:	f8 94       	cli
    1e7c:	81 e0       	ldi	r24, 0x01	; 1
    1e7e:	80 93 65 02 	sts	0x0265, r24
    1e82:	81 ec       	ldi	r24, 0xC1	; 193
    1e84:	90 e0       	ldi	r25, 0x00	; 0
    1e86:	21 ec       	ldi	r18, 0xC1	; 193
    1e88:	30 e0       	ldi	r19, 0x00	; 0
    1e8a:	f9 01       	movw	r30, r18
    1e8c:	20 81       	ld	r18, Z
    1e8e:	20 68       	ori	r18, 0x80	; 128
    1e90:	fc 01       	movw	r30, r24
    1e92:	20 83       	st	Z, r18
    1e94:	8d e3       	ldi	r24, 0x3D	; 61
    1e96:	90 e0       	ldi	r25, 0x00	; 0
    1e98:	2d e3       	ldi	r18, 0x3D	; 61
    1e9a:	30 e0       	ldi	r19, 0x00	; 0
    1e9c:	f9 01       	movw	r30, r18
    1e9e:	20 81       	ld	r18, Z
    1ea0:	2c 7f       	andi	r18, 0xFC	; 252
    1ea2:	fc 01       	movw	r30, r24
    1ea4:	20 83       	st	Z, r18
    1ea6:	84 e5       	ldi	r24, 0x54	; 84
    1ea8:	92 e0       	ldi	r25, 0x02	; 2
    1eaa:	0e 94 41 09 	call	0x1282	; 0x1282 <_Z9PrintWAVRPc>
    1eae:	78 94       	sei
    1eb0:	df 91       	pop	r29
    1eb2:	cf 91       	pop	r28
    1eb4:	ff 91       	pop	r31
    1eb6:	ef 91       	pop	r30
    1eb8:	bf 91       	pop	r27
    1eba:	af 91       	pop	r26
    1ebc:	9f 91       	pop	r25
    1ebe:	8f 91       	pop	r24
    1ec0:	7f 91       	pop	r23
    1ec2:	6f 91       	pop	r22
    1ec4:	5f 91       	pop	r21
    1ec6:	4f 91       	pop	r20
    1ec8:	3f 91       	pop	r19
    1eca:	2f 91       	pop	r18
    1ecc:	0f 90       	pop	r0
    1ece:	00 92 5b 00 	sts	0x005B, r0
    1ed2:	0f 90       	pop	r0
    1ed4:	0f be       	out	0x3f, r0	; 63
    1ed6:	0f 90       	pop	r0
    1ed8:	1f 90       	pop	r1
    1eda:	18 95       	reti

00001edc <__vector_7>:
    1edc:	1f 92       	push	r1
    1ede:	0f 92       	push	r0
    1ee0:	0f b6       	in	r0, 0x3f	; 63
    1ee2:	0f 92       	push	r0
    1ee4:	11 24       	eor	r1, r1
    1ee6:	8f 93       	push	r24
    1ee8:	cf 93       	push	r28
    1eea:	df 93       	push	r29
    1eec:	cd b7       	in	r28, 0x3d	; 61
    1eee:	de b7       	in	r29, 0x3e	; 62
    1ef0:	81 e0       	ldi	r24, 0x01	; 1
    1ef2:	80 93 5b 02 	sts	0x025B, r24
    1ef6:	df 91       	pop	r29
    1ef8:	cf 91       	pop	r28
    1efa:	8f 91       	pop	r24
    1efc:	0f 90       	pop	r0
    1efe:	0f be       	out	0x3f, r0	; 63
    1f00:	0f 90       	pop	r0
    1f02:	1f 90       	pop	r1
    1f04:	18 95       	reti

00001f06 <__vector_8>:
    1f06:	1f 92       	push	r1
    1f08:	0f 92       	push	r0
    1f0a:	0f b6       	in	r0, 0x3f	; 63
    1f0c:	0f 92       	push	r0
    1f0e:	11 24       	eor	r1, r1
    1f10:	cf 93       	push	r28
    1f12:	df 93       	push	r29
    1f14:	cd b7       	in	r28, 0x3d	; 61
    1f16:	de b7       	in	r29, 0x3e	; 62
    1f18:	df 91       	pop	r29
    1f1a:	cf 91       	pop	r28
    1f1c:	0f 90       	pop	r0
    1f1e:	0f be       	out	0x3f, r0	; 63
    1f20:	0f 90       	pop	r0
    1f22:	1f 90       	pop	r1
    1f24:	18 95       	reti

00001f26 <__vector_15>:
    1f26:	1f 92       	push	r1
    1f28:	0f 92       	push	r0
    1f2a:	0f b6       	in	r0, 0x3f	; 63
    1f2c:	0f 92       	push	r0
    1f2e:	00 90 5b 00 	lds	r0, 0x005B
    1f32:	0f 92       	push	r0
    1f34:	11 24       	eor	r1, r1
    1f36:	2f 93       	push	r18
    1f38:	3f 93       	push	r19
    1f3a:	4f 93       	push	r20
    1f3c:	5f 93       	push	r21
    1f3e:	6f 93       	push	r22
    1f40:	7f 93       	push	r23
    1f42:	8f 93       	push	r24
    1f44:	9f 93       	push	r25
    1f46:	af 93       	push	r26
    1f48:	bf 93       	push	r27
    1f4a:	ef 93       	push	r30
    1f4c:	ff 93       	push	r31
    1f4e:	cf 93       	push	r28
    1f50:	df 93       	push	r29
    1f52:	cd b7       	in	r28, 0x3d	; 61
    1f54:	de b7       	in	r29, 0x3e	; 62
    1f56:	86 e6       	ldi	r24, 0x66	; 102
    1f58:	92 e0       	ldi	r25, 0x02	; 2
    1f5a:	61 e0       	ldi	r22, 0x01	; 1
    1f5c:	70 e0       	ldi	r23, 0x00	; 0
    1f5e:	0e 94 b4 06 	call	0xd68	; 0xd68 <_ZN6myTime10addSecondsEi>
    1f62:	80 91 90 02 	lds	r24, 0x0290
    1f66:	90 91 91 02 	lds	r25, 0x0291
    1f6a:	84 30       	cpi	r24, 0x04	; 4
    1f6c:	91 05       	cpc	r25, r1
    1f6e:	54 f4       	brge	.+20     	; 0x1f84 <__vector_15+0x5e>
    1f70:	80 91 60 02 	lds	r24, 0x0260
    1f74:	88 23       	and	r24, r24
    1f76:	21 f4       	brne	.+8      	; 0x1f80 <__vector_15+0x5a>
    1f78:	80 91 64 02 	lds	r24, 0x0264
    1f7c:	88 23       	and	r24, r24
    1f7e:	11 f0       	breq	.+4      	; 0x1f84 <__vector_15+0x5e>
    1f80:	81 e0       	ldi	r24, 0x01	; 1
    1f82:	01 c0       	rjmp	.+2      	; 0x1f86 <__vector_15+0x60>
    1f84:	80 e0       	ldi	r24, 0x00	; 0
    1f86:	88 23       	and	r24, r24
    1f88:	51 f0       	breq	.+20     	; 0x1f9e <__vector_15+0x78>
    1f8a:	80 91 90 02 	lds	r24, 0x0290
    1f8e:	90 91 91 02 	lds	r25, 0x0291
    1f92:	01 96       	adiw	r24, 0x01	; 1
    1f94:	90 93 91 02 	sts	0x0291, r25
    1f98:	80 93 90 02 	sts	0x0290, r24
    1f9c:	3e c0       	rjmp	.+124    	; 0x201a <__vector_15+0xf4>
    1f9e:	80 91 90 02 	lds	r24, 0x0290
    1fa2:	90 91 91 02 	lds	r25, 0x0291
    1fa6:	84 30       	cpi	r24, 0x04	; 4
    1fa8:	91 05       	cpc	r25, r1
    1faa:	54 f0       	brlt	.+20     	; 0x1fc0 <__vector_15+0x9a>
    1fac:	80 91 60 02 	lds	r24, 0x0260
    1fb0:	88 23       	and	r24, r24
    1fb2:	21 f4       	brne	.+8      	; 0x1fbc <__vector_15+0x96>
    1fb4:	80 91 64 02 	lds	r24, 0x0264
    1fb8:	88 23       	and	r24, r24
    1fba:	11 f0       	breq	.+4      	; 0x1fc0 <__vector_15+0x9a>
    1fbc:	81 e0       	ldi	r24, 0x01	; 1
    1fbe:	01 c0       	rjmp	.+2      	; 0x1fc2 <__vector_15+0x9c>
    1fc0:	80 e0       	ldi	r24, 0x00	; 0
    1fc2:	88 23       	and	r24, r24
    1fc4:	91 f0       	breq	.+36     	; 0x1fea <__vector_15+0xc4>
    1fc6:	10 92 91 02 	sts	0x0291, r1
    1fca:	10 92 90 02 	sts	0x0290, r1
    1fce:	10 92 60 02 	sts	0x0260, r1
    1fd2:	10 92 64 02 	sts	0x0264, r1
    1fd6:	8d e3       	ldi	r24, 0x3D	; 61
    1fd8:	90 e0       	ldi	r25, 0x00	; 0
    1fda:	2d e3       	ldi	r18, 0x3D	; 61
    1fdc:	30 e0       	ldi	r19, 0x00	; 0
    1fde:	f9 01       	movw	r30, r18
    1fe0:	20 81       	ld	r18, Z
    1fe2:	23 60       	ori	r18, 0x03	; 3
    1fe4:	fc 01       	movw	r30, r24
    1fe6:	20 83       	st	Z, r18
    1fe8:	18 c0       	rjmp	.+48     	; 0x201a <__vector_15+0xf4>
    1fea:	80 91 60 02 	lds	r24, 0x0260
    1fee:	88 23       	and	r24, r24
    1ff0:	69 f4       	brne	.+26     	; 0x200c <__vector_15+0xe6>
    1ff2:	80 91 64 02 	lds	r24, 0x0264
    1ff6:	88 23       	and	r24, r24
    1ff8:	49 f4       	brne	.+18     	; 0x200c <__vector_15+0xe6>
    1ffa:	80 91 90 02 	lds	r24, 0x0290
    1ffe:	90 91 91 02 	lds	r25, 0x0291
    2002:	18 16       	cp	r1, r24
    2004:	19 06       	cpc	r1, r25
    2006:	14 f4       	brge	.+4      	; 0x200c <__vector_15+0xe6>
    2008:	81 e0       	ldi	r24, 0x01	; 1
    200a:	01 c0       	rjmp	.+2      	; 0x200e <__vector_15+0xe8>
    200c:	80 e0       	ldi	r24, 0x00	; 0
    200e:	88 23       	and	r24, r24
    2010:	21 f0       	breq	.+8      	; 0x201a <__vector_15+0xf4>
    2012:	10 92 91 02 	sts	0x0291, r1
    2016:	10 92 90 02 	sts	0x0290, r1
    201a:	80 91 92 02 	lds	r24, 0x0292
    201e:	90 91 93 02 	lds	r25, 0x0293
    2022:	84 30       	cpi	r24, 0x04	; 4
    2024:	91 05       	cpc	r25, r1
    2026:	54 f4       	brge	.+20     	; 0x203c <__vector_15+0x116>
    2028:	80 91 62 02 	lds	r24, 0x0262
    202c:	88 23       	and	r24, r24
    202e:	21 f4       	brne	.+8      	; 0x2038 <__vector_15+0x112>
    2030:	80 91 65 02 	lds	r24, 0x0265
    2034:	88 23       	and	r24, r24
    2036:	11 f0       	breq	.+4      	; 0x203c <__vector_15+0x116>
    2038:	81 e0       	ldi	r24, 0x01	; 1
    203a:	01 c0       	rjmp	.+2      	; 0x203e <__vector_15+0x118>
    203c:	80 e0       	ldi	r24, 0x00	; 0
    203e:	88 23       	and	r24, r24
    2040:	51 f0       	breq	.+20     	; 0x2056 <__vector_15+0x130>
    2042:	80 91 92 02 	lds	r24, 0x0292
    2046:	90 91 93 02 	lds	r25, 0x0293
    204a:	01 96       	adiw	r24, 0x01	; 1
    204c:	90 93 93 02 	sts	0x0293, r25
    2050:	80 93 92 02 	sts	0x0292, r24
    2054:	3e c0       	rjmp	.+124    	; 0x20d2 <__vector_15+0x1ac>
    2056:	80 91 92 02 	lds	r24, 0x0292
    205a:	90 91 93 02 	lds	r25, 0x0293
    205e:	84 30       	cpi	r24, 0x04	; 4
    2060:	91 05       	cpc	r25, r1
    2062:	54 f0       	brlt	.+20     	; 0x2078 <__vector_15+0x152>
    2064:	80 91 62 02 	lds	r24, 0x0262
    2068:	88 23       	and	r24, r24
    206a:	21 f4       	brne	.+8      	; 0x2074 <__vector_15+0x14e>
    206c:	80 91 65 02 	lds	r24, 0x0265
    2070:	88 23       	and	r24, r24
    2072:	11 f0       	breq	.+4      	; 0x2078 <__vector_15+0x152>
    2074:	81 e0       	ldi	r24, 0x01	; 1
    2076:	01 c0       	rjmp	.+2      	; 0x207a <__vector_15+0x154>
    2078:	80 e0       	ldi	r24, 0x00	; 0
    207a:	88 23       	and	r24, r24
    207c:	91 f0       	breq	.+36     	; 0x20a2 <__vector_15+0x17c>
    207e:	10 92 93 02 	sts	0x0293, r1
    2082:	10 92 92 02 	sts	0x0292, r1
    2086:	10 92 62 02 	sts	0x0262, r1
    208a:	10 92 65 02 	sts	0x0265, r1
    208e:	8d e3       	ldi	r24, 0x3D	; 61
    2090:	90 e0       	ldi	r25, 0x00	; 0
    2092:	2d e3       	ldi	r18, 0x3D	; 61
    2094:	30 e0       	ldi	r19, 0x00	; 0
    2096:	f9 01       	movw	r30, r18
    2098:	20 81       	ld	r18, Z
    209a:	23 60       	ori	r18, 0x03	; 3
    209c:	fc 01       	movw	r30, r24
    209e:	20 83       	st	Z, r18
    20a0:	18 c0       	rjmp	.+48     	; 0x20d2 <__vector_15+0x1ac>
    20a2:	80 91 62 02 	lds	r24, 0x0262
    20a6:	88 23       	and	r24, r24
    20a8:	69 f4       	brne	.+26     	; 0x20c4 <__vector_15+0x19e>
    20aa:	80 91 65 02 	lds	r24, 0x0265
    20ae:	88 23       	and	r24, r24
    20b0:	49 f4       	brne	.+18     	; 0x20c4 <__vector_15+0x19e>
    20b2:	80 91 92 02 	lds	r24, 0x0292
    20b6:	90 91 93 02 	lds	r25, 0x0293
    20ba:	18 16       	cp	r1, r24
    20bc:	19 06       	cpc	r1, r25
    20be:	14 f4       	brge	.+4      	; 0x20c4 <__vector_15+0x19e>
    20c0:	81 e0       	ldi	r24, 0x01	; 1
    20c2:	01 c0       	rjmp	.+2      	; 0x20c6 <__vector_15+0x1a0>
    20c4:	80 e0       	ldi	r24, 0x00	; 0
    20c6:	88 23       	and	r24, r24
    20c8:	21 f0       	breq	.+8      	; 0x20d2 <__vector_15+0x1ac>
    20ca:	10 92 93 02 	sts	0x0293, r1
    20ce:	10 92 92 02 	sts	0x0292, r1
    20d2:	80 91 61 02 	lds	r24, 0x0261
    20d6:	88 23       	and	r24, r24
    20d8:	49 f0       	breq	.+18     	; 0x20ec <__vector_15+0x1c6>
    20da:	80 91 94 02 	lds	r24, 0x0294
    20de:	90 91 95 02 	lds	r25, 0x0295
    20e2:	84 30       	cpi	r24, 0x04	; 4
    20e4:	91 05       	cpc	r25, r1
    20e6:	14 f4       	brge	.+4      	; 0x20ec <__vector_15+0x1c6>
    20e8:	81 e0       	ldi	r24, 0x01	; 1
    20ea:	01 c0       	rjmp	.+2      	; 0x20ee <__vector_15+0x1c8>
    20ec:	80 e0       	ldi	r24, 0x00	; 0
    20ee:	88 23       	and	r24, r24
    20f0:	51 f0       	breq	.+20     	; 0x2106 <__vector_15+0x1e0>
    20f2:	80 91 94 02 	lds	r24, 0x0294
    20f6:	90 91 95 02 	lds	r25, 0x0295
    20fa:	01 96       	adiw	r24, 0x01	; 1
    20fc:	90 93 95 02 	sts	0x0295, r25
    2100:	80 93 94 02 	sts	0x0294, r24
    2104:	33 c0       	rjmp	.+102    	; 0x216c <__vector_15+0x246>
    2106:	80 91 61 02 	lds	r24, 0x0261
    210a:	88 23       	and	r24, r24
    210c:	49 f0       	breq	.+18     	; 0x2120 <__vector_15+0x1fa>
    210e:	80 91 94 02 	lds	r24, 0x0294
    2112:	90 91 95 02 	lds	r25, 0x0295
    2116:	84 30       	cpi	r24, 0x04	; 4
    2118:	91 05       	cpc	r25, r1
    211a:	14 f0       	brlt	.+4      	; 0x2120 <__vector_15+0x1fa>
    211c:	81 e0       	ldi	r24, 0x01	; 1
    211e:	01 c0       	rjmp	.+2      	; 0x2122 <__vector_15+0x1fc>
    2120:	80 e0       	ldi	r24, 0x00	; 0
    2122:	88 23       	and	r24, r24
    2124:	79 f0       	breq	.+30     	; 0x2144 <__vector_15+0x21e>
    2126:	81 e0       	ldi	r24, 0x01	; 1
    2128:	80 93 8e 02 	sts	0x028E, r24
    212c:	10 92 61 02 	sts	0x0261, r1
    2130:	8d e3       	ldi	r24, 0x3D	; 61
    2132:	90 e0       	ldi	r25, 0x00	; 0
    2134:	2d e3       	ldi	r18, 0x3D	; 61
    2136:	30 e0       	ldi	r19, 0x00	; 0
    2138:	f9 01       	movw	r30, r18
    213a:	20 81       	ld	r18, Z
    213c:	23 60       	ori	r18, 0x03	; 3
    213e:	fc 01       	movw	r30, r24
    2140:	20 83       	st	Z, r18
    2142:	14 c0       	rjmp	.+40     	; 0x216c <__vector_15+0x246>
    2144:	80 91 61 02 	lds	r24, 0x0261
    2148:	88 23       	and	r24, r24
    214a:	49 f4       	brne	.+18     	; 0x215e <__vector_15+0x238>
    214c:	80 91 94 02 	lds	r24, 0x0294
    2150:	90 91 95 02 	lds	r25, 0x0295
    2154:	18 16       	cp	r1, r24
    2156:	19 06       	cpc	r1, r25
    2158:	14 f4       	brge	.+4      	; 0x215e <__vector_15+0x238>
    215a:	81 e0       	ldi	r24, 0x01	; 1
    215c:	01 c0       	rjmp	.+2      	; 0x2160 <__vector_15+0x23a>
    215e:	80 e0       	ldi	r24, 0x00	; 0
    2160:	88 23       	and	r24, r24
    2162:	21 f0       	breq	.+8      	; 0x216c <__vector_15+0x246>
    2164:	10 92 95 02 	sts	0x0295, r1
    2168:	10 92 94 02 	sts	0x0294, r1
    216c:	80 91 5a 02 	lds	r24, 0x025A
    2170:	88 23       	and	r24, r24
    2172:	49 f0       	breq	.+18     	; 0x2186 <__vector_15+0x260>
    2174:	80 91 96 02 	lds	r24, 0x0296
    2178:	90 91 97 02 	lds	r25, 0x0297
    217c:	89 32       	cpi	r24, 0x29	; 41
    217e:	91 05       	cpc	r25, r1
    2180:	14 f4       	brge	.+4      	; 0x2186 <__vector_15+0x260>
    2182:	81 e0       	ldi	r24, 0x01	; 1
    2184:	01 c0       	rjmp	.+2      	; 0x2188 <__vector_15+0x262>
    2186:	80 e0       	ldi	r24, 0x00	; 0
    2188:	88 23       	and	r24, r24
    218a:	51 f0       	breq	.+20     	; 0x21a0 <__vector_15+0x27a>
    218c:	80 91 96 02 	lds	r24, 0x0296
    2190:	90 91 97 02 	lds	r25, 0x0297
    2194:	01 96       	adiw	r24, 0x01	; 1
    2196:	90 93 97 02 	sts	0x0297, r25
    219a:	80 93 96 02 	sts	0x0296, r24
    219e:	35 c0       	rjmp	.+106    	; 0x220a <__stack+0xb>
    21a0:	80 91 5a 02 	lds	r24, 0x025A
    21a4:	88 23       	and	r24, r24
    21a6:	49 f0       	breq	.+18     	; 0x21ba <__vector_15+0x294>
    21a8:	80 91 96 02 	lds	r24, 0x0296
    21ac:	90 91 97 02 	lds	r25, 0x0297
    21b0:	89 32       	cpi	r24, 0x29	; 41
    21b2:	91 05       	cpc	r25, r1
    21b4:	14 f0       	brlt	.+4      	; 0x21ba <__vector_15+0x294>
    21b6:	81 e0       	ldi	r24, 0x01	; 1
    21b8:	01 c0       	rjmp	.+2      	; 0x21bc <__vector_15+0x296>
    21ba:	80 e0       	ldi	r24, 0x00	; 0
    21bc:	88 23       	and	r24, r24
    21be:	89 f0       	breq	.+34     	; 0x21e2 <__vector_15+0x2bc>
    21c0:	10 92 97 02 	sts	0x0297, r1
    21c4:	10 92 96 02 	sts	0x0296, r1
    21c8:	10 92 5a 02 	sts	0x025A, r1
    21cc:	80 91 5d 02 	lds	r24, 0x025D
    21d0:	88 23       	and	r24, r24
    21d2:	21 f4       	brne	.+8      	; 0x21dc <__vector_15+0x2b6>
    21d4:	81 e0       	ldi	r24, 0x01	; 1
    21d6:	80 93 5c 02 	sts	0x025C, r24
    21da:	17 c0       	rjmp	.+46     	; 0x220a <__stack+0xb>
    21dc:	10 92 5c 02 	sts	0x025C, r1
    21e0:	14 c0       	rjmp	.+40     	; 0x220a <__stack+0xb>
    21e2:	80 91 5a 02 	lds	r24, 0x025A
    21e6:	88 23       	and	r24, r24
    21e8:	49 f4       	brne	.+18     	; 0x21fc <__vector_15+0x2d6>
    21ea:	80 91 96 02 	lds	r24, 0x0296
    21ee:	90 91 97 02 	lds	r25, 0x0297
    21f2:	18 16       	cp	r1, r24
    21f4:	19 06       	cpc	r1, r25
    21f6:	14 f4       	brge	.+4      	; 0x21fc <__vector_15+0x2d6>
    21f8:	81 e0       	ldi	r24, 0x01	; 1
    21fa:	01 c0       	rjmp	.+2      	; 0x21fe <__vector_15+0x2d8>
    21fc:	80 e0       	ldi	r24, 0x00	; 0
    21fe:	88 23       	and	r24, r24
    2200:	21 f0       	breq	.+8      	; 0x220a <__stack+0xb>
    2202:	10 92 97 02 	sts	0x0297, r1
    2206:	10 92 96 02 	sts	0x0296, r1
    220a:	df 91       	pop	r29
    220c:	cf 91       	pop	r28
    220e:	ff 91       	pop	r31
    2210:	ef 91       	pop	r30
    2212:	bf 91       	pop	r27
    2214:	af 91       	pop	r26
    2216:	9f 91       	pop	r25
    2218:	8f 91       	pop	r24
    221a:	7f 91       	pop	r23
    221c:	6f 91       	pop	r22
    221e:	5f 91       	pop	r21
    2220:	4f 91       	pop	r20
    2222:	3f 91       	pop	r19
    2224:	2f 91       	pop	r18
    2226:	0f 90       	pop	r0
    2228:	00 92 5b 00 	sts	0x005B, r0
    222c:	0f 90       	pop	r0
    222e:	0f be       	out	0x3f, r0	; 63
    2230:	0f 90       	pop	r0
    2232:	1f 90       	pop	r1
    2234:	18 95       	reti

00002236 <__vector_25>:
    2236:	1f 92       	push	r1
    2238:	0f 92       	push	r0
    223a:	0f b6       	in	r0, 0x3f	; 63
    223c:	0f 92       	push	r0
    223e:	00 90 5b 00 	lds	r0, 0x005B
    2242:	0f 92       	push	r0
    2244:	11 24       	eor	r1, r1
    2246:	2f 93       	push	r18
    2248:	3f 93       	push	r19
    224a:	8f 93       	push	r24
    224c:	9f 93       	push	r25
    224e:	ef 93       	push	r30
    2250:	ff 93       	push	r31
    2252:	cf 93       	push	r28
    2254:	df 93       	push	r29
    2256:	cd b7       	in	r28, 0x3d	; 61
    2258:	de b7       	in	r29, 0x3e	; 62
    225a:	f8 94       	cli
    225c:	10 92 65 02 	sts	0x0265, r1
    2260:	81 ec       	ldi	r24, 0xC1	; 193
    2262:	90 e0       	ldi	r25, 0x00	; 0
    2264:	21 ec       	ldi	r18, 0xC1	; 193
    2266:	30 e0       	ldi	r19, 0x00	; 0
    2268:	f9 01       	movw	r30, r18
    226a:	20 81       	ld	r18, Z
    226c:	2f 77       	andi	r18, 0x7F	; 127
    226e:	fc 01       	movw	r30, r24
    2270:	20 83       	st	Z, r18
    2272:	81 e0       	ldi	r24, 0x01	; 1
    2274:	80 93 62 02 	sts	0x0262, r24
    2278:	78 94       	sei
    227a:	df 91       	pop	r29
    227c:	cf 91       	pop	r28
    227e:	ff 91       	pop	r31
    2280:	ef 91       	pop	r30
    2282:	9f 91       	pop	r25
    2284:	8f 91       	pop	r24
    2286:	3f 91       	pop	r19
    2288:	2f 91       	pop	r18
    228a:	0f 90       	pop	r0
    228c:	00 92 5b 00 	sts	0x005B, r0
    2290:	0f 90       	pop	r0
    2292:	0f be       	out	0x3f, r0	; 63
    2294:	0f 90       	pop	r0
    2296:	1f 90       	pop	r1
    2298:	18 95       	reti

0000229a <__vector_36>:
    229a:	1f 92       	push	r1
    229c:	0f 92       	push	r0
    229e:	0f b6       	in	r0, 0x3f	; 63
    22a0:	0f 92       	push	r0
    22a2:	00 90 5b 00 	lds	r0, 0x005B
    22a6:	0f 92       	push	r0
    22a8:	11 24       	eor	r1, r1
    22aa:	2f 93       	push	r18
    22ac:	3f 93       	push	r19
    22ae:	8f 93       	push	r24
    22b0:	9f 93       	push	r25
    22b2:	ef 93       	push	r30
    22b4:	ff 93       	push	r31
    22b6:	cf 93       	push	r28
    22b8:	df 93       	push	r29
    22ba:	cd b7       	in	r28, 0x3d	; 61
    22bc:	de b7       	in	r29, 0x3e	; 62
    22be:	f8 94       	cli
    22c0:	10 92 64 02 	sts	0x0264, r1
    22c4:	89 ec       	ldi	r24, 0xC9	; 201
    22c6:	90 e0       	ldi	r25, 0x00	; 0
    22c8:	29 ec       	ldi	r18, 0xC9	; 201
    22ca:	30 e0       	ldi	r19, 0x00	; 0
    22cc:	f9 01       	movw	r30, r18
    22ce:	20 81       	ld	r18, Z
    22d0:	2f 77       	andi	r18, 0x7F	; 127
    22d2:	fc 01       	movw	r30, r24
    22d4:	20 83       	st	Z, r18
    22d6:	81 e0       	ldi	r24, 0x01	; 1
    22d8:	80 93 60 02 	sts	0x0260, r24
    22dc:	78 94       	sei
    22de:	df 91       	pop	r29
    22e0:	cf 91       	pop	r28
    22e2:	ff 91       	pop	r31
    22e4:	ef 91       	pop	r30
    22e6:	9f 91       	pop	r25
    22e8:	8f 91       	pop	r24
    22ea:	3f 91       	pop	r19
    22ec:	2f 91       	pop	r18
    22ee:	0f 90       	pop	r0
    22f0:	00 92 5b 00 	sts	0x005B, r0
    22f4:	0f 90       	pop	r0
    22f6:	0f be       	out	0x3f, r0	; 63
    22f8:	0f 90       	pop	r0
    22fa:	1f 90       	pop	r1
    22fc:	18 95       	reti

000022fe <main>:
    22fe:	cf 93       	push	r28
    2300:	df 93       	push	r29
    2302:	0f 92       	push	r0
    2304:	cd b7       	in	r28, 0x3d	; 61
    2306:	de b7       	in	r29, 0x3e	; 62
    2308:	0e 94 1f 12 	call	0x243e	; 0x243e <_Z10DeviceInitv>
    230c:	87 e6       	ldi	r24, 0x67	; 103
    230e:	90 e0       	ldi	r25, 0x00	; 0
    2310:	0e 94 76 12 	call	0x24ec	; 0x24ec <_Z7AppInitj>
    2314:	0e 94 15 13 	call	0x262a	; 0x262a <_Z14EnableRTCTimerv>
    2318:	81 e0       	ldi	r24, 0x01	; 1
    231a:	61 e0       	ldi	r22, 0x01	; 1
    231c:	0e 94 c5 07 	call	0xf8a	; 0xf8a <_Z18getDateTime_eepromhh>
    2320:	78 94       	sei
    2322:	01 c0       	rjmp	.+2      	; 0x2326 <main+0x28>
    2324:	00 00       	nop
    2326:	80 91 60 02 	lds	r24, 0x0260
    232a:	88 23       	and	r24, r24
    232c:	79 f0       	breq	.+30     	; 0x234c <main+0x4e>
    232e:	80 91 5b 02 	lds	r24, 0x025B
    2332:	88 23       	and	r24, r24
    2334:	59 f4       	brne	.+22     	; 0x234c <main+0x4e>
    2336:	0e 94 6d 09 	call	0x12da	; 0x12da <_Z11ReceiveWAVRv>
    233a:	8d e3       	ldi	r24, 0x3D	; 61
    233c:	90 e0       	ldi	r25, 0x00	; 0
    233e:	2d e3       	ldi	r18, 0x3D	; 61
    2340:	30 e0       	ldi	r19, 0x00	; 0
    2342:	f9 01       	movw	r30, r18
    2344:	20 81       	ld	r18, Z
    2346:	23 60       	ori	r18, 0x03	; 3
    2348:	fc 01       	movw	r30, r24
    234a:	20 83       	st	Z, r18
    234c:	80 91 62 02 	lds	r24, 0x0262
    2350:	88 23       	and	r24, r24
    2352:	89 f0       	breq	.+34     	; 0x2376 <main+0x78>
    2354:	80 91 5b 02 	lds	r24, 0x025B
    2358:	88 23       	and	r24, r24
    235a:	69 f4       	brne	.+26     	; 0x2376 <main+0x78>
    235c:	0e 94 6d 0c 	call	0x18da	; 0x18da <_Z11ReceiveBonev>
    2360:	8d e3       	ldi	r24, 0x3D	; 61
    2362:	90 e0       	ldi	r25, 0x00	; 0
    2364:	2d e3       	ldi	r18, 0x3D	; 61
    2366:	30 e0       	ldi	r19, 0x00	; 0
    2368:	f9 01       	movw	r30, r18
    236a:	20 81       	ld	r18, Z
    236c:	23 60       	ori	r18, 0x03	; 3
    236e:	fc 01       	movw	r30, r24
    2370:	20 83       	st	Z, r18
    2372:	10 92 62 02 	sts	0x0262, r1
    2376:	80 91 61 02 	lds	r24, 0x0261
    237a:	88 23       	and	r24, r24
    237c:	d1 f0       	breq	.+52     	; 0x23b2 <main+0xb4>
    237e:	80 91 5b 02 	lds	r24, 0x025B
    2382:	88 23       	and	r24, r24
    2384:	b1 f4       	brne	.+44     	; 0x23b2 <main+0xb4>
    2386:	8d e3       	ldi	r24, 0x3D	; 61
    2388:	90 e0       	ldi	r25, 0x00	; 0
    238a:	2d e3       	ldi	r18, 0x3D	; 61
    238c:	30 e0       	ldi	r19, 0x00	; 0
    238e:	f9 01       	movw	r30, r18
    2390:	20 81       	ld	r18, Z
    2392:	2c 7f       	andi	r18, 0xFC	; 252
    2394:	fc 01       	movw	r30, r24
    2396:	20 83       	st	Z, r18
    2398:	80 91 5c 02 	lds	r24, 0x025C
    239c:	0e 94 74 0c 	call	0x18e8	; 0x18e8 <_Z8SendWAVRh>
    23a0:	8d e3       	ldi	r24, 0x3D	; 61
    23a2:	90 e0       	ldi	r25, 0x00	; 0
    23a4:	2d e3       	ldi	r18, 0x3D	; 61
    23a6:	30 e0       	ldi	r19, 0x00	; 0
    23a8:	f9 01       	movw	r30, r18
    23aa:	20 81       	ld	r18, Z
    23ac:	23 60       	ori	r18, 0x03	; 3
    23ae:	fc 01       	movw	r30, r24
    23b0:	20 83       	st	Z, r18
    23b2:	80 91 5c 02 	lds	r24, 0x025C
    23b6:	88 23       	and	r24, r24
    23b8:	a1 f0       	breq	.+40     	; 0x23e2 <main+0xe4>
    23ba:	80 91 64 02 	lds	r24, 0x0264
    23be:	88 23       	and	r24, r24
    23c0:	81 f4       	brne	.+32     	; 0x23e2 <main+0xe4>
    23c2:	80 91 5b 02 	lds	r24, 0x025B
    23c6:	88 23       	and	r24, r24
    23c8:	61 f4       	brne	.+24     	; 0x23e2 <main+0xe4>
    23ca:	19 82       	std	Y+1, r1	; 0x01
    23cc:	89 81       	ldd	r24, Y+1	; 0x01
    23ce:	88 23       	and	r24, r24
    23d0:	31 f0       	breq	.+12     	; 0x23de <main+0xe0>
    23d2:	81 e0       	ldi	r24, 0x01	; 1
    23d4:	80 93 61 02 	sts	0x0261, r24
    23d8:	10 92 5d 02 	sts	0x025D, r1
    23dc:	02 c0       	rjmp	.+4      	; 0x23e2 <main+0xe4>
    23de:	10 92 61 02 	sts	0x0261, r1
    23e2:	80 91 5b 02 	lds	r24, 0x025B
    23e6:	88 23       	and	r24, r24
    23e8:	79 f0       	breq	.+30     	; 0x2408 <main+0x10a>
    23ea:	83 e5       	ldi	r24, 0x53	; 83
    23ec:	90 e0       	ldi	r25, 0x00	; 0
    23ee:	24 e0       	ldi	r18, 0x04	; 4
    23f0:	fc 01       	movw	r30, r24
    23f2:	20 83       	st	Z, r18
    23f4:	83 e5       	ldi	r24, 0x53	; 83
    23f6:	90 e0       	ldi	r25, 0x00	; 0
    23f8:	23 e5       	ldi	r18, 0x53	; 83
    23fa:	30 e0       	ldi	r19, 0x00	; 0
    23fc:	f9 01       	movw	r30, r18
    23fe:	20 81       	ld	r18, Z
    2400:	21 60       	ori	r18, 0x01	; 1
    2402:	fc 01       	movw	r30, r24
    2404:	20 83       	st	Z, r18
    2406:	88 95       	sleep
    2408:	80 91 5f 02 	lds	r24, 0x025F
    240c:	88 23       	and	r24, r24
    240e:	19 f0       	breq	.+6      	; 0x2416 <main+0x118>
    2410:	81 e0       	ldi	r24, 0x01	; 1
    2412:	80 93 5e 02 	sts	0x025E, r24
    2416:	80 91 8e 02 	lds	r24, 0x028E
    241a:	88 23       	and	r24, r24
    241c:	29 f0       	breq	.+10     	; 0x2428 <main+0x12a>
    241e:	81 e0       	ldi	r24, 0x01	; 1
    2420:	80 93 61 02 	sts	0x0261, r24
    2424:	10 92 8e 02 	sts	0x028E, r1
    2428:	80 91 8f 02 	lds	r24, 0x028F
    242c:	88 23       	and	r24, r24
    242e:	09 f4       	brne	.+2      	; 0x2432 <main+0x134>
    2430:	79 cf       	rjmp	.-270    	; 0x2324 <main+0x26>
    2432:	10 92 8f 02 	sts	0x028F, r1
    2436:	81 e0       	ldi	r24, 0x01	; 1
    2438:	80 93 63 02 	sts	0x0263, r24
    243c:	73 cf       	rjmp	.-282    	; 0x2324 <main+0x26>

0000243e <_Z10DeviceInitv>:
    243e:	cf 93       	push	r28
    2440:	df 93       	push	r29
    2442:	cd b7       	in	r28, 0x3d	; 61
    2444:	de b7       	in	r29, 0x3e	; 62
    2446:	84 e2       	ldi	r24, 0x24	; 36
    2448:	90 e0       	ldi	r25, 0x00	; 0
    244a:	fc 01       	movw	r30, r24
    244c:	10 82       	st	Z, r1
    244e:	87 e2       	ldi	r24, 0x27	; 39
    2450:	90 e0       	ldi	r25, 0x00	; 0
    2452:	fc 01       	movw	r30, r24
    2454:	10 82       	st	Z, r1
    2456:	8a e2       	ldi	r24, 0x2A	; 42
    2458:	90 e0       	ldi	r25, 0x00	; 0
    245a:	fc 01       	movw	r30, r24
    245c:	10 82       	st	Z, r1
    245e:	8d e2       	ldi	r24, 0x2D	; 45
    2460:	90 e0       	ldi	r25, 0x00	; 0
    2462:	fc 01       	movw	r30, r24
    2464:	10 82       	st	Z, r1
    2466:	80 e3       	ldi	r24, 0x30	; 48
    2468:	90 e0       	ldi	r25, 0x00	; 0
    246a:	fc 01       	movw	r30, r24
    246c:	10 82       	st	Z, r1
    246e:	83 e3       	ldi	r24, 0x33	; 51
    2470:	90 e0       	ldi	r25, 0x00	; 0
    2472:	fc 01       	movw	r30, r24
    2474:	10 82       	st	Z, r1
    2476:	81 e0       	ldi	r24, 0x01	; 1
    2478:	91 e0       	ldi	r25, 0x01	; 1
    247a:	fc 01       	movw	r30, r24
    247c:	10 82       	st	Z, r1
    247e:	84 e0       	ldi	r24, 0x04	; 4
    2480:	91 e0       	ldi	r25, 0x01	; 1
    2482:	fc 01       	movw	r30, r24
    2484:	10 82       	st	Z, r1
    2486:	87 e0       	ldi	r24, 0x07	; 7
    2488:	91 e0       	ldi	r25, 0x01	; 1
    248a:	fc 01       	movw	r30, r24
    248c:	10 82       	st	Z, r1
    248e:	8a e0       	ldi	r24, 0x0A	; 10
    2490:	91 e0       	ldi	r25, 0x01	; 1
    2492:	fc 01       	movw	r30, r24
    2494:	10 82       	st	Z, r1
    2496:	85 e2       	ldi	r24, 0x25	; 37
    2498:	90 e0       	ldi	r25, 0x00	; 0
    249a:	fc 01       	movw	r30, r24
    249c:	10 82       	st	Z, r1
    249e:	88 e2       	ldi	r24, 0x28	; 40
    24a0:	90 e0       	ldi	r25, 0x00	; 0
    24a2:	fc 01       	movw	r30, r24
    24a4:	10 82       	st	Z, r1
    24a6:	8b e2       	ldi	r24, 0x2B	; 43
    24a8:	90 e0       	ldi	r25, 0x00	; 0
    24aa:	fc 01       	movw	r30, r24
    24ac:	10 82       	st	Z, r1
    24ae:	8e e2       	ldi	r24, 0x2E	; 46
    24b0:	90 e0       	ldi	r25, 0x00	; 0
    24b2:	fc 01       	movw	r30, r24
    24b4:	10 82       	st	Z, r1
    24b6:	81 e3       	ldi	r24, 0x31	; 49
    24b8:	90 e0       	ldi	r25, 0x00	; 0
    24ba:	fc 01       	movw	r30, r24
    24bc:	10 82       	st	Z, r1
    24be:	84 e3       	ldi	r24, 0x34	; 52
    24c0:	90 e0       	ldi	r25, 0x00	; 0
    24c2:	fc 01       	movw	r30, r24
    24c4:	10 82       	st	Z, r1
    24c6:	82 e0       	ldi	r24, 0x02	; 2
    24c8:	91 e0       	ldi	r25, 0x01	; 1
    24ca:	fc 01       	movw	r30, r24
    24cc:	10 82       	st	Z, r1
    24ce:	85 e0       	ldi	r24, 0x05	; 5
    24d0:	91 e0       	ldi	r25, 0x01	; 1
    24d2:	fc 01       	movw	r30, r24
    24d4:	10 82       	st	Z, r1
    24d6:	88 e0       	ldi	r24, 0x08	; 8
    24d8:	91 e0       	ldi	r25, 0x01	; 1
    24da:	fc 01       	movw	r30, r24
    24dc:	10 82       	st	Z, r1
    24de:	8b e0       	ldi	r24, 0x0B	; 11
    24e0:	91 e0       	ldi	r25, 0x01	; 1
    24e2:	fc 01       	movw	r30, r24
    24e4:	10 82       	st	Z, r1
    24e6:	df 91       	pop	r29
    24e8:	cf 91       	pop	r28
    24ea:	08 95       	ret

000024ec <_Z7AppInitj>:
    24ec:	cf 93       	push	r28
    24ee:	df 93       	push	r29
    24f0:	0f 92       	push	r0
    24f2:	0f 92       	push	r0
    24f4:	cd b7       	in	r28, 0x3d	; 61
    24f6:	de b7       	in	r29, 0x3e	; 62
    24f8:	9a 83       	std	Y+2, r25	; 0x02
    24fa:	89 83       	std	Y+1, r24	; 0x01
    24fc:	84 ec       	ldi	r24, 0xC4	; 196
    24fe:	90 e0       	ldi	r25, 0x00	; 0
    2500:	29 81       	ldd	r18, Y+1	; 0x01
    2502:	fc 01       	movw	r30, r24
    2504:	20 83       	st	Z, r18
    2506:	85 ec       	ldi	r24, 0xC5	; 197
    2508:	90 e0       	ldi	r25, 0x00	; 0
    250a:	29 81       	ldd	r18, Y+1	; 0x01
    250c:	3a 81       	ldd	r19, Y+2	; 0x02
    250e:	23 2f       	mov	r18, r19
    2510:	33 27       	eor	r19, r19
    2512:	fc 01       	movw	r30, r24
    2514:	20 83       	st	Z, r18
    2516:	8c ec       	ldi	r24, 0xCC	; 204
    2518:	90 e0       	ldi	r25, 0x00	; 0
    251a:	29 81       	ldd	r18, Y+1	; 0x01
    251c:	fc 01       	movw	r30, r24
    251e:	20 83       	st	Z, r18
    2520:	8d ec       	ldi	r24, 0xCD	; 205
    2522:	90 e0       	ldi	r25, 0x00	; 0
    2524:	29 81       	ldd	r18, Y+1	; 0x01
    2526:	3a 81       	ldd	r19, Y+2	; 0x02
    2528:	23 2f       	mov	r18, r19
    252a:	33 27       	eor	r19, r19
    252c:	fc 01       	movw	r30, r24
    252e:	20 83       	st	Z, r18
    2530:	81 ec       	ldi	r24, 0xC1	; 193
    2532:	90 e0       	ldi	r25, 0x00	; 0
    2534:	28 e1       	ldi	r18, 0x18	; 24
    2536:	fc 01       	movw	r30, r24
    2538:	20 83       	st	Z, r18
    253a:	82 ec       	ldi	r24, 0xC2	; 194
    253c:	90 e0       	ldi	r25, 0x00	; 0
    253e:	26 e0       	ldi	r18, 0x06	; 6
    2540:	fc 01       	movw	r30, r24
    2542:	20 83       	st	Z, r18
    2544:	89 ec       	ldi	r24, 0xC9	; 201
    2546:	90 e0       	ldi	r25, 0x00	; 0
    2548:	28 e1       	ldi	r18, 0x18	; 24
    254a:	fc 01       	movw	r30, r24
    254c:	20 83       	st	Z, r18
    254e:	8a ec       	ldi	r24, 0xCA	; 202
    2550:	90 e0       	ldi	r25, 0x00	; 0
    2552:	26 e0       	ldi	r18, 0x06	; 6
    2554:	fc 01       	movw	r30, r24
    2556:	20 83       	st	Z, r18
    2558:	8a e0       	ldi	r24, 0x0A	; 10
    255a:	91 e0       	ldi	r25, 0x01	; 1
    255c:	2f ef       	ldi	r18, 0xFF	; 255
    255e:	fc 01       	movw	r30, r24
    2560:	20 83       	st	Z, r18
    2562:	8b e0       	ldi	r24, 0x0B	; 11
    2564:	91 e0       	ldi	r25, 0x01	; 1
    2566:	fc 01       	movw	r30, r24
    2568:	10 82       	st	Z, r1
    256a:	84 e2       	ldi	r24, 0x24	; 36
    256c:	90 e0       	ldi	r25, 0x00	; 0
    256e:	24 e2       	ldi	r18, 0x24	; 36
    2570:	30 e0       	ldi	r19, 0x00	; 0
    2572:	f9 01       	movw	r30, r18
    2574:	20 81       	ld	r18, Z
    2576:	20 6e       	ori	r18, 0xE0	; 224
    2578:	fc 01       	movw	r30, r24
    257a:	20 83       	st	Z, r18
    257c:	85 e2       	ldi	r24, 0x25	; 37
    257e:	90 e0       	ldi	r25, 0x00	; 0
    2580:	25 e2       	ldi	r18, 0x25	; 37
    2582:	30 e0       	ldi	r19, 0x00	; 0
    2584:	f9 01       	movw	r30, r18
    2586:	20 81       	ld	r18, Z
    2588:	2f 71       	andi	r18, 0x1F	; 31
    258a:	fc 01       	movw	r30, r24
    258c:	20 83       	st	Z, r18
    258e:	84 e6       	ldi	r24, 0x64	; 100
    2590:	90 e0       	ldi	r25, 0x00	; 0
    2592:	24 e6       	ldi	r18, 0x64	; 100
    2594:	30 e0       	ldi	r19, 0x00	; 0
    2596:	f9 01       	movw	r30, r18
    2598:	20 81       	ld	r18, Z
    259a:	2d 6e       	ori	r18, 0xED	; 237
    259c:	fc 01       	movw	r30, r24
    259e:	20 83       	st	Z, r18
    25a0:	89 e6       	ldi	r24, 0x69	; 105
    25a2:	90 e0       	ldi	r25, 0x00	; 0
    25a4:	29 e6       	ldi	r18, 0x69	; 105
    25a6:	30 e0       	ldi	r19, 0x00	; 0
    25a8:	f9 01       	movw	r30, r18
    25aa:	20 81       	ld	r18, Z
    25ac:	2f 60       	ori	r18, 0x0F	; 15
    25ae:	fc 01       	movw	r30, r24
    25b0:	20 83       	st	Z, r18
    25b2:	8a e6       	ldi	r24, 0x6A	; 106
    25b4:	90 e0       	ldi	r25, 0x00	; 0
    25b6:	20 ef       	ldi	r18, 0xF0	; 240
    25b8:	fc 01       	movw	r30, r24
    25ba:	20 83       	st	Z, r18
    25bc:	8d e3       	ldi	r24, 0x3D	; 61
    25be:	90 e0       	ldi	r25, 0x00	; 0
    25c0:	2d e3       	ldi	r18, 0x3D	; 61
    25c2:	30 e0       	ldi	r19, 0x00	; 0
    25c4:	f9 01       	movw	r30, r18
    25c6:	20 81       	ld	r18, Z
    25c8:	2c 7f       	andi	r18, 0xFC	; 252
    25ca:	fc 01       	movw	r30, r24
    25cc:	20 83       	st	Z, r18
    25ce:	8d e3       	ldi	r24, 0x3D	; 61
    25d0:	90 e0       	ldi	r25, 0x00	; 0
    25d2:	2d e3       	ldi	r18, 0x3D	; 61
    25d4:	30 e0       	ldi	r19, 0x00	; 0
    25d6:	f9 01       	movw	r30, r18
    25d8:	20 81       	ld	r18, Z
    25da:	2f 7b       	andi	r18, 0xBF	; 191
    25dc:	fc 01       	movw	r30, r24
    25de:	20 83       	st	Z, r18
    25e0:	8d e3       	ldi	r24, 0x3D	; 61
    25e2:	90 e0       	ldi	r25, 0x00	; 0
    25e4:	2d e3       	ldi	r18, 0x3D	; 61
    25e6:	30 e0       	ldi	r19, 0x00	; 0
    25e8:	f9 01       	movw	r30, r18
    25ea:	20 81       	ld	r18, Z
    25ec:	20 68       	ori	r18, 0x80	; 128
    25ee:	fc 01       	movw	r30, r24
    25f0:	20 83       	st	Z, r18
    25f2:	81 e0       	ldi	r24, 0x01	; 1
    25f4:	80 93 5a 02 	sts	0x025A, r24
    25f8:	10 92 60 02 	sts	0x0260, r1
    25fc:	10 92 62 02 	sts	0x0262, r1
    2600:	10 92 64 02 	sts	0x0264, r1
    2604:	10 92 65 02 	sts	0x0265, r1
    2608:	10 92 5c 02 	sts	0x025C, r1
    260c:	10 92 61 02 	sts	0x0261, r1
    2610:	10 92 63 02 	sts	0x0263, r1
    2614:	10 92 5d 02 	sts	0x025D, r1
    2618:	10 92 5b 02 	sts	0x025B, r1
    261c:	10 92 5e 02 	sts	0x025E, r1
    2620:	0f 90       	pop	r0
    2622:	0f 90       	pop	r0
    2624:	df 91       	pop	r29
    2626:	cf 91       	pop	r28
    2628:	08 95       	ret

0000262a <_Z14EnableRTCTimerv>:
    262a:	cf 93       	push	r28
    262c:	df 93       	push	r29
    262e:	cd b7       	in	r28, 0x3d	; 61
    2630:	de b7       	in	r29, 0x3e	; 62
    2632:	84 e6       	ldi	r24, 0x64	; 100
    2634:	90 e0       	ldi	r25, 0x00	; 0
    2636:	24 e6       	ldi	r18, 0x64	; 100
    2638:	30 e0       	ldi	r19, 0x00	; 0
    263a:	f9 01       	movw	r30, r18
    263c:	20 81       	ld	r18, Z
    263e:	2f 7b       	andi	r18, 0xBF	; 191
    2640:	fc 01       	movw	r30, r24
    2642:	20 83       	st	Z, r18
    2644:	81 e0       	ldi	r24, 0x01	; 1
    2646:	90 e0       	ldi	r25, 0x00	; 0
    2648:	0e 94 53 13 	call	0x26a6	; 0x26a6 <_Z7Wait_msi>
    264c:	86 eb       	ldi	r24, 0xB6	; 182
    264e:	90 e0       	ldi	r25, 0x00	; 0
    2650:	26 eb       	ldi	r18, 0xB6	; 182
    2652:	30 e0       	ldi	r19, 0x00	; 0
    2654:	f9 01       	movw	r30, r18
    2656:	20 81       	ld	r18, Z
    2658:	20 62       	ori	r18, 0x20	; 32
    265a:	fc 01       	movw	r30, r24
    265c:	20 83       	st	Z, r18
    265e:	81 eb       	ldi	r24, 0xB1	; 177
    2660:	90 e0       	ldi	r25, 0x00	; 0
    2662:	21 eb       	ldi	r18, 0xB1	; 177
    2664:	30 e0       	ldi	r19, 0x00	; 0
    2666:	f9 01       	movw	r30, r18
    2668:	20 81       	ld	r18, Z
    266a:	25 60       	ori	r18, 0x05	; 5
    266c:	fc 01       	movw	r30, r24
    266e:	20 83       	st	Z, r18
    2670:	86 eb       	ldi	r24, 0xB6	; 182
    2672:	90 e0       	ldi	r25, 0x00	; 0
    2674:	fc 01       	movw	r30, r24
    2676:	80 81       	ld	r24, Z
    2678:	88 2f       	mov	r24, r24
    267a:	90 e0       	ldi	r25, 0x00	; 0
    267c:	81 71       	andi	r24, 0x11	; 17
    267e:	90 70       	andi	r25, 0x00	; 0
    2680:	21 e0       	ldi	r18, 0x01	; 1
    2682:	00 97       	sbiw	r24, 0x00	; 0
    2684:	09 f4       	brne	.+2      	; 0x2688 <_Z14EnableRTCTimerv+0x5e>
    2686:	20 e0       	ldi	r18, 0x00	; 0
    2688:	22 23       	and	r18, r18
    268a:	91 f7       	brne	.-28     	; 0x2670 <_Z14EnableRTCTimerv+0x46>
    268c:	87 e3       	ldi	r24, 0x37	; 55
    268e:	90 e0       	ldi	r25, 0x00	; 0
    2690:	21 e0       	ldi	r18, 0x01	; 1
    2692:	fc 01       	movw	r30, r24
    2694:	20 83       	st	Z, r18
    2696:	80 e7       	ldi	r24, 0x70	; 112
    2698:	90 e0       	ldi	r25, 0x00	; 0
    269a:	21 e0       	ldi	r18, 0x01	; 1
    269c:	fc 01       	movw	r30, r24
    269e:	20 83       	st	Z, r18
    26a0:	df 91       	pop	r29
    26a2:	cf 91       	pop	r28
    26a4:	08 95       	ret

000026a6 <_Z7Wait_msi>:
    26a6:	cf 93       	push	r28
    26a8:	df 93       	push	r29
    26aa:	00 d0       	rcall	.+0      	; 0x26ac <_Z7Wait_msi+0x6>
    26ac:	0f 92       	push	r0
    26ae:	cd b7       	in	r28, 0x3d	; 61
    26b0:	de b7       	in	r29, 0x3e	; 62
    26b2:	9c 83       	std	Y+4, r25	; 0x04
    26b4:	8b 83       	std	Y+3, r24	; 0x03
    26b6:	18 c0       	rjmp	.+48     	; 0x26e8 <_Z7Wait_msi+0x42>
    26b8:	1a 82       	std	Y+2, r1	; 0x02
    26ba:	19 82       	std	Y+1, r1	; 0x01
    26bc:	06 c0       	rjmp	.+12     	; 0x26ca <_Z7Wait_msi+0x24>
    26be:	00 00       	nop
    26c0:	89 81       	ldd	r24, Y+1	; 0x01
    26c2:	9a 81       	ldd	r25, Y+2	; 0x02
    26c4:	01 96       	adiw	r24, 0x01	; 1
    26c6:	9a 83       	std	Y+2, r25	; 0x02
    26c8:	89 83       	std	Y+1, r24	; 0x01
    26ca:	89 81       	ldd	r24, Y+1	; 0x01
    26cc:	9a 81       	ldd	r25, Y+2	; 0x02
    26ce:	21 e0       	ldi	r18, 0x01	; 1
    26d0:	33 e0       	ldi	r19, 0x03	; 3
    26d2:	80 32       	cpi	r24, 0x20	; 32
    26d4:	93 07       	cpc	r25, r19
    26d6:	0c f0       	brlt	.+2      	; 0x26da <_Z7Wait_msi+0x34>
    26d8:	20 e0       	ldi	r18, 0x00	; 0
    26da:	22 23       	and	r18, r18
    26dc:	81 f7       	brne	.-32     	; 0x26be <_Z7Wait_msi+0x18>
    26de:	8b 81       	ldd	r24, Y+3	; 0x03
    26e0:	9c 81       	ldd	r25, Y+4	; 0x04
    26e2:	01 97       	sbiw	r24, 0x01	; 1
    26e4:	9c 83       	std	Y+4, r25	; 0x04
    26e6:	8b 83       	std	Y+3, r24	; 0x03
    26e8:	8b 81       	ldd	r24, Y+3	; 0x03
    26ea:	9c 81       	ldd	r25, Y+4	; 0x04
    26ec:	21 e0       	ldi	r18, 0x01	; 1
    26ee:	18 16       	cp	r1, r24
    26f0:	19 06       	cpc	r1, r25
    26f2:	0c f0       	brlt	.+2      	; 0x26f6 <_Z7Wait_msi+0x50>
    26f4:	20 e0       	ldi	r18, 0x00	; 0
    26f6:	22 23       	and	r18, r18
    26f8:	f9 f6       	brne	.-66     	; 0x26b8 <_Z7Wait_msi+0x12>
    26fa:	0f 90       	pop	r0
    26fc:	0f 90       	pop	r0
    26fe:	0f 90       	pop	r0
    2700:	0f 90       	pop	r0
    2702:	df 91       	pop	r29
    2704:	cf 91       	pop	r28
    2706:	08 95       	ret

00002708 <_Z8Wait_seci>:
    2708:	cf 93       	push	r28
    270a:	df 93       	push	r29
    270c:	00 d0       	rcall	.+0      	; 0x270e <_Z8Wait_seci+0x6>
    270e:	00 d0       	rcall	.+0      	; 0x2710 <_Z8Wait_seci+0x8>
    2710:	cd b7       	in	r28, 0x3d	; 61
    2712:	de b7       	in	r29, 0x3e	; 62
    2714:	9e 83       	std	Y+6, r25	; 0x06
    2716:	8d 83       	std	Y+5, r24	; 0x05
    2718:	86 e6       	ldi	r24, 0x66	; 102
    271a:	92 e0       	ldi	r25, 0x02	; 2
    271c:	0e 94 d3 04 	call	0x9a6	; 0x9a6 <_ZN6myTime10getSecondsEv>
    2720:	88 2f       	mov	r24, r24
    2722:	90 e0       	ldi	r25, 0x00	; 0
    2724:	9a 83       	std	Y+2, r25	; 0x02
    2726:	89 83       	std	Y+1, r24	; 0x01
    2728:	29 81       	ldd	r18, Y+1	; 0x01
    272a:	3a 81       	ldd	r19, Y+2	; 0x02
    272c:	8d 81       	ldd	r24, Y+5	; 0x05
    272e:	9e 81       	ldd	r25, Y+6	; 0x06
    2730:	82 0f       	add	r24, r18
    2732:	93 1f       	adc	r25, r19
    2734:	2c e3       	ldi	r18, 0x3C	; 60
    2736:	30 e0       	ldi	r19, 0x00	; 0
    2738:	b9 01       	movw	r22, r18
    273a:	0e 94 e8 13 	call	0x27d0	; 0x27d0 <__divmodhi4>
    273e:	9c 83       	std	Y+4, r25	; 0x04
    2740:	8b 83       	std	Y+3, r24	; 0x03
    2742:	01 c0       	rjmp	.+2      	; 0x2746 <_Z8Wait_seci+0x3e>
    2744:	00 00       	nop
    2746:	86 e6       	ldi	r24, 0x66	; 102
    2748:	92 e0       	ldi	r25, 0x02	; 2
    274a:	0e 94 d3 04 	call	0x9a6	; 0x9a6 <_ZN6myTime10getSecondsEv>
    274e:	28 2f       	mov	r18, r24
    2750:	30 e0       	ldi	r19, 0x00	; 0
    2752:	8b 81       	ldd	r24, Y+3	; 0x03
    2754:	9c 81       	ldd	r25, Y+4	; 0x04
    2756:	41 e0       	ldi	r20, 0x01	; 1
    2758:	28 17       	cp	r18, r24
    275a:	39 07       	cpc	r19, r25
    275c:	09 f4       	brne	.+2      	; 0x2760 <_Z8Wait_seci+0x58>
    275e:	40 e0       	ldi	r20, 0x00	; 0
    2760:	44 23       	and	r20, r20
    2762:	81 f7       	brne	.-32     	; 0x2744 <_Z8Wait_seci+0x3c>
    2764:	26 96       	adiw	r28, 0x06	; 6
    2766:	0f b6       	in	r0, 0x3f	; 63
    2768:	f8 94       	cli
    276a:	de bf       	out	0x3e, r29	; 62
    276c:	0f be       	out	0x3f, r0	; 63
    276e:	cd bf       	out	0x3d, r28	; 61
    2770:	df 91       	pop	r29
    2772:	cf 91       	pop	r28
    2774:	08 95       	ret

00002776 <_Z41__static_initialization_and_destruction_0ii>:
    2776:	cf 93       	push	r28
    2778:	df 93       	push	r29
    277a:	00 d0       	rcall	.+0      	; 0x277c <_Z41__static_initialization_and_destruction_0ii+0x6>
    277c:	0f 92       	push	r0
    277e:	cd b7       	in	r28, 0x3d	; 61
    2780:	de b7       	in	r29, 0x3e	; 62
    2782:	9a 83       	std	Y+2, r25	; 0x02
    2784:	89 83       	std	Y+1, r24	; 0x01
    2786:	7c 83       	std	Y+4, r23	; 0x04
    2788:	6b 83       	std	Y+3, r22	; 0x03
    278a:	89 81       	ldd	r24, Y+1	; 0x01
    278c:	9a 81       	ldd	r25, Y+2	; 0x02
    278e:	81 30       	cpi	r24, 0x01	; 1
    2790:	91 05       	cpc	r25, r1
    2792:	51 f4       	brne	.+20     	; 0x27a8 <_Z41__static_initialization_and_destruction_0ii+0x32>
    2794:	8b 81       	ldd	r24, Y+3	; 0x03
    2796:	9c 81       	ldd	r25, Y+4	; 0x04
    2798:	2f ef       	ldi	r18, 0xFF	; 255
    279a:	8f 3f       	cpi	r24, 0xFF	; 255
    279c:	92 07       	cpc	r25, r18
    279e:	21 f4       	brne	.+8      	; 0x27a8 <_Z41__static_initialization_and_destruction_0ii+0x32>
    27a0:	86 e6       	ldi	r24, 0x66	; 102
    27a2:	92 e0       	ldi	r25, 0x02	; 2
    27a4:	0e 94 4e 04 	call	0x89c	; 0x89c <_ZN6myTimeC1Ev>
    27a8:	0f 90       	pop	r0
    27aa:	0f 90       	pop	r0
    27ac:	0f 90       	pop	r0
    27ae:	0f 90       	pop	r0
    27b0:	df 91       	pop	r29
    27b2:	cf 91       	pop	r28
    27b4:	08 95       	ret

000027b6 <_GLOBAL__sub_I__ZN6myDateC2Ev>:
    27b6:	cf 93       	push	r28
    27b8:	df 93       	push	r29
    27ba:	cd b7       	in	r28, 0x3d	; 61
    27bc:	de b7       	in	r29, 0x3e	; 62
    27be:	81 e0       	ldi	r24, 0x01	; 1
    27c0:	90 e0       	ldi	r25, 0x00	; 0
    27c2:	6f ef       	ldi	r22, 0xFF	; 255
    27c4:	7f ef       	ldi	r23, 0xFF	; 255
    27c6:	0e 94 bb 13 	call	0x2776	; 0x2776 <_Z41__static_initialization_and_destruction_0ii>
    27ca:	df 91       	pop	r29
    27cc:	cf 91       	pop	r28
    27ce:	08 95       	ret

000027d0 <__divmodhi4>:
    27d0:	97 fb       	bst	r25, 7
    27d2:	09 2e       	mov	r0, r25
    27d4:	07 26       	eor	r0, r23
    27d6:	0a d0       	rcall	.+20     	; 0x27ec <__divmodhi4_neg1>
    27d8:	77 fd       	sbrc	r23, 7
    27da:	04 d0       	rcall	.+8      	; 0x27e4 <__divmodhi4_neg2>
    27dc:	0c d0       	rcall	.+24     	; 0x27f6 <__udivmodhi4>
    27de:	06 d0       	rcall	.+12     	; 0x27ec <__divmodhi4_neg1>
    27e0:	00 20       	and	r0, r0
    27e2:	1a f4       	brpl	.+6      	; 0x27ea <__divmodhi4_exit>

000027e4 <__divmodhi4_neg2>:
    27e4:	70 95       	com	r23
    27e6:	61 95       	neg	r22
    27e8:	7f 4f       	sbci	r23, 0xFF	; 255

000027ea <__divmodhi4_exit>:
    27ea:	08 95       	ret

000027ec <__divmodhi4_neg1>:
    27ec:	f6 f7       	brtc	.-4      	; 0x27ea <__divmodhi4_exit>
    27ee:	90 95       	com	r25
    27f0:	81 95       	neg	r24
    27f2:	9f 4f       	sbci	r25, 0xFF	; 255
    27f4:	08 95       	ret

000027f6 <__udivmodhi4>:
    27f6:	aa 1b       	sub	r26, r26
    27f8:	bb 1b       	sub	r27, r27
    27fa:	51 e1       	ldi	r21, 0x11	; 17
    27fc:	07 c0       	rjmp	.+14     	; 0x280c <__udivmodhi4_ep>

000027fe <__udivmodhi4_loop>:
    27fe:	aa 1f       	adc	r26, r26
    2800:	bb 1f       	adc	r27, r27
    2802:	a6 17       	cp	r26, r22
    2804:	b7 07       	cpc	r27, r23
    2806:	10 f0       	brcs	.+4      	; 0x280c <__udivmodhi4_ep>
    2808:	a6 1b       	sub	r26, r22
    280a:	b7 0b       	sbc	r27, r23

0000280c <__udivmodhi4_ep>:
    280c:	88 1f       	adc	r24, r24
    280e:	99 1f       	adc	r25, r25
    2810:	5a 95       	dec	r21
    2812:	a9 f7       	brne	.-22     	; 0x27fe <__udivmodhi4_loop>
    2814:	80 95       	com	r24
    2816:	90 95       	com	r25
    2818:	bc 01       	movw	r22, r24
    281a:	cd 01       	movw	r24, r26
    281c:	08 95       	ret

0000281e <__tablejump_elpm__>:
    281e:	07 90       	elpm	r0, Z+
    2820:	f6 91       	elpm	r31, Z
    2822:	e0 2d       	mov	r30, r0
    2824:	19 94       	eijmp

00002826 <atoi>:
    2826:	fc 01       	movw	r30, r24
    2828:	88 27       	eor	r24, r24
    282a:	99 27       	eor	r25, r25
    282c:	e8 94       	clt
    282e:	21 91       	ld	r18, Z+
    2830:	20 32       	cpi	r18, 0x20	; 32
    2832:	e9 f3       	breq	.-6      	; 0x282e <atoi+0x8>
    2834:	29 30       	cpi	r18, 0x09	; 9
    2836:	10 f0       	brcs	.+4      	; 0x283c <atoi+0x16>
    2838:	2e 30       	cpi	r18, 0x0E	; 14
    283a:	c8 f3       	brcs	.-14     	; 0x282e <atoi+0x8>
    283c:	2b 32       	cpi	r18, 0x2B	; 43
    283e:	41 f0       	breq	.+16     	; 0x2850 <atoi+0x2a>
    2840:	2d 32       	cpi	r18, 0x2D	; 45
    2842:	39 f4       	brne	.+14     	; 0x2852 <atoi+0x2c>
    2844:	68 94       	set
    2846:	04 c0       	rjmp	.+8      	; 0x2850 <atoi+0x2a>
    2848:	0e 94 7b 14 	call	0x28f6	; 0x28f6 <__mulhi_const_10>
    284c:	82 0f       	add	r24, r18
    284e:	91 1d       	adc	r25, r1
    2850:	21 91       	ld	r18, Z+
    2852:	20 53       	subi	r18, 0x30	; 48
    2854:	2a 30       	cpi	r18, 0x0A	; 10
    2856:	c0 f3       	brcs	.-16     	; 0x2848 <atoi+0x22>
    2858:	1e f4       	brtc	.+6      	; 0x2860 <atoi+0x3a>
    285a:	90 95       	com	r25
    285c:	81 95       	neg	r24
    285e:	9f 4f       	sbci	r25, 0xFF	; 255
    2860:	08 95       	ret

00002862 <strcat>:
    2862:	fb 01       	movw	r30, r22
    2864:	dc 01       	movw	r26, r24
    2866:	0d 90       	ld	r0, X+
    2868:	00 20       	and	r0, r0
    286a:	e9 f7       	brne	.-6      	; 0x2866 <strcat+0x4>
    286c:	11 97       	sbiw	r26, 0x01	; 1
    286e:	01 90       	ld	r0, Z+
    2870:	0d 92       	st	X+, r0
    2872:	00 20       	and	r0, r0
    2874:	e1 f7       	brne	.-8      	; 0x286e <strcat+0xc>
    2876:	08 95       	ret

00002878 <strcmp>:
    2878:	fb 01       	movw	r30, r22
    287a:	dc 01       	movw	r26, r24
    287c:	8d 91       	ld	r24, X+
    287e:	01 90       	ld	r0, Z+
    2880:	80 19       	sub	r24, r0
    2882:	01 10       	cpse	r0, r1
    2884:	d9 f3       	breq	.-10     	; 0x287c <strcmp+0x4>
    2886:	99 0b       	sbc	r25, r25
    2888:	08 95       	ret

0000288a <strcpy>:
    288a:	fb 01       	movw	r30, r22
    288c:	dc 01       	movw	r26, r24
    288e:	01 90       	ld	r0, Z+
    2890:	0d 92       	st	X+, r0
    2892:	00 20       	and	r0, r0
    2894:	e1 f7       	brne	.-8      	; 0x288e <strcpy+0x4>
    2896:	08 95       	ret

00002898 <strncmp>:
    2898:	fb 01       	movw	r30, r22
    289a:	dc 01       	movw	r26, r24
    289c:	41 50       	subi	r20, 0x01	; 1
    289e:	50 40       	sbci	r21, 0x00	; 0
    28a0:	30 f0       	brcs	.+12     	; 0x28ae <strncmp+0x16>
    28a2:	8d 91       	ld	r24, X+
    28a4:	01 90       	ld	r0, Z+
    28a6:	80 19       	sub	r24, r0
    28a8:	19 f4       	brne	.+6      	; 0x28b0 <strncmp+0x18>
    28aa:	00 20       	and	r0, r0
    28ac:	b9 f7       	brne	.-18     	; 0x289c <strncmp+0x4>
    28ae:	88 1b       	sub	r24, r24
    28b0:	99 0b       	sbc	r25, r25
    28b2:	08 95       	ret

000028b4 <itoa>:
    28b4:	fb 01       	movw	r30, r22
    28b6:	9f 01       	movw	r18, r30
    28b8:	e8 94       	clt
    28ba:	42 30       	cpi	r20, 0x02	; 2
    28bc:	c4 f0       	brlt	.+48     	; 0x28ee <itoa+0x3a>
    28be:	45 32       	cpi	r20, 0x25	; 37
    28c0:	b4 f4       	brge	.+44     	; 0x28ee <itoa+0x3a>
    28c2:	4a 30       	cpi	r20, 0x0A	; 10
    28c4:	29 f4       	brne	.+10     	; 0x28d0 <itoa+0x1c>
    28c6:	97 fb       	bst	r25, 7
    28c8:	1e f4       	brtc	.+6      	; 0x28d0 <itoa+0x1c>
    28ca:	90 95       	com	r25
    28cc:	81 95       	neg	r24
    28ce:	9f 4f       	sbci	r25, 0xFF	; 255
    28d0:	64 2f       	mov	r22, r20
    28d2:	77 27       	eor	r23, r23
    28d4:	0e 94 fb 13 	call	0x27f6	; 0x27f6 <__udivmodhi4>
    28d8:	80 5d       	subi	r24, 0xD0	; 208
    28da:	8a 33       	cpi	r24, 0x3A	; 58
    28dc:	0c f0       	brlt	.+2      	; 0x28e0 <itoa+0x2c>
    28de:	89 5d       	subi	r24, 0xD9	; 217
    28e0:	81 93       	st	Z+, r24
    28e2:	cb 01       	movw	r24, r22
    28e4:	00 97       	sbiw	r24, 0x00	; 0
    28e6:	a1 f7       	brne	.-24     	; 0x28d0 <itoa+0x1c>
    28e8:	16 f4       	brtc	.+4      	; 0x28ee <itoa+0x3a>
    28ea:	5d e2       	ldi	r21, 0x2D	; 45
    28ec:	51 93       	st	Z+, r21
    28ee:	10 82       	st	Z, r1
    28f0:	c9 01       	movw	r24, r18
    28f2:	0c 94 a4 14 	jmp	0x2948	; 0x2948 <strrev>

000028f6 <__mulhi_const_10>:
    28f6:	7a e0       	ldi	r23, 0x0A	; 10
    28f8:	97 9f       	mul	r25, r23
    28fa:	90 2d       	mov	r25, r0
    28fc:	87 9f       	mul	r24, r23
    28fe:	80 2d       	mov	r24, r0
    2900:	91 0d       	add	r25, r1
    2902:	11 24       	eor	r1, r1
    2904:	08 95       	ret

00002906 <__eerd_byte_m2560>:
    2906:	f9 99       	sbic	0x1f, 1	; 31
    2908:	fe cf       	rjmp	.-4      	; 0x2906 <__eerd_byte_m2560>
    290a:	92 bd       	out	0x22, r25	; 34
    290c:	81 bd       	out	0x21, r24	; 33
    290e:	f8 9a       	sbi	0x1f, 0	; 31
    2910:	99 27       	eor	r25, r25
    2912:	80 b5       	in	r24, 0x20	; 32
    2914:	08 95       	ret

00002916 <__eerd_word_m2560>:
    2916:	a8 e1       	ldi	r26, 0x18	; 24
    2918:	b0 e0       	ldi	r27, 0x00	; 0
    291a:	42 e0       	ldi	r20, 0x02	; 2
    291c:	50 e0       	ldi	r21, 0x00	; 0
    291e:	0c 94 b6 14 	jmp	0x296c	; 0x296c <__eerd_blraw_m2560>

00002922 <__eewr_byte_m2560>:
    2922:	26 2f       	mov	r18, r22

00002924 <__eewr_r18_m2560>:
    2924:	f9 99       	sbic	0x1f, 1	; 31
    2926:	fe cf       	rjmp	.-4      	; 0x2924 <__eewr_r18_m2560>
    2928:	1f ba       	out	0x1f, r1	; 31
    292a:	92 bd       	out	0x22, r25	; 34
    292c:	81 bd       	out	0x21, r24	; 33
    292e:	20 bd       	out	0x20, r18	; 32
    2930:	0f b6       	in	r0, 0x3f	; 63
    2932:	f8 94       	cli
    2934:	fa 9a       	sbi	0x1f, 2	; 31
    2936:	f9 9a       	sbi	0x1f, 1	; 31
    2938:	0f be       	out	0x3f, r0	; 63
    293a:	01 96       	adiw	r24, 0x01	; 1
    293c:	08 95       	ret

0000293e <__eewr_word_m2560>:
    293e:	0e 94 91 14 	call	0x2922	; 0x2922 <__eewr_byte_m2560>
    2942:	27 2f       	mov	r18, r23
    2944:	0c 94 92 14 	jmp	0x2924	; 0x2924 <__eewr_r18_m2560>

00002948 <strrev>:
    2948:	dc 01       	movw	r26, r24
    294a:	fc 01       	movw	r30, r24
    294c:	67 2f       	mov	r22, r23
    294e:	71 91       	ld	r23, Z+
    2950:	77 23       	and	r23, r23
    2952:	e1 f7       	brne	.-8      	; 0x294c <strrev+0x4>
    2954:	32 97       	sbiw	r30, 0x02	; 2
    2956:	04 c0       	rjmp	.+8      	; 0x2960 <strrev+0x18>
    2958:	7c 91       	ld	r23, X
    295a:	6d 93       	st	X+, r22
    295c:	70 83       	st	Z, r23
    295e:	62 91       	ld	r22, -Z
    2960:	ae 17       	cp	r26, r30
    2962:	bf 07       	cpc	r27, r31
    2964:	c8 f3       	brcs	.-14     	; 0x2958 <strrev+0x10>
    2966:	08 95       	ret

00002968 <__eerd_block_m2560>:
    2968:	dc 01       	movw	r26, r24
    296a:	cb 01       	movw	r24, r22

0000296c <__eerd_blraw_m2560>:
    296c:	fc 01       	movw	r30, r24
    296e:	f9 99       	sbic	0x1f, 1	; 31
    2970:	fe cf       	rjmp	.-4      	; 0x296e <__eerd_blraw_m2560+0x2>
    2972:	06 c0       	rjmp	.+12     	; 0x2980 <__eerd_blraw_m2560+0x14>
    2974:	f2 bd       	out	0x22, r31	; 34
    2976:	e1 bd       	out	0x21, r30	; 33
    2978:	f8 9a       	sbi	0x1f, 0	; 31
    297a:	31 96       	adiw	r30, 0x01	; 1
    297c:	00 b4       	in	r0, 0x20	; 32
    297e:	0d 92       	st	X+, r0
    2980:	41 50       	subi	r20, 0x01	; 1
    2982:	50 40       	sbci	r21, 0x00	; 0
    2984:	b8 f7       	brcc	.-18     	; 0x2974 <__eerd_blraw_m2560+0x8>
    2986:	08 95       	ret

00002988 <_exit>:
    2988:	f8 94       	cli

0000298a <__stop_program>:
    298a:	ff cf       	rjmp	.-2      	; 0x298a <__stop_program>
