
GAVR_reCycle.elf:     file format elf32-avr

Sections:
Idx Name          Size      VMA       LMA       File off  Algn
  0 .data         000000bc  00800200  00004872  00004926  2**0
                  CONTENTS, ALLOC, LOAD, DATA
  1 .text         00004872  00000000  00000000  000000b4  2**1
                  CONTENTS, ALLOC, LOAD, READONLY, CODE
  2 .bss          000002df  008002bc  008002bc  000049e2  2**0
                  ALLOC
  3 .eeprom       00000007  00810000  00810000  000049e2  2**0
                  CONTENTS, ALLOC, LOAD, DATA
  4 .stab         000028d4  00000000  00000000  000049ec  2**2
                  CONTENTS, READONLY, DEBUGGING
  5 .stabstr      00000ae1  00000000  00000000  000072c0  2**0
                  CONTENTS, READONLY, DEBUGGING
  6 .debug_aranges 000000e0  00000000  00000000  00007da8  2**3
                  CONTENTS, READONLY, DEBUGGING
  7 .debug_info   0000060b  00000000  00000000  00007e88  2**0
                  CONTENTS, READONLY, DEBUGGING
  8 .debug_abbrev 0000008c  00000000  00000000  00008493  2**0
                  CONTENTS, READONLY, DEBUGGING
  9 .debug_line   00000401  00000000  00000000  0000851f  2**0
                  CONTENTS, READONLY, DEBUGGING

Disassembly of section .text:

00000000 <__vectors>:
       0:	0c 94 73 00 	jmp	0xe6	; 0xe6 <__ctors_end>
       4:	0c 94 ff 1a 	jmp	0x35fe	; 0x35fe <__vector_1>
       8:	0c 94 61 1b 	jmp	0x36c2	; 0x36c2 <__vector_2>
       c:	0c 94 a6 00 	jmp	0x14c	; 0x14c <__bad_interrupt>
      10:	0c 94 a6 00 	jmp	0x14c	; 0x14c <__bad_interrupt>
      14:	0c 94 a6 00 	jmp	0x14c	; 0x14c <__bad_interrupt>
      18:	0c 94 a6 00 	jmp	0x14c	; 0x14c <__bad_interrupt>
      1c:	0c 94 b1 1b 	jmp	0x3762	; 0x3762 <__vector_7>
      20:	0c 94 23 1c 	jmp	0x3846	; 0x3846 <__vector_8>
      24:	0c 94 a6 00 	jmp	0x14c	; 0x14c <__bad_interrupt>
      28:	0c 94 a6 00 	jmp	0x14c	; 0x14c <__bad_interrupt>
      2c:	0c 94 a6 00 	jmp	0x14c	; 0x14c <__bad_interrupt>
      30:	0c 94 a6 00 	jmp	0x14c	; 0x14c <__bad_interrupt>
      34:	0c 94 a6 00 	jmp	0x14c	; 0x14c <__bad_interrupt>
      38:	0c 94 a6 00 	jmp	0x14c	; 0x14c <__bad_interrupt>
      3c:	0c 94 f7 1c 	jmp	0x39ee	; 0x39ee <__vector_15>
      40:	0c 94 a6 00 	jmp	0x14c	; 0x14c <__bad_interrupt>
      44:	0c 94 a6 00 	jmp	0x14c	; 0x14c <__bad_interrupt>
      48:	0c 94 a6 00 	jmp	0x14c	; 0x14c <__bad_interrupt>
      4c:	0c 94 a6 00 	jmp	0x14c	; 0x14c <__bad_interrupt>
      50:	0c 94 a7 1c 	jmp	0x394e	; 0x394e <__vector_20>
      54:	0c 94 41 1c 	jmp	0x3882	; 0x3882 <__vector_21>
      58:	0c 94 a6 00 	jmp	0x14c	; 0x14c <__bad_interrupt>
      5c:	0c 94 a6 00 	jmp	0x14c	; 0x14c <__bad_interrupt>
      60:	0c 94 a6 00 	jmp	0x14c	; 0x14c <__bad_interrupt>
      64:	0c 94 8d 1a 	jmp	0x351a	; 0x351a <__vector_25>
      68:	0c 94 a6 00 	jmp	0x14c	; 0x14c <__bad_interrupt>
      6c:	0c 94 a6 00 	jmp	0x14c	; 0x14c <__bad_interrupt>
      70:	0c 94 a6 00 	jmp	0x14c	; 0x14c <__bad_interrupt>
      74:	0c 94 a6 00 	jmp	0x14c	; 0x14c <__bad_interrupt>
      78:	0c 94 a6 00 	jmp	0x14c	; 0x14c <__bad_interrupt>
      7c:	0c 94 a6 00 	jmp	0x14c	; 0x14c <__bad_interrupt>
      80:	0c 94 a6 00 	jmp	0x14c	; 0x14c <__bad_interrupt>
      84:	0c 94 a6 00 	jmp	0x14c	; 0x14c <__bad_interrupt>
      88:	0c 94 a6 00 	jmp	0x14c	; 0x14c <__bad_interrupt>
      8c:	0c 94 a6 00 	jmp	0x14c	; 0x14c <__bad_interrupt>
      90:	0c 94 c6 1a 	jmp	0x358c	; 0x358c <__vector_36>
      94:	0c 94 a6 00 	jmp	0x14c	; 0x14c <__bad_interrupt>
      98:	0c 94 a6 00 	jmp	0x14c	; 0x14c <__bad_interrupt>
      9c:	0c 94 a6 00 	jmp	0x14c	; 0x14c <__bad_interrupt>
      a0:	0c 94 a6 00 	jmp	0x14c	; 0x14c <__bad_interrupt>
      a4:	0c 94 a6 00 	jmp	0x14c	; 0x14c <__bad_interrupt>
      a8:	0c 94 a6 00 	jmp	0x14c	; 0x14c <__bad_interrupt>
      ac:	0c 94 a6 00 	jmp	0x14c	; 0x14c <__bad_interrupt>
      b0:	0c 94 a6 00 	jmp	0x14c	; 0x14c <__bad_interrupt>
      b4:	0c 94 a6 00 	jmp	0x14c	; 0x14c <__bad_interrupt>
      b8:	0c 94 a6 00 	jmp	0x14c	; 0x14c <__bad_interrupt>
      bc:	0c 94 a6 00 	jmp	0x14c	; 0x14c <__bad_interrupt>
      c0:	0c 94 a6 00 	jmp	0x14c	; 0x14c <__bad_interrupt>
      c4:	0c 94 a6 00 	jmp	0x14c	; 0x14c <__bad_interrupt>
      c8:	0c 94 a6 00 	jmp	0x14c	; 0x14c <__bad_interrupt>
      cc:	0c 94 a6 00 	jmp	0x14c	; 0x14c <__bad_interrupt>
      d0:	0c 94 a6 00 	jmp	0x14c	; 0x14c <__bad_interrupt>
      d4:	0c 94 a6 00 	jmp	0x14c	; 0x14c <__bad_interrupt>
      d8:	0c 94 a6 00 	jmp	0x14c	; 0x14c <__bad_interrupt>
      dc:	0c 94 a6 00 	jmp	0x14c	; 0x14c <__bad_interrupt>
      e0:	0c 94 a6 00 	jmp	0x14c	; 0x14c <__bad_interrupt>

000000e4 <__ctors_start>:
      e4:	90 21       	and	r25, r0

000000e6 <__ctors_end>:
      e6:	11 24       	eor	r1, r1
      e8:	1f be       	out	0x3f, r1	; 63
      ea:	cf ef       	ldi	r28, 0xFF	; 255
      ec:	d1 e2       	ldi	r29, 0x21	; 33
      ee:	de bf       	out	0x3e, r29	; 62
      f0:	cd bf       	out	0x3d, r28	; 61
      f2:	00 e0       	ldi	r16, 0x00	; 0
      f4:	0c bf       	out	0x3c, r16	; 60

000000f6 <__do_copy_data>:
      f6:	12 e0       	ldi	r17, 0x02	; 2
      f8:	a0 e0       	ldi	r26, 0x00	; 0
      fa:	b2 e0       	ldi	r27, 0x02	; 2
      fc:	e2 e7       	ldi	r30, 0x72	; 114
      fe:	f8 e4       	ldi	r31, 0x48	; 72
     100:	00 e0       	ldi	r16, 0x00	; 0
     102:	0b bf       	out	0x3b, r16	; 59
     104:	02 c0       	rjmp	.+4      	; 0x10a <__do_copy_data+0x14>
     106:	07 90       	elpm	r0, Z+
     108:	0d 92       	st	X+, r0
     10a:	ac 3b       	cpi	r26, 0xBC	; 188
     10c:	b1 07       	cpc	r27, r17
     10e:	d9 f7       	brne	.-10     	; 0x106 <__do_copy_data+0x10>
     110:	1b be       	out	0x3b, r1	; 59

00000112 <__do_clear_bss>:
     112:	15 e0       	ldi	r17, 0x05	; 5
     114:	ac eb       	ldi	r26, 0xBC	; 188
     116:	b2 e0       	ldi	r27, 0x02	; 2
     118:	01 c0       	rjmp	.+2      	; 0x11c <.do_clear_bss_start>

0000011a <.do_clear_bss_loop>:
     11a:	1d 92       	st	X+, r1

0000011c <.do_clear_bss_start>:
     11c:	ab 39       	cpi	r26, 0x9B	; 155
     11e:	b1 07       	cpc	r27, r17
     120:	e1 f7       	brne	.-8      	; 0x11a <.do_clear_bss_loop>

00000122 <__do_global_ctors>:
     122:	10 e0       	ldi	r17, 0x00	; 0
     124:	c6 ee       	ldi	r28, 0xE6	; 230
     126:	d0 e0       	ldi	r29, 0x00	; 0
     128:	00 e0       	ldi	r16, 0x00	; 0
     12a:	06 c0       	rjmp	.+12     	; 0x138 <__do_global_ctors+0x16>
     12c:	22 97       	sbiw	r28, 0x02	; 2
     12e:	01 09       	sbc	r16, r1
     130:	fe 01       	movw	r30, r28
     132:	0b bf       	out	0x3b, r16	; 59
     134:	0e 94 82 23 	call	0x4704	; 0x4704 <__tablejump_elpm__>
     138:	c4 3e       	cpi	r28, 0xE4	; 228
     13a:	d1 07       	cpc	r29, r17
     13c:	80 e0       	ldi	r24, 0x00	; 0
     13e:	08 07       	cpc	r16, r24
     140:	a9 f7       	brne	.-22     	; 0x12c <__do_global_ctors+0xa>
     142:	1b be       	out	0x3b, r1	; 59
     144:	0e 94 3b 1e 	call	0x3c76	; 0x3c76 <main>
     148:	0c 94 37 24 	jmp	0x486e	; 0x486e <_exit>

0000014c <__bad_interrupt>:
     14c:	0c 94 00 00 	jmp	0	; 0x0 <__vectors>

00000150 <_ZN6myDateC1Ev>:
     150:	cf 93       	push	r28
     152:	df 93       	push	r29
     154:	0f 92       	push	r0
     156:	0f 92       	push	r0
     158:	cd b7       	in	r28, 0x3d	; 61
     15a:	de b7       	in	r29, 0x3e	; 62
     15c:	9a 83       	std	Y+2, r25	; 0x02
     15e:	89 83       	std	Y+1, r24	; 0x01
     160:	89 81       	ldd	r24, Y+1	; 0x01
     162:	9a 81       	ldd	r25, Y+2	; 0x02
     164:	fc 01       	movw	r30, r24
     166:	11 82       	std	Z+1, r1	; 0x01
     168:	10 82       	st	Z, r1
     16a:	89 81       	ldd	r24, Y+1	; 0x01
     16c:	9a 81       	ldd	r25, Y+2	; 0x02
     16e:	fc 01       	movw	r30, r24
     170:	13 82       	std	Z+3, r1	; 0x03
     172:	12 82       	std	Z+2, r1	; 0x02
     174:	89 81       	ldd	r24, Y+1	; 0x01
     176:	9a 81       	ldd	r25, Y+2	; 0x02
     178:	fc 01       	movw	r30, r24
     17a:	15 82       	std	Z+5, r1	; 0x05
     17c:	14 82       	std	Z+4, r1	; 0x04
     17e:	0f 90       	pop	r0
     180:	0f 90       	pop	r0
     182:	df 91       	pop	r29
     184:	cf 91       	pop	r28
     186:	08 95       	ret

00000188 <_ZN6myDateC1Eiii>:
     188:	cf 93       	push	r28
     18a:	df 93       	push	r29
     18c:	cd b7       	in	r28, 0x3d	; 61
     18e:	de b7       	in	r29, 0x3e	; 62
     190:	28 97       	sbiw	r28, 0x08	; 8
     192:	0f b6       	in	r0, 0x3f	; 63
     194:	f8 94       	cli
     196:	de bf       	out	0x3e, r29	; 62
     198:	0f be       	out	0x3f, r0	; 63
     19a:	cd bf       	out	0x3d, r28	; 61
     19c:	9a 83       	std	Y+2, r25	; 0x02
     19e:	89 83       	std	Y+1, r24	; 0x01
     1a0:	7c 83       	std	Y+4, r23	; 0x04
     1a2:	6b 83       	std	Y+3, r22	; 0x03
     1a4:	5e 83       	std	Y+6, r21	; 0x06
     1a6:	4d 83       	std	Y+5, r20	; 0x05
     1a8:	38 87       	std	Y+8, r19	; 0x08
     1aa:	2f 83       	std	Y+7, r18	; 0x07
     1ac:	89 81       	ldd	r24, Y+1	; 0x01
     1ae:	9a 81       	ldd	r25, Y+2	; 0x02
     1b0:	6b 81       	ldd	r22, Y+3	; 0x03
     1b2:	7c 81       	ldd	r23, Y+4	; 0x04
     1b4:	4d 81       	ldd	r20, Y+5	; 0x05
     1b6:	5e 81       	ldd	r21, Y+6	; 0x06
     1b8:	2f 81       	ldd	r18, Y+7	; 0x07
     1ba:	38 85       	ldd	r19, Y+8	; 0x08
     1bc:	0e 94 c7 01 	call	0x38e	; 0x38e <_ZN6myDate7setDateEiii>
     1c0:	28 96       	adiw	r28, 0x08	; 8
     1c2:	0f b6       	in	r0, 0x3f	; 63
     1c4:	f8 94       	cli
     1c6:	de bf       	out	0x3e, r29	; 62
     1c8:	0f be       	out	0x3f, r0	; 63
     1ca:	cd bf       	out	0x3d, r28	; 61
     1cc:	df 91       	pop	r29
     1ce:	cf 91       	pop	r28
     1d0:	08 95       	ret

000001d2 <_ZN6myDate9getMonthsEv>:
     1d2:	cf 93       	push	r28
     1d4:	df 93       	push	r29
     1d6:	0f 92       	push	r0
     1d8:	0f 92       	push	r0
     1da:	cd b7       	in	r28, 0x3d	; 61
     1dc:	de b7       	in	r29, 0x3e	; 62
     1de:	9a 83       	std	Y+2, r25	; 0x02
     1e0:	89 83       	std	Y+1, r24	; 0x01
     1e2:	89 81       	ldd	r24, Y+1	; 0x01
     1e4:	9a 81       	ldd	r25, Y+2	; 0x02
     1e6:	fc 01       	movw	r30, r24
     1e8:	80 81       	ld	r24, Z
     1ea:	91 81       	ldd	r25, Z+1	; 0x01
     1ec:	0f 90       	pop	r0
     1ee:	0f 90       	pop	r0
     1f0:	df 91       	pop	r29
     1f2:	cf 91       	pop	r28
     1f4:	08 95       	ret

000001f6 <_ZN6myDate8getYearsEv>:
     1f6:	cf 93       	push	r28
     1f8:	df 93       	push	r29
     1fa:	0f 92       	push	r0
     1fc:	0f 92       	push	r0
     1fe:	cd b7       	in	r28, 0x3d	; 61
     200:	de b7       	in	r29, 0x3e	; 62
     202:	9a 83       	std	Y+2, r25	; 0x02
     204:	89 83       	std	Y+1, r24	; 0x01
     206:	89 81       	ldd	r24, Y+1	; 0x01
     208:	9a 81       	ldd	r25, Y+2	; 0x02
     20a:	fc 01       	movw	r30, r24
     20c:	84 81       	ldd	r24, Z+4	; 0x04
     20e:	95 81       	ldd	r25, Z+5	; 0x05
     210:	0f 90       	pop	r0
     212:	0f 90       	pop	r0
     214:	df 91       	pop	r29
     216:	cf 91       	pop	r28
     218:	08 95       	ret

0000021a <_ZN6myDate7getDaysEv>:
     21a:	cf 93       	push	r28
     21c:	df 93       	push	r29
     21e:	0f 92       	push	r0
     220:	0f 92       	push	r0
     222:	cd b7       	in	r28, 0x3d	; 61
     224:	de b7       	in	r29, 0x3e	; 62
     226:	9a 83       	std	Y+2, r25	; 0x02
     228:	89 83       	std	Y+1, r24	; 0x01
     22a:	89 81       	ldd	r24, Y+1	; 0x01
     22c:	9a 81       	ldd	r25, Y+2	; 0x02
     22e:	fc 01       	movw	r30, r24
     230:	82 81       	ldd	r24, Z+2	; 0x02
     232:	93 81       	ldd	r25, Z+3	; 0x03
     234:	0f 90       	pop	r0
     236:	0f 90       	pop	r0
     238:	df 91       	pop	r29
     23a:	cf 91       	pop	r28
     23c:	08 95       	ret

0000023e <_ZN6myDate8setMonthEi>:
     23e:	cf 93       	push	r28
     240:	df 93       	push	r29
     242:	00 d0       	rcall	.+0      	; 0x244 <_ZN6myDate8setMonthEi+0x6>
     244:	0f 92       	push	r0
     246:	cd b7       	in	r28, 0x3d	; 61
     248:	de b7       	in	r29, 0x3e	; 62
     24a:	9a 83       	std	Y+2, r25	; 0x02
     24c:	89 83       	std	Y+1, r24	; 0x01
     24e:	7c 83       	std	Y+4, r23	; 0x04
     250:	6b 83       	std	Y+3, r22	; 0x03
     252:	8b 81       	ldd	r24, Y+3	; 0x03
     254:	9c 81       	ldd	r25, Y+4	; 0x04
     256:	0c 96       	adiw	r24, 0x0c	; 12
     258:	89 31       	cpi	r24, 0x19	; 25
     25a:	91 05       	cpc	r25, r1
     25c:	38 f4       	brcc	.+14     	; 0x26c <_ZN6myDate8setMonthEi+0x2e>
     25e:	89 81       	ldd	r24, Y+1	; 0x01
     260:	9a 81       	ldd	r25, Y+2	; 0x02
     262:	2b 81       	ldd	r18, Y+3	; 0x03
     264:	3c 81       	ldd	r19, Y+4	; 0x04
     266:	fc 01       	movw	r30, r24
     268:	31 83       	std	Z+1, r19	; 0x01
     26a:	20 83       	st	Z, r18
     26c:	0f 90       	pop	r0
     26e:	0f 90       	pop	r0
     270:	0f 90       	pop	r0
     272:	0f 90       	pop	r0
     274:	df 91       	pop	r29
     276:	cf 91       	pop	r28
     278:	08 95       	ret

0000027a <_ZN6myDate6setDayEi>:
     27a:	cf 93       	push	r28
     27c:	df 93       	push	r29
     27e:	00 d0       	rcall	.+0      	; 0x280 <_ZN6myDate6setDayEi+0x6>
     280:	0f 92       	push	r0
     282:	cd b7       	in	r28, 0x3d	; 61
     284:	de b7       	in	r29, 0x3e	; 62
     286:	9a 83       	std	Y+2, r25	; 0x02
     288:	89 83       	std	Y+1, r24	; 0x01
     28a:	7c 83       	std	Y+4, r23	; 0x04
     28c:	6b 83       	std	Y+3, r22	; 0x03
     28e:	89 81       	ldd	r24, Y+1	; 0x01
     290:	9a 81       	ldd	r25, Y+2	; 0x02
     292:	fc 01       	movw	r30, r24
     294:	80 81       	ld	r24, Z
     296:	91 81       	ldd	r25, Z+1	; 0x01
     298:	89 30       	cpi	r24, 0x09	; 9
     29a:	91 05       	cpc	r25, r1
     29c:	81 f0       	breq	.+32     	; 0x2be <_ZN6myDate6setDayEi+0x44>
     29e:	89 81       	ldd	r24, Y+1	; 0x01
     2a0:	9a 81       	ldd	r25, Y+2	; 0x02
     2a2:	fc 01       	movw	r30, r24
     2a4:	80 81       	ld	r24, Z
     2a6:	91 81       	ldd	r25, Z+1	; 0x01
     2a8:	84 30       	cpi	r24, 0x04	; 4
     2aa:	91 05       	cpc	r25, r1
     2ac:	41 f0       	breq	.+16     	; 0x2be <_ZN6myDate6setDayEi+0x44>
     2ae:	89 81       	ldd	r24, Y+1	; 0x01
     2b0:	9a 81       	ldd	r25, Y+2	; 0x02
     2b2:	fc 01       	movw	r30, r24
     2b4:	80 81       	ld	r24, Z
     2b6:	91 81       	ldd	r25, Z+1	; 0x01
     2b8:	86 30       	cpi	r24, 0x06	; 6
     2ba:	91 05       	cpc	r25, r1
     2bc:	41 f4       	brne	.+16     	; 0x2ce <_ZN6myDate6setDayEi+0x54>
     2be:	8b 81       	ldd	r24, Y+3	; 0x03
     2c0:	9c 81       	ldd	r25, Y+4	; 0x04
     2c2:	4e 96       	adiw	r24, 0x1e	; 30
     2c4:	8d 33       	cpi	r24, 0x3D	; 61
     2c6:	91 05       	cpc	r25, r1
     2c8:	10 f4       	brcc	.+4      	; 0x2ce <_ZN6myDate6setDayEi+0x54>
     2ca:	81 e0       	ldi	r24, 0x01	; 1
     2cc:	01 c0       	rjmp	.+2      	; 0x2d0 <_ZN6myDate6setDayEi+0x56>
     2ce:	80 e0       	ldi	r24, 0x00	; 0
     2d0:	88 23       	and	r24, r24
     2d2:	41 f0       	breq	.+16     	; 0x2e4 <_ZN6myDate6setDayEi+0x6a>
     2d4:	89 81       	ldd	r24, Y+1	; 0x01
     2d6:	9a 81       	ldd	r25, Y+2	; 0x02
     2d8:	2b 81       	ldd	r18, Y+3	; 0x03
     2da:	3c 81       	ldd	r19, Y+4	; 0x04
     2dc:	fc 01       	movw	r30, r24
     2de:	33 83       	std	Z+3, r19	; 0x03
     2e0:	22 83       	std	Z+2, r18	; 0x02
     2e2:	28 c0       	rjmp	.+80     	; 0x334 <_ZN6myDate6setDayEi+0xba>
     2e4:	89 81       	ldd	r24, Y+1	; 0x01
     2e6:	9a 81       	ldd	r25, Y+2	; 0x02
     2e8:	fc 01       	movw	r30, r24
     2ea:	80 81       	ld	r24, Z
     2ec:	91 81       	ldd	r25, Z+1	; 0x01
     2ee:	82 30       	cpi	r24, 0x02	; 2
     2f0:	91 05       	cpc	r25, r1
     2f2:	41 f4       	brne	.+16     	; 0x304 <_ZN6myDate6setDayEi+0x8a>
     2f4:	8b 81       	ldd	r24, Y+3	; 0x03
     2f6:	9c 81       	ldd	r25, Y+4	; 0x04
     2f8:	4c 96       	adiw	r24, 0x1c	; 28
     2fa:	89 33       	cpi	r24, 0x39	; 57
     2fc:	91 05       	cpc	r25, r1
     2fe:	10 f4       	brcc	.+4      	; 0x304 <_ZN6myDate6setDayEi+0x8a>
     300:	81 e0       	ldi	r24, 0x01	; 1
     302:	01 c0       	rjmp	.+2      	; 0x306 <_ZN6myDate6setDayEi+0x8c>
     304:	80 e0       	ldi	r24, 0x00	; 0
     306:	88 23       	and	r24, r24
     308:	41 f0       	breq	.+16     	; 0x31a <_ZN6myDate6setDayEi+0xa0>
     30a:	89 81       	ldd	r24, Y+1	; 0x01
     30c:	9a 81       	ldd	r25, Y+2	; 0x02
     30e:	2b 81       	ldd	r18, Y+3	; 0x03
     310:	3c 81       	ldd	r19, Y+4	; 0x04
     312:	fc 01       	movw	r30, r24
     314:	33 83       	std	Z+3, r19	; 0x03
     316:	22 83       	std	Z+2, r18	; 0x02
     318:	0d c0       	rjmp	.+26     	; 0x334 <_ZN6myDate6setDayEi+0xba>
     31a:	8b 81       	ldd	r24, Y+3	; 0x03
     31c:	9c 81       	ldd	r25, Y+4	; 0x04
     31e:	4f 96       	adiw	r24, 0x1f	; 31
     320:	8f 33       	cpi	r24, 0x3F	; 63
     322:	91 05       	cpc	r25, r1
     324:	38 f4       	brcc	.+14     	; 0x334 <_ZN6myDate6setDayEi+0xba>
     326:	89 81       	ldd	r24, Y+1	; 0x01
     328:	9a 81       	ldd	r25, Y+2	; 0x02
     32a:	2b 81       	ldd	r18, Y+3	; 0x03
     32c:	3c 81       	ldd	r19, Y+4	; 0x04
     32e:	fc 01       	movw	r30, r24
     330:	33 83       	std	Z+3, r19	; 0x03
     332:	22 83       	std	Z+2, r18	; 0x02
     334:	0f 90       	pop	r0
     336:	0f 90       	pop	r0
     338:	0f 90       	pop	r0
     33a:	0f 90       	pop	r0
     33c:	df 91       	pop	r29
     33e:	cf 91       	pop	r28
     340:	08 95       	ret

00000342 <_ZN6myDate7setYearEi>:
     342:	cf 93       	push	r28
     344:	df 93       	push	r29
     346:	00 d0       	rcall	.+0      	; 0x348 <_ZN6myDate7setYearEi+0x6>
     348:	0f 92       	push	r0
     34a:	cd b7       	in	r28, 0x3d	; 61
     34c:	de b7       	in	r29, 0x3e	; 62
     34e:	9a 83       	std	Y+2, r25	; 0x02
     350:	89 83       	std	Y+1, r24	; 0x01
     352:	7c 83       	std	Y+4, r23	; 0x04
     354:	6b 83       	std	Y+3, r22	; 0x03
     356:	8b 81       	ldd	r24, Y+3	; 0x03
     358:	9c 81       	ldd	r25, Y+4	; 0x04
     35a:	27 e0       	ldi	r18, 0x07	; 7
     35c:	80 3d       	cpi	r24, 0xD0	; 208
     35e:	92 07       	cpc	r25, r18
     360:	44 f0       	brlt	.+16     	; 0x372 <_ZN6myDate7setYearEi+0x30>
     362:	89 81       	ldd	r24, Y+1	; 0x01
     364:	9a 81       	ldd	r25, Y+2	; 0x02
     366:	2b 81       	ldd	r18, Y+3	; 0x03
     368:	3c 81       	ldd	r19, Y+4	; 0x04
     36a:	fc 01       	movw	r30, r24
     36c:	35 83       	std	Z+5, r19	; 0x05
     36e:	24 83       	std	Z+4, r18	; 0x04
     370:	07 c0       	rjmp	.+14     	; 0x380 <_ZN6myDate7setYearEi+0x3e>
     372:	89 81       	ldd	r24, Y+1	; 0x01
     374:	9a 81       	ldd	r25, Y+2	; 0x02
     376:	22 ef       	ldi	r18, 0xF2	; 242
     378:	33 e0       	ldi	r19, 0x03	; 3
     37a:	fc 01       	movw	r30, r24
     37c:	35 83       	std	Z+5, r19	; 0x05
     37e:	24 83       	std	Z+4, r18	; 0x04
     380:	0f 90       	pop	r0
     382:	0f 90       	pop	r0
     384:	0f 90       	pop	r0
     386:	0f 90       	pop	r0
     388:	df 91       	pop	r29
     38a:	cf 91       	pop	r28
     38c:	08 95       	ret

0000038e <_ZN6myDate7setDateEiii>:
     38e:	cf 93       	push	r28
     390:	df 93       	push	r29
     392:	cd b7       	in	r28, 0x3d	; 61
     394:	de b7       	in	r29, 0x3e	; 62
     396:	28 97       	sbiw	r28, 0x08	; 8
     398:	0f b6       	in	r0, 0x3f	; 63
     39a:	f8 94       	cli
     39c:	de bf       	out	0x3e, r29	; 62
     39e:	0f be       	out	0x3f, r0	; 63
     3a0:	cd bf       	out	0x3d, r28	; 61
     3a2:	9a 83       	std	Y+2, r25	; 0x02
     3a4:	89 83       	std	Y+1, r24	; 0x01
     3a6:	7c 83       	std	Y+4, r23	; 0x04
     3a8:	6b 83       	std	Y+3, r22	; 0x03
     3aa:	5e 83       	std	Y+6, r21	; 0x06
     3ac:	4d 83       	std	Y+5, r20	; 0x05
     3ae:	38 87       	std	Y+8, r19	; 0x08
     3b0:	2f 83       	std	Y+7, r18	; 0x07
     3b2:	89 81       	ldd	r24, Y+1	; 0x01
     3b4:	9a 81       	ldd	r25, Y+2	; 0x02
     3b6:	2b 81       	ldd	r18, Y+3	; 0x03
     3b8:	3c 81       	ldd	r19, Y+4	; 0x04
     3ba:	b9 01       	movw	r22, r18
     3bc:	0e 94 1f 01 	call	0x23e	; 0x23e <_ZN6myDate8setMonthEi>
     3c0:	89 81       	ldd	r24, Y+1	; 0x01
     3c2:	9a 81       	ldd	r25, Y+2	; 0x02
     3c4:	2d 81       	ldd	r18, Y+5	; 0x05
     3c6:	3e 81       	ldd	r19, Y+6	; 0x06
     3c8:	b9 01       	movw	r22, r18
     3ca:	0e 94 3d 01 	call	0x27a	; 0x27a <_ZN6myDate6setDayEi>
     3ce:	89 81       	ldd	r24, Y+1	; 0x01
     3d0:	9a 81       	ldd	r25, Y+2	; 0x02
     3d2:	2f 81       	ldd	r18, Y+7	; 0x07
     3d4:	38 85       	ldd	r19, Y+8	; 0x08
     3d6:	b9 01       	movw	r22, r18
     3d8:	0e 94 a1 01 	call	0x342	; 0x342 <_ZN6myDate7setYearEi>
     3dc:	28 96       	adiw	r28, 0x08	; 8
     3de:	0f b6       	in	r0, 0x3f	; 63
     3e0:	f8 94       	cli
     3e2:	de bf       	out	0x3e, r29	; 62
     3e4:	0f be       	out	0x3f, r0	; 63
     3e6:	cd bf       	out	0x3d, r28	; 61
     3e8:	df 91       	pop	r29
     3ea:	cf 91       	pop	r28
     3ec:	08 95       	ret

000003ee <_ZN6myDate8addYearsEi>:
     3ee:	cf 93       	push	r28
     3f0:	df 93       	push	r29
     3f2:	00 d0       	rcall	.+0      	; 0x3f4 <_ZN6myDate8addYearsEi+0x6>
     3f4:	00 d0       	rcall	.+0      	; 0x3f6 <_ZN6myDate8addYearsEi+0x8>
     3f6:	cd b7       	in	r28, 0x3d	; 61
     3f8:	de b7       	in	r29, 0x3e	; 62
     3fa:	9c 83       	std	Y+4, r25	; 0x04
     3fc:	8b 83       	std	Y+3, r24	; 0x03
     3fe:	7e 83       	std	Y+6, r23	; 0x06
     400:	6d 83       	std	Y+5, r22	; 0x05
     402:	8b 81       	ldd	r24, Y+3	; 0x03
     404:	9c 81       	ldd	r25, Y+4	; 0x04
     406:	fc 01       	movw	r30, r24
     408:	24 81       	ldd	r18, Z+4	; 0x04
     40a:	35 81       	ldd	r19, Z+5	; 0x05
     40c:	8d 81       	ldd	r24, Y+5	; 0x05
     40e:	9e 81       	ldd	r25, Y+6	; 0x06
     410:	82 0f       	add	r24, r18
     412:	93 1f       	adc	r25, r19
     414:	9a 83       	std	Y+2, r25	; 0x02
     416:	89 83       	std	Y+1, r24	; 0x01
     418:	89 81       	ldd	r24, Y+1	; 0x01
     41a:	9a 81       	ldd	r25, Y+2	; 0x02
     41c:	21 e0       	ldi	r18, 0x01	; 1
     41e:	f7 e0       	ldi	r31, 0x07	; 7
     420:	8d 3d       	cpi	r24, 0xDD	; 221
     422:	9f 07       	cpc	r25, r31
     424:	0c f4       	brge	.+2      	; 0x428 <_ZN6myDate8addYearsEi+0x3a>
     426:	20 e0       	ldi	r18, 0x00	; 0
     428:	22 23       	and	r18, r18
     42a:	39 f0       	breq	.+14     	; 0x43a <_ZN6myDate8addYearsEi+0x4c>
     42c:	29 81       	ldd	r18, Y+1	; 0x01
     42e:	3a 81       	ldd	r19, Y+2	; 0x02
     430:	8b 81       	ldd	r24, Y+3	; 0x03
     432:	9c 81       	ldd	r25, Y+4	; 0x04
     434:	fc 01       	movw	r30, r24
     436:	35 83       	std	Z+5, r19	; 0x05
     438:	24 83       	std	Z+4, r18	; 0x04
     43a:	26 96       	adiw	r28, 0x06	; 6
     43c:	0f b6       	in	r0, 0x3f	; 63
     43e:	f8 94       	cli
     440:	de bf       	out	0x3e, r29	; 62
     442:	0f be       	out	0x3f, r0	; 63
     444:	cd bf       	out	0x3d, r28	; 61
     446:	df 91       	pop	r29
     448:	cf 91       	pop	r28
     44a:	08 95       	ret

0000044c <_ZN6myDate9addMonthsEi>:
     44c:	cf 93       	push	r28
     44e:	df 93       	push	r29
     450:	cd b7       	in	r28, 0x3d	; 61
     452:	de b7       	in	r29, 0x3e	; 62
     454:	2a 97       	sbiw	r28, 0x0a	; 10
     456:	0f b6       	in	r0, 0x3f	; 63
     458:	f8 94       	cli
     45a:	de bf       	out	0x3e, r29	; 62
     45c:	0f be       	out	0x3f, r0	; 63
     45e:	cd bf       	out	0x3d, r28	; 61
     460:	98 87       	std	Y+8, r25	; 0x08
     462:	8f 83       	std	Y+7, r24	; 0x07
     464:	7a 87       	std	Y+10, r23	; 0x0a
     466:	69 87       	std	Y+9, r22	; 0x09
     468:	8f 81       	ldd	r24, Y+7	; 0x07
     46a:	98 85       	ldd	r25, Y+8	; 0x08
     46c:	fc 01       	movw	r30, r24
     46e:	20 81       	ld	r18, Z
     470:	31 81       	ldd	r19, Z+1	; 0x01
     472:	89 85       	ldd	r24, Y+9	; 0x09
     474:	9a 85       	ldd	r25, Y+10	; 0x0a
     476:	82 0f       	add	r24, r18
     478:	93 1f       	adc	r25, r19
     47a:	9e 83       	std	Y+6, r25	; 0x06
     47c:	8d 83       	std	Y+5, r24	; 0x05
     47e:	8d 81       	ldd	r24, Y+5	; 0x05
     480:	9e 81       	ldd	r25, Y+6	; 0x06
     482:	8d 30       	cpi	r24, 0x0D	; 13
     484:	91 05       	cpc	r25, r1
     486:	3c f0       	brlt	.+14     	; 0x496 <_ZN6myDate9addMonthsEi+0x4a>
     488:	8d 81       	ldd	r24, Y+5	; 0x05
     48a:	9e 81       	ldd	r25, Y+6	; 0x06
     48c:	89 31       	cpi	r24, 0x19	; 25
     48e:	91 05       	cpc	r25, r1
     490:	14 f4       	brge	.+4      	; 0x496 <_ZN6myDate9addMonthsEi+0x4a>
     492:	81 e0       	ldi	r24, 0x01	; 1
     494:	01 c0       	rjmp	.+2      	; 0x498 <_ZN6myDate9addMonthsEi+0x4c>
     496:	80 e0       	ldi	r24, 0x00	; 0
     498:	88 23       	and	r24, r24
     49a:	61 f0       	breq	.+24     	; 0x4b4 <_ZN6myDate9addMonthsEi+0x68>
     49c:	81 e0       	ldi	r24, 0x01	; 1
     49e:	90 e0       	ldi	r25, 0x00	; 0
     4a0:	9a 83       	std	Y+2, r25	; 0x02
     4a2:	89 83       	std	Y+1, r24	; 0x01
     4a4:	8f 81       	ldd	r24, Y+7	; 0x07
     4a6:	98 85       	ldd	r25, Y+8	; 0x08
     4a8:	29 81       	ldd	r18, Y+1	; 0x01
     4aa:	3a 81       	ldd	r19, Y+2	; 0x02
     4ac:	b9 01       	movw	r22, r18
     4ae:	0e 94 f7 01 	call	0x3ee	; 0x3ee <_ZN6myDate8addYearsEi>
     4b2:	22 c0       	rjmp	.+68     	; 0x4f8 <_ZN6myDate9addMonthsEi+0xac>
     4b4:	8d 81       	ldd	r24, Y+5	; 0x05
     4b6:	9e 81       	ldd	r25, Y+6	; 0x06
     4b8:	21 e0       	ldi	r18, 0x01	; 1
     4ba:	89 31       	cpi	r24, 0x19	; 25
     4bc:	91 05       	cpc	r25, r1
     4be:	0c f4       	brge	.+2      	; 0x4c2 <_ZN6myDate9addMonthsEi+0x76>
     4c0:	20 e0       	ldi	r18, 0x00	; 0
     4c2:	22 23       	and	r18, r18
     4c4:	91 f0       	breq	.+36     	; 0x4ea <_ZN6myDate9addMonthsEi+0x9e>
     4c6:	8d 81       	ldd	r24, Y+5	; 0x05
     4c8:	9e 81       	ldd	r25, Y+6	; 0x06
     4ca:	2c e0       	ldi	r18, 0x0C	; 12
     4cc:	30 e0       	ldi	r19, 0x00	; 0
     4ce:	b9 01       	movw	r22, r18
     4d0:	0e 94 6f 23 	call	0x46de	; 0x46de <__divmodhi4>
     4d4:	9b 01       	movw	r18, r22
     4d6:	3c 83       	std	Y+4, r19	; 0x04
     4d8:	2b 83       	std	Y+3, r18	; 0x03
     4da:	8f 81       	ldd	r24, Y+7	; 0x07
     4dc:	98 85       	ldd	r25, Y+8	; 0x08
     4de:	2b 81       	ldd	r18, Y+3	; 0x03
     4e0:	3c 81       	ldd	r19, Y+4	; 0x04
     4e2:	b9 01       	movw	r22, r18
     4e4:	0e 94 f7 01 	call	0x3ee	; 0x3ee <_ZN6myDate8addYearsEi>
     4e8:	07 c0       	rjmp	.+14     	; 0x4f8 <_ZN6myDate9addMonthsEi+0xac>
     4ea:	2d 81       	ldd	r18, Y+5	; 0x05
     4ec:	3e 81       	ldd	r19, Y+6	; 0x06
     4ee:	8f 81       	ldd	r24, Y+7	; 0x07
     4f0:	98 85       	ldd	r25, Y+8	; 0x08
     4f2:	fc 01       	movw	r30, r24
     4f4:	31 83       	std	Z+1, r19	; 0x01
     4f6:	20 83       	st	Z, r18
     4f8:	2a 96       	adiw	r28, 0x0a	; 10
     4fa:	0f b6       	in	r0, 0x3f	; 63
     4fc:	f8 94       	cli
     4fe:	de bf       	out	0x3e, r29	; 62
     500:	0f be       	out	0x3f, r0	; 63
     502:	cd bf       	out	0x3d, r28	; 61
     504:	df 91       	pop	r29
     506:	cf 91       	pop	r28
     508:	08 95       	ret

0000050a <_ZN6myDate7addDaysEi>:
     50a:	cf 93       	push	r28
     50c:	df 93       	push	r29
     50e:	00 d0       	rcall	.+0      	; 0x510 <_ZN6myDate7addDaysEi+0x6>
     510:	00 d0       	rcall	.+0      	; 0x512 <_ZN6myDate7addDaysEi+0x8>
     512:	cd b7       	in	r28, 0x3d	; 61
     514:	de b7       	in	r29, 0x3e	; 62
     516:	9c 83       	std	Y+4, r25	; 0x04
     518:	8b 83       	std	Y+3, r24	; 0x03
     51a:	7e 83       	std	Y+6, r23	; 0x06
     51c:	6d 83       	std	Y+5, r22	; 0x05
     51e:	8b 81       	ldd	r24, Y+3	; 0x03
     520:	9c 81       	ldd	r25, Y+4	; 0x04
     522:	fc 01       	movw	r30, r24
     524:	22 81       	ldd	r18, Z+2	; 0x02
     526:	33 81       	ldd	r19, Z+3	; 0x03
     528:	8d 81       	ldd	r24, Y+5	; 0x05
     52a:	9e 81       	ldd	r25, Y+6	; 0x06
     52c:	82 0f       	add	r24, r18
     52e:	93 1f       	adc	r25, r19
     530:	9a 83       	std	Y+2, r25	; 0x02
     532:	89 83       	std	Y+1, r24	; 0x01
     534:	8b 81       	ldd	r24, Y+3	; 0x03
     536:	9c 81       	ldd	r25, Y+4	; 0x04
     538:	fc 01       	movw	r30, r24
     53a:	80 81       	ld	r24, Z
     53c:	91 81       	ldd	r25, Z+1	; 0x01
     53e:	89 30       	cpi	r24, 0x09	; 9
     540:	91 05       	cpc	r25, r1
     542:	81 f0       	breq	.+32     	; 0x564 <_ZN6myDate7addDaysEi+0x5a>
     544:	8b 81       	ldd	r24, Y+3	; 0x03
     546:	9c 81       	ldd	r25, Y+4	; 0x04
     548:	fc 01       	movw	r30, r24
     54a:	80 81       	ld	r24, Z
     54c:	91 81       	ldd	r25, Z+1	; 0x01
     54e:	84 30       	cpi	r24, 0x04	; 4
     550:	91 05       	cpc	r25, r1
     552:	41 f0       	breq	.+16     	; 0x564 <_ZN6myDate7addDaysEi+0x5a>
     554:	8b 81       	ldd	r24, Y+3	; 0x03
     556:	9c 81       	ldd	r25, Y+4	; 0x04
     558:	fc 01       	movw	r30, r24
     55a:	80 81       	ld	r24, Z
     55c:	91 81       	ldd	r25, Z+1	; 0x01
     55e:	86 30       	cpi	r24, 0x06	; 6
     560:	91 05       	cpc	r25, r1
     562:	11 f4       	brne	.+4      	; 0x568 <_ZN6myDate7addDaysEi+0x5e>
     564:	81 e0       	ldi	r24, 0x01	; 1
     566:	01 c0       	rjmp	.+2      	; 0x56a <_ZN6myDate7addDaysEi+0x60>
     568:	80 e0       	ldi	r24, 0x00	; 0
     56a:	88 23       	and	r24, r24
     56c:	31 f1       	breq	.+76     	; 0x5ba <_ZN6myDate7addDaysEi+0xb0>
     56e:	89 81       	ldd	r24, Y+1	; 0x01
     570:	9a 81       	ldd	r25, Y+2	; 0x02
     572:	4e 96       	adiw	r24, 0x1e	; 30
     574:	21 e0       	ldi	r18, 0x01	; 1
     576:	8d 33       	cpi	r24, 0x3D	; 61
     578:	91 05       	cpc	r25, r1
     57a:	08 f0       	brcs	.+2      	; 0x57e <_ZN6myDate7addDaysEi+0x74>
     57c:	20 e0       	ldi	r18, 0x00	; 0
     57e:	22 23       	and	r18, r18
     580:	41 f0       	breq	.+16     	; 0x592 <_ZN6myDate7addDaysEi+0x88>
     582:	29 81       	ldd	r18, Y+1	; 0x01
     584:	3a 81       	ldd	r19, Y+2	; 0x02
     586:	8b 81       	ldd	r24, Y+3	; 0x03
     588:	9c 81       	ldd	r25, Y+4	; 0x04
     58a:	fc 01       	movw	r30, r24
     58c:	33 83       	std	Z+3, r19	; 0x03
     58e:	22 83       	std	Z+2, r18	; 0x02
     590:	71 c0       	rjmp	.+226    	; 0x674 <_ZN6myDate7addDaysEi+0x16a>
     592:	8b 81       	ldd	r24, Y+3	; 0x03
     594:	9c 81       	ldd	r25, Y+4	; 0x04
     596:	61 e0       	ldi	r22, 0x01	; 1
     598:	70 e0       	ldi	r23, 0x00	; 0
     59a:	0e 94 26 02 	call	0x44c	; 0x44c <_ZN6myDate9addMonthsEi>
     59e:	89 81       	ldd	r24, Y+1	; 0x01
     5a0:	9a 81       	ldd	r25, Y+2	; 0x02
     5a2:	2f e1       	ldi	r18, 0x1F	; 31
     5a4:	30 e0       	ldi	r19, 0x00	; 0
     5a6:	b9 01       	movw	r22, r18
     5a8:	0e 94 6f 23 	call	0x46de	; 0x46de <__divmodhi4>
     5ac:	9c 01       	movw	r18, r24
     5ae:	8b 81       	ldd	r24, Y+3	; 0x03
     5b0:	9c 81       	ldd	r25, Y+4	; 0x04
     5b2:	fc 01       	movw	r30, r24
     5b4:	33 83       	std	Z+3, r19	; 0x03
     5b6:	22 83       	std	Z+2, r18	; 0x02
     5b8:	5d c0       	rjmp	.+186    	; 0x674 <_ZN6myDate7addDaysEi+0x16a>
     5ba:	8b 81       	ldd	r24, Y+3	; 0x03
     5bc:	9c 81       	ldd	r25, Y+4	; 0x04
     5be:	fc 01       	movw	r30, r24
     5c0:	80 81       	ld	r24, Z
     5c2:	91 81       	ldd	r25, Z+1	; 0x01
     5c4:	21 e0       	ldi	r18, 0x01	; 1
     5c6:	82 30       	cpi	r24, 0x02	; 2
     5c8:	91 05       	cpc	r25, r1
     5ca:	09 f0       	breq	.+2      	; 0x5ce <_ZN6myDate7addDaysEi+0xc4>
     5cc:	20 e0       	ldi	r18, 0x00	; 0
     5ce:	22 23       	and	r18, r18
     5d0:	49 f1       	breq	.+82     	; 0x624 <_ZN6myDate7addDaysEi+0x11a>
     5d2:	8b 81       	ldd	r24, Y+3	; 0x03
     5d4:	9c 81       	ldd	r25, Y+4	; 0x04
     5d6:	fc 01       	movw	r30, r24
     5d8:	82 81       	ldd	r24, Z+2	; 0x02
     5da:	93 81       	ldd	r25, Z+3	; 0x03
     5dc:	4c 96       	adiw	r24, 0x1c	; 28
     5de:	21 e0       	ldi	r18, 0x01	; 1
     5e0:	89 33       	cpi	r24, 0x39	; 57
     5e2:	91 05       	cpc	r25, r1
     5e4:	08 f0       	brcs	.+2      	; 0x5e8 <_ZN6myDate7addDaysEi+0xde>
     5e6:	20 e0       	ldi	r18, 0x00	; 0
     5e8:	22 23       	and	r18, r18
     5ea:	41 f0       	breq	.+16     	; 0x5fc <_ZN6myDate7addDaysEi+0xf2>
     5ec:	29 81       	ldd	r18, Y+1	; 0x01
     5ee:	3a 81       	ldd	r19, Y+2	; 0x02
     5f0:	8b 81       	ldd	r24, Y+3	; 0x03
     5f2:	9c 81       	ldd	r25, Y+4	; 0x04
     5f4:	fc 01       	movw	r30, r24
     5f6:	33 83       	std	Z+3, r19	; 0x03
     5f8:	22 83       	std	Z+2, r18	; 0x02
     5fa:	3c c0       	rjmp	.+120    	; 0x674 <_ZN6myDate7addDaysEi+0x16a>
     5fc:	8b 81       	ldd	r24, Y+3	; 0x03
     5fe:	9c 81       	ldd	r25, Y+4	; 0x04
     600:	61 e0       	ldi	r22, 0x01	; 1
     602:	70 e0       	ldi	r23, 0x00	; 0
     604:	0e 94 26 02 	call	0x44c	; 0x44c <_ZN6myDate9addMonthsEi>
     608:	89 81       	ldd	r24, Y+1	; 0x01
     60a:	9a 81       	ldd	r25, Y+2	; 0x02
     60c:	2d e1       	ldi	r18, 0x1D	; 29
     60e:	30 e0       	ldi	r19, 0x00	; 0
     610:	b9 01       	movw	r22, r18
     612:	0e 94 6f 23 	call	0x46de	; 0x46de <__divmodhi4>
     616:	9c 01       	movw	r18, r24
     618:	8b 81       	ldd	r24, Y+3	; 0x03
     61a:	9c 81       	ldd	r25, Y+4	; 0x04
     61c:	fc 01       	movw	r30, r24
     61e:	33 83       	std	Z+3, r19	; 0x03
     620:	22 83       	std	Z+2, r18	; 0x02
     622:	28 c0       	rjmp	.+80     	; 0x674 <_ZN6myDate7addDaysEi+0x16a>
     624:	8b 81       	ldd	r24, Y+3	; 0x03
     626:	9c 81       	ldd	r25, Y+4	; 0x04
     628:	fc 01       	movw	r30, r24
     62a:	82 81       	ldd	r24, Z+2	; 0x02
     62c:	93 81       	ldd	r25, Z+3	; 0x03
     62e:	4f 96       	adiw	r24, 0x1f	; 31
     630:	21 e0       	ldi	r18, 0x01	; 1
     632:	8f 33       	cpi	r24, 0x3F	; 63
     634:	91 05       	cpc	r25, r1
     636:	08 f0       	brcs	.+2      	; 0x63a <_ZN6myDate7addDaysEi+0x130>
     638:	20 e0       	ldi	r18, 0x00	; 0
     63a:	22 23       	and	r18, r18
     63c:	41 f0       	breq	.+16     	; 0x64e <_ZN6myDate7addDaysEi+0x144>
     63e:	29 81       	ldd	r18, Y+1	; 0x01
     640:	3a 81       	ldd	r19, Y+2	; 0x02
     642:	8b 81       	ldd	r24, Y+3	; 0x03
     644:	9c 81       	ldd	r25, Y+4	; 0x04
     646:	fc 01       	movw	r30, r24
     648:	33 83       	std	Z+3, r19	; 0x03
     64a:	22 83       	std	Z+2, r18	; 0x02
     64c:	13 c0       	rjmp	.+38     	; 0x674 <_ZN6myDate7addDaysEi+0x16a>
     64e:	8b 81       	ldd	r24, Y+3	; 0x03
     650:	9c 81       	ldd	r25, Y+4	; 0x04
     652:	61 e0       	ldi	r22, 0x01	; 1
     654:	70 e0       	ldi	r23, 0x00	; 0
     656:	0e 94 26 02 	call	0x44c	; 0x44c <_ZN6myDate9addMonthsEi>
     65a:	89 81       	ldd	r24, Y+1	; 0x01
     65c:	9a 81       	ldd	r25, Y+2	; 0x02
     65e:	20 e2       	ldi	r18, 0x20	; 32
     660:	30 e0       	ldi	r19, 0x00	; 0
     662:	b9 01       	movw	r22, r18
     664:	0e 94 6f 23 	call	0x46de	; 0x46de <__divmodhi4>
     668:	9c 01       	movw	r18, r24
     66a:	8b 81       	ldd	r24, Y+3	; 0x03
     66c:	9c 81       	ldd	r25, Y+4	; 0x04
     66e:	fc 01       	movw	r30, r24
     670:	33 83       	std	Z+3, r19	; 0x03
     672:	22 83       	std	Z+2, r18	; 0x02
     674:	26 96       	adiw	r28, 0x06	; 6
     676:	0f b6       	in	r0, 0x3f	; 63
     678:	f8 94       	cli
     67a:	de bf       	out	0x3e, r29	; 62
     67c:	0f be       	out	0x3f, r0	; 63
     67e:	cd bf       	out	0x3d, r28	; 61
     680:	df 91       	pop	r29
     682:	cf 91       	pop	r28
     684:	08 95       	ret

00000686 <_ZN6myDate17checkValidityDateEv>:
     686:	cf 93       	push	r28
     688:	df 93       	push	r29
     68a:	00 d0       	rcall	.+0      	; 0x68c <_ZN6myDate17checkValidityDateEv+0x6>
     68c:	cd b7       	in	r28, 0x3d	; 61
     68e:	de b7       	in	r29, 0x3e	; 62
     690:	9b 83       	std	Y+3, r25	; 0x03
     692:	8a 83       	std	Y+2, r24	; 0x02
     694:	19 82       	std	Y+1, r1	; 0x01
     696:	8a 81       	ldd	r24, Y+2	; 0x02
     698:	9b 81       	ldd	r25, Y+3	; 0x03
     69a:	fc 01       	movw	r30, r24
     69c:	80 81       	ld	r24, Z
     69e:	91 81       	ldd	r25, Z+1	; 0x01
     6a0:	0c 96       	adiw	r24, 0x0c	; 12
     6a2:	21 e0       	ldi	r18, 0x01	; 1
     6a4:	89 31       	cpi	r24, 0x19	; 25
     6a6:	91 05       	cpc	r25, r1
     6a8:	08 f0       	brcs	.+2      	; 0x6ac <_ZN6myDate17checkValidityDateEv+0x26>
     6aa:	20 e0       	ldi	r18, 0x00	; 0
     6ac:	22 23       	and	r18, r18
     6ae:	09 f4       	brne	.+2      	; 0x6b2 <_ZN6myDate17checkValidityDateEv+0x2c>
     6b0:	66 c0       	rjmp	.+204    	; 0x77e <_ZN6myDate17checkValidityDateEv+0xf8>
     6b2:	8a 81       	ldd	r24, Y+2	; 0x02
     6b4:	9b 81       	ldd	r25, Y+3	; 0x03
     6b6:	fc 01       	movw	r30, r24
     6b8:	80 81       	ld	r24, Z
     6ba:	91 81       	ldd	r25, Z+1	; 0x01
     6bc:	89 30       	cpi	r24, 0x09	; 9
     6be:	91 05       	cpc	r25, r1
     6c0:	81 f0       	breq	.+32     	; 0x6e2 <_ZN6myDate17checkValidityDateEv+0x5c>
     6c2:	8a 81       	ldd	r24, Y+2	; 0x02
     6c4:	9b 81       	ldd	r25, Y+3	; 0x03
     6c6:	fc 01       	movw	r30, r24
     6c8:	80 81       	ld	r24, Z
     6ca:	91 81       	ldd	r25, Z+1	; 0x01
     6cc:	84 30       	cpi	r24, 0x04	; 4
     6ce:	91 05       	cpc	r25, r1
     6d0:	41 f0       	breq	.+16     	; 0x6e2 <_ZN6myDate17checkValidityDateEv+0x5c>
     6d2:	8a 81       	ldd	r24, Y+2	; 0x02
     6d4:	9b 81       	ldd	r25, Y+3	; 0x03
     6d6:	fc 01       	movw	r30, r24
     6d8:	80 81       	ld	r24, Z
     6da:	91 81       	ldd	r25, Z+1	; 0x01
     6dc:	86 30       	cpi	r24, 0x06	; 6
     6de:	91 05       	cpc	r25, r1
     6e0:	59 f4       	brne	.+22     	; 0x6f8 <_ZN6myDate17checkValidityDateEv+0x72>
     6e2:	8a 81       	ldd	r24, Y+2	; 0x02
     6e4:	9b 81       	ldd	r25, Y+3	; 0x03
     6e6:	fc 01       	movw	r30, r24
     6e8:	82 81       	ldd	r24, Z+2	; 0x02
     6ea:	93 81       	ldd	r25, Z+3	; 0x03
     6ec:	4e 96       	adiw	r24, 0x1e	; 30
     6ee:	8d 33       	cpi	r24, 0x3D	; 61
     6f0:	91 05       	cpc	r25, r1
     6f2:	10 f4       	brcc	.+4      	; 0x6f8 <_ZN6myDate17checkValidityDateEv+0x72>
     6f4:	81 e0       	ldi	r24, 0x01	; 1
     6f6:	01 c0       	rjmp	.+2      	; 0x6fa <_ZN6myDate17checkValidityDateEv+0x74>
     6f8:	80 e0       	ldi	r24, 0x00	; 0
     6fa:	88 23       	and	r24, r24
     6fc:	19 f0       	breq	.+6      	; 0x704 <_ZN6myDate17checkValidityDateEv+0x7e>
     6fe:	81 e0       	ldi	r24, 0x01	; 1
     700:	89 83       	std	Y+1, r24	; 0x01
     702:	28 c0       	rjmp	.+80     	; 0x754 <_ZN6myDate17checkValidityDateEv+0xce>
     704:	8a 81       	ldd	r24, Y+2	; 0x02
     706:	9b 81       	ldd	r25, Y+3	; 0x03
     708:	fc 01       	movw	r30, r24
     70a:	80 81       	ld	r24, Z
     70c:	91 81       	ldd	r25, Z+1	; 0x01
     70e:	82 30       	cpi	r24, 0x02	; 2
     710:	91 05       	cpc	r25, r1
     712:	59 f4       	brne	.+22     	; 0x72a <_ZN6myDate17checkValidityDateEv+0xa4>
     714:	8a 81       	ldd	r24, Y+2	; 0x02
     716:	9b 81       	ldd	r25, Y+3	; 0x03
     718:	fc 01       	movw	r30, r24
     71a:	82 81       	ldd	r24, Z+2	; 0x02
     71c:	93 81       	ldd	r25, Z+3	; 0x03
     71e:	4c 96       	adiw	r24, 0x1c	; 28
     720:	89 33       	cpi	r24, 0x39	; 57
     722:	91 05       	cpc	r25, r1
     724:	10 f4       	brcc	.+4      	; 0x72a <_ZN6myDate17checkValidityDateEv+0xa4>
     726:	81 e0       	ldi	r24, 0x01	; 1
     728:	01 c0       	rjmp	.+2      	; 0x72c <_ZN6myDate17checkValidityDateEv+0xa6>
     72a:	80 e0       	ldi	r24, 0x00	; 0
     72c:	88 23       	and	r24, r24
     72e:	19 f0       	breq	.+6      	; 0x736 <_ZN6myDate17checkValidityDateEv+0xb0>
     730:	81 e0       	ldi	r24, 0x01	; 1
     732:	89 83       	std	Y+1, r24	; 0x01
     734:	0f c0       	rjmp	.+30     	; 0x754 <_ZN6myDate17checkValidityDateEv+0xce>
     736:	8a 81       	ldd	r24, Y+2	; 0x02
     738:	9b 81       	ldd	r25, Y+3	; 0x03
     73a:	fc 01       	movw	r30, r24
     73c:	82 81       	ldd	r24, Z+2	; 0x02
     73e:	93 81       	ldd	r25, Z+3	; 0x03
     740:	4f 96       	adiw	r24, 0x1f	; 31
     742:	21 e0       	ldi	r18, 0x01	; 1
     744:	8f 33       	cpi	r24, 0x3F	; 63
     746:	91 05       	cpc	r25, r1
     748:	08 f0       	brcs	.+2      	; 0x74c <_ZN6myDate17checkValidityDateEv+0xc6>
     74a:	20 e0       	ldi	r18, 0x00	; 0
     74c:	22 23       	and	r18, r18
     74e:	11 f0       	breq	.+4      	; 0x754 <_ZN6myDate17checkValidityDateEv+0xce>
     750:	81 e0       	ldi	r24, 0x01	; 1
     752:	89 83       	std	Y+1, r24	; 0x01
     754:	89 81       	ldd	r24, Y+1	; 0x01
     756:	88 23       	and	r24, r24
     758:	59 f0       	breq	.+22     	; 0x770 <_ZN6myDate17checkValidityDateEv+0xea>
     75a:	8a 81       	ldd	r24, Y+2	; 0x02
     75c:	9b 81       	ldd	r25, Y+3	; 0x03
     75e:	fc 01       	movw	r30, r24
     760:	84 81       	ldd	r24, Z+4	; 0x04
     762:	95 81       	ldd	r25, Z+5	; 0x05
     764:	f7 e0       	ldi	r31, 0x07	; 7
     766:	8d 3d       	cpi	r24, 0xDD	; 221
     768:	9f 07       	cpc	r25, r31
     76a:	14 f0       	brlt	.+4      	; 0x770 <_ZN6myDate17checkValidityDateEv+0xea>
     76c:	81 e0       	ldi	r24, 0x01	; 1
     76e:	01 c0       	rjmp	.+2      	; 0x772 <_ZN6myDate17checkValidityDateEv+0xec>
     770:	80 e0       	ldi	r24, 0x00	; 0
     772:	88 23       	and	r24, r24
     774:	11 f0       	breq	.+4      	; 0x77a <_ZN6myDate17checkValidityDateEv+0xf4>
     776:	81 e0       	ldi	r24, 0x01	; 1
     778:	03 c0       	rjmp	.+6      	; 0x780 <_ZN6myDate17checkValidityDateEv+0xfa>
     77a:	80 e0       	ldi	r24, 0x00	; 0
     77c:	01 c0       	rjmp	.+2      	; 0x780 <_ZN6myDate17checkValidityDateEv+0xfa>
     77e:	80 e0       	ldi	r24, 0x00	; 0
     780:	0f 90       	pop	r0
     782:	0f 90       	pop	r0
     784:	0f 90       	pop	r0
     786:	df 91       	pop	r29
     788:	cf 91       	pop	r28
     78a:	08 95       	ret

0000078c <_ZN6myDate7getDateEv>:
     78c:	cf 93       	push	r28
     78e:	df 93       	push	r29
     790:	cd b7       	in	r28, 0x3d	; 61
     792:	de b7       	in	r29, 0x3e	; 62
     794:	2d 97       	sbiw	r28, 0x0d	; 13
     796:	0f b6       	in	r0, 0x3f	; 63
     798:	f8 94       	cli
     79a:	de bf       	out	0x3e, r29	; 62
     79c:	0f be       	out	0x3f, r0	; 63
     79e:	cd bf       	out	0x3d, r28	; 61
     7a0:	9d 87       	std	Y+13, r25	; 0x0d
     7a2:	8c 87       	std	Y+12, r24	; 0x0c
     7a4:	8c 85       	ldd	r24, Y+12	; 0x0c
     7a6:	9d 85       	ldd	r25, Y+13	; 0x0d
     7a8:	fc 01       	movw	r30, r24
     7aa:	80 81       	ld	r24, Z
     7ac:	91 81       	ldd	r25, Z+1	; 0x01
     7ae:	9e 01       	movw	r18, r28
     7b0:	2f 5f       	subi	r18, 0xFF	; 255
     7b2:	3f 4f       	sbci	r19, 0xFF	; 255
     7b4:	b9 01       	movw	r22, r18
     7b6:	4a e0       	ldi	r20, 0x0A	; 10
     7b8:	50 e0       	ldi	r21, 0x00	; 0
     7ba:	0e 94 cd 23 	call	0x479a	; 0x479a <itoa>
     7be:	8c 85       	ldd	r24, Y+12	; 0x0c
     7c0:	9d 85       	ldd	r25, Y+13	; 0x0d
     7c2:	fc 01       	movw	r30, r24
     7c4:	82 81       	ldd	r24, Z+2	; 0x02
     7c6:	93 81       	ldd	r25, Z+3	; 0x03
     7c8:	9e 01       	movw	r18, r28
     7ca:	2c 5f       	subi	r18, 0xFC	; 252
     7cc:	3f 4f       	sbci	r19, 0xFF	; 255
     7ce:	b9 01       	movw	r22, r18
     7d0:	4a e0       	ldi	r20, 0x0A	; 10
     7d2:	50 e0       	ldi	r21, 0x00	; 0
     7d4:	0e 94 cd 23 	call	0x479a	; 0x479a <itoa>
     7d8:	8c 85       	ldd	r24, Y+12	; 0x0c
     7da:	9d 85       	ldd	r25, Y+13	; 0x0d
     7dc:	fc 01       	movw	r30, r24
     7de:	84 81       	ldd	r24, Z+4	; 0x04
     7e0:	95 81       	ldd	r25, Z+5	; 0x05
     7e2:	9e 01       	movw	r18, r28
     7e4:	29 5f       	subi	r18, 0xF9	; 249
     7e6:	3f 4f       	sbci	r19, 0xFF	; 255
     7e8:	b9 01       	movw	r22, r18
     7ea:	4a e0       	ldi	r20, 0x0A	; 10
     7ec:	50 e0       	ldi	r21, 0x00	; 0
     7ee:	0e 94 cd 23 	call	0x479a	; 0x479a <itoa>
     7f2:	8c 85       	ldd	r24, Y+12	; 0x0c
     7f4:	9d 85       	ldd	r25, Y+13	; 0x0d
     7f6:	06 96       	adiw	r24, 0x06	; 6
     7f8:	9e 01       	movw	r18, r28
     7fa:	2f 5f       	subi	r18, 0xFF	; 255
     7fc:	3f 4f       	sbci	r19, 0xFF	; 255
     7fe:	b9 01       	movw	r22, r18
     800:	0e 94 b8 23 	call	0x4770	; 0x4770 <strcpy>
     804:	8c 85       	ldd	r24, Y+12	; 0x0c
     806:	9d 85       	ldd	r25, Y+13	; 0x0d
     808:	9c 01       	movw	r18, r24
     80a:	2a 5f       	subi	r18, 0xFA	; 250
     80c:	3f 4f       	sbci	r19, 0xFF	; 255
     80e:	c9 01       	movw	r24, r18
     810:	ac 01       	movw	r20, r24
     812:	fa 01       	movw	r30, r20
     814:	01 90       	ld	r0, Z+
     816:	00 20       	and	r0, r0
     818:	e9 f7       	brne	.-6      	; 0x814 <_ZN6myDate7getDateEv+0x88>
     81a:	cf 01       	movw	r24, r30
     81c:	01 97       	sbiw	r24, 0x01	; 1
     81e:	84 1b       	sub	r24, r20
     820:	95 0b       	sbc	r25, r21
     822:	82 0f       	add	r24, r18
     824:	93 1f       	adc	r25, r19
     826:	2c e2       	ldi	r18, 0x2C	; 44
     828:	30 e0       	ldi	r19, 0x00	; 0
     82a:	fc 01       	movw	r30, r24
     82c:	31 83       	std	Z+1, r19	; 0x01
     82e:	20 83       	st	Z, r18
     830:	8c 85       	ldd	r24, Y+12	; 0x0c
     832:	9d 85       	ldd	r25, Y+13	; 0x0d
     834:	06 96       	adiw	r24, 0x06	; 6
     836:	9e 01       	movw	r18, r28
     838:	2c 5f       	subi	r18, 0xFC	; 252
     83a:	3f 4f       	sbci	r19, 0xFF	; 255
     83c:	b9 01       	movw	r22, r18
     83e:	0e 94 a4 23 	call	0x4748	; 0x4748 <strcat>
     842:	8c 85       	ldd	r24, Y+12	; 0x0c
     844:	9d 85       	ldd	r25, Y+13	; 0x0d
     846:	9c 01       	movw	r18, r24
     848:	2a 5f       	subi	r18, 0xFA	; 250
     84a:	3f 4f       	sbci	r19, 0xFF	; 255
     84c:	c9 01       	movw	r24, r18
     84e:	ac 01       	movw	r20, r24
     850:	fa 01       	movw	r30, r20
     852:	01 90       	ld	r0, Z+
     854:	00 20       	and	r0, r0
     856:	e9 f7       	brne	.-6      	; 0x852 <_ZN6myDate7getDateEv+0xc6>
     858:	cf 01       	movw	r24, r30
     85a:	01 97       	sbiw	r24, 0x01	; 1
     85c:	84 1b       	sub	r24, r20
     85e:	95 0b       	sbc	r25, r21
     860:	82 0f       	add	r24, r18
     862:	93 1f       	adc	r25, r19
     864:	2c e2       	ldi	r18, 0x2C	; 44
     866:	30 e0       	ldi	r19, 0x00	; 0
     868:	fc 01       	movw	r30, r24
     86a:	31 83       	std	Z+1, r19	; 0x01
     86c:	20 83       	st	Z, r18
     86e:	8c 85       	ldd	r24, Y+12	; 0x0c
     870:	9d 85       	ldd	r25, Y+13	; 0x0d
     872:	06 96       	adiw	r24, 0x06	; 6
     874:	9e 01       	movw	r18, r28
     876:	29 5f       	subi	r18, 0xF9	; 249
     878:	3f 4f       	sbci	r19, 0xFF	; 255
     87a:	b9 01       	movw	r22, r18
     87c:	0e 94 a4 23 	call	0x4748	; 0x4748 <strcat>
     880:	8c 85       	ldd	r24, Y+12	; 0x0c
     882:	9d 85       	ldd	r25, Y+13	; 0x0d
     884:	fc 01       	movw	r30, r24
     886:	16 8a       	std	Z+22, r1	; 0x16
     888:	8c 85       	ldd	r24, Y+12	; 0x0c
     88a:	9d 85       	ldd	r25, Y+13	; 0x0d
     88c:	06 96       	adiw	r24, 0x06	; 6
     88e:	2d 96       	adiw	r28, 0x0d	; 13
     890:	0f b6       	in	r0, 0x3f	; 63
     892:	f8 94       	cli
     894:	de bf       	out	0x3e, r29	; 62
     896:	0f be       	out	0x3f, r0	; 63
     898:	cd bf       	out	0x3d, r28	; 61
     89a:	df 91       	pop	r29
     89c:	cf 91       	pop	r28
     89e:	08 95       	ret

000008a0 <_ZN6myTimeC1Ev>:
     8a0:	cf 93       	push	r28
     8a2:	df 93       	push	r29
     8a4:	0f 92       	push	r0
     8a6:	0f 92       	push	r0
     8a8:	cd b7       	in	r28, 0x3d	; 61
     8aa:	de b7       	in	r29, 0x3e	; 62
     8ac:	9a 83       	std	Y+2, r25	; 0x02
     8ae:	89 83       	std	Y+1, r24	; 0x01
     8b0:	89 81       	ldd	r24, Y+1	; 0x01
     8b2:	9a 81       	ldd	r25, Y+2	; 0x02
     8b4:	0e 94 a8 00 	call	0x150	; 0x150 <_ZN6myDateC1Ev>
     8b8:	89 81       	ldd	r24, Y+1	; 0x01
     8ba:	9a 81       	ldd	r25, Y+2	; 0x02
     8bc:	60 e0       	ldi	r22, 0x00	; 0
     8be:	70 e0       	ldi	r23, 0x00	; 0
     8c0:	40 e0       	ldi	r20, 0x00	; 0
     8c2:	50 e0       	ldi	r21, 0x00	; 0
     8c4:	20 e0       	ldi	r18, 0x00	; 0
     8c6:	30 e0       	ldi	r19, 0x00	; 0
     8c8:	0e 94 98 05 	call	0xb30	; 0xb30 <_ZN6myTime7setTimeEiii>
     8cc:	0f 90       	pop	r0
     8ce:	0f 90       	pop	r0
     8d0:	df 91       	pop	r29
     8d2:	cf 91       	pop	r28
     8d4:	08 95       	ret

000008d6 <_ZN6myTimeC1Eiii>:
     8d6:	cf 93       	push	r28
     8d8:	df 93       	push	r29
     8da:	cd b7       	in	r28, 0x3d	; 61
     8dc:	de b7       	in	r29, 0x3e	; 62
     8de:	28 97       	sbiw	r28, 0x08	; 8
     8e0:	0f b6       	in	r0, 0x3f	; 63
     8e2:	f8 94       	cli
     8e4:	de bf       	out	0x3e, r29	; 62
     8e6:	0f be       	out	0x3f, r0	; 63
     8e8:	cd bf       	out	0x3d, r28	; 61
     8ea:	9a 83       	std	Y+2, r25	; 0x02
     8ec:	89 83       	std	Y+1, r24	; 0x01
     8ee:	7c 83       	std	Y+4, r23	; 0x04
     8f0:	6b 83       	std	Y+3, r22	; 0x03
     8f2:	5e 83       	std	Y+6, r21	; 0x06
     8f4:	4d 83       	std	Y+5, r20	; 0x05
     8f6:	38 87       	std	Y+8, r19	; 0x08
     8f8:	2f 83       	std	Y+7, r18	; 0x07
     8fa:	89 81       	ldd	r24, Y+1	; 0x01
     8fc:	9a 81       	ldd	r25, Y+2	; 0x02
     8fe:	0e 94 a8 00 	call	0x150	; 0x150 <_ZN6myDateC1Ev>
     902:	89 81       	ldd	r24, Y+1	; 0x01
     904:	9a 81       	ldd	r25, Y+2	; 0x02
     906:	6b 81       	ldd	r22, Y+3	; 0x03
     908:	7c 81       	ldd	r23, Y+4	; 0x04
     90a:	4d 81       	ldd	r20, Y+5	; 0x05
     90c:	5e 81       	ldd	r21, Y+6	; 0x06
     90e:	2f 81       	ldd	r18, Y+7	; 0x07
     910:	38 85       	ldd	r19, Y+8	; 0x08
     912:	0e 94 98 05 	call	0xb30	; 0xb30 <_ZN6myTime7setTimeEiii>
     916:	28 96       	adiw	r28, 0x08	; 8
     918:	0f b6       	in	r0, 0x3f	; 63
     91a:	f8 94       	cli
     91c:	de bf       	out	0x3e, r29	; 62
     91e:	0f be       	out	0x3f, r0	; 63
     920:	cd bf       	out	0x3d, r28	; 61
     922:	df 91       	pop	r29
     924:	cf 91       	pop	r28
     926:	08 95       	ret

00000928 <_ZN6myTimeC1Eiiiiii>:
     928:	cf 92       	push	r12
     92a:	df 92       	push	r13
     92c:	ef 92       	push	r14
     92e:	ff 92       	push	r15
     930:	0f 93       	push	r16
     932:	1f 93       	push	r17
     934:	cf 93       	push	r28
     936:	df 93       	push	r29
     938:	cd b7       	in	r28, 0x3d	; 61
     93a:	de b7       	in	r29, 0x3e	; 62
     93c:	2e 97       	sbiw	r28, 0x0e	; 14
     93e:	0f b6       	in	r0, 0x3f	; 63
     940:	f8 94       	cli
     942:	de bf       	out	0x3e, r29	; 62
     944:	0f be       	out	0x3f, r0	; 63
     946:	cd bf       	out	0x3d, r28	; 61
     948:	9a 83       	std	Y+2, r25	; 0x02
     94a:	89 83       	std	Y+1, r24	; 0x01
     94c:	7c 83       	std	Y+4, r23	; 0x04
     94e:	6b 83       	std	Y+3, r22	; 0x03
     950:	5e 83       	std	Y+6, r21	; 0x06
     952:	4d 83       	std	Y+5, r20	; 0x05
     954:	38 87       	std	Y+8, r19	; 0x08
     956:	2f 83       	std	Y+7, r18	; 0x07
     958:	1a 87       	std	Y+10, r17	; 0x0a
     95a:	09 87       	std	Y+9, r16	; 0x09
     95c:	fc 86       	std	Y+12, r15	; 0x0c
     95e:	eb 86       	std	Y+11, r14	; 0x0b
     960:	de 86       	std	Y+14, r13	; 0x0e
     962:	cd 86       	std	Y+13, r12	; 0x0d
     964:	89 81       	ldd	r24, Y+1	; 0x01
     966:	9a 81       	ldd	r25, Y+2	; 0x02
     968:	69 85       	ldd	r22, Y+9	; 0x09
     96a:	7a 85       	ldd	r23, Y+10	; 0x0a
     96c:	4b 85       	ldd	r20, Y+11	; 0x0b
     96e:	5c 85       	ldd	r21, Y+12	; 0x0c
     970:	2d 85       	ldd	r18, Y+13	; 0x0d
     972:	3e 85       	ldd	r19, Y+14	; 0x0e
     974:	0e 94 c4 00 	call	0x188	; 0x188 <_ZN6myDateC1Eiii>
     978:	89 81       	ldd	r24, Y+1	; 0x01
     97a:	9a 81       	ldd	r25, Y+2	; 0x02
     97c:	6b 81       	ldd	r22, Y+3	; 0x03
     97e:	7c 81       	ldd	r23, Y+4	; 0x04
     980:	4d 81       	ldd	r20, Y+5	; 0x05
     982:	5e 81       	ldd	r21, Y+6	; 0x06
     984:	2f 81       	ldd	r18, Y+7	; 0x07
     986:	38 85       	ldd	r19, Y+8	; 0x08
     988:	0e 94 98 05 	call	0xb30	; 0xb30 <_ZN6myTime7setTimeEiii>
     98c:	2e 96       	adiw	r28, 0x0e	; 14
     98e:	0f b6       	in	r0, 0x3f	; 63
     990:	f8 94       	cli
     992:	de bf       	out	0x3e, r29	; 62
     994:	0f be       	out	0x3f, r0	; 63
     996:	cd bf       	out	0x3d, r28	; 61
     998:	df 91       	pop	r29
     99a:	cf 91       	pop	r28
     99c:	1f 91       	pop	r17
     99e:	0f 91       	pop	r16
     9a0:	ff 90       	pop	r15
     9a2:	ef 90       	pop	r14
     9a4:	df 90       	pop	r13
     9a6:	cf 90       	pop	r12
     9a8:	08 95       	ret

000009aa <_ZN6myTime10getSecondsEv>:
     9aa:	cf 93       	push	r28
     9ac:	df 93       	push	r29
     9ae:	0f 92       	push	r0
     9b0:	0f 92       	push	r0
     9b2:	cd b7       	in	r28, 0x3d	; 61
     9b4:	de b7       	in	r29, 0x3e	; 62
     9b6:	9a 83       	std	Y+2, r25	; 0x02
     9b8:	89 83       	std	Y+1, r24	; 0x01
     9ba:	89 81       	ldd	r24, Y+1	; 0x01
     9bc:	9a 81       	ldd	r25, Y+2	; 0x02
     9be:	fc 01       	movw	r30, r24
     9c0:	83 8d       	ldd	r24, Z+27	; 0x1b
     9c2:	94 8d       	ldd	r25, Z+28	; 0x1c
     9c4:	0f 90       	pop	r0
     9c6:	0f 90       	pop	r0
     9c8:	df 91       	pop	r29
     9ca:	cf 91       	pop	r28
     9cc:	08 95       	ret

000009ce <_ZN6myTime10getMinutesEv>:
     9ce:	cf 93       	push	r28
     9d0:	df 93       	push	r29
     9d2:	0f 92       	push	r0
     9d4:	0f 92       	push	r0
     9d6:	cd b7       	in	r28, 0x3d	; 61
     9d8:	de b7       	in	r29, 0x3e	; 62
     9da:	9a 83       	std	Y+2, r25	; 0x02
     9dc:	89 83       	std	Y+1, r24	; 0x01
     9de:	89 81       	ldd	r24, Y+1	; 0x01
     9e0:	9a 81       	ldd	r25, Y+2	; 0x02
     9e2:	fc 01       	movw	r30, r24
     9e4:	81 8d       	ldd	r24, Z+25	; 0x19
     9e6:	92 8d       	ldd	r25, Z+26	; 0x1a
     9e8:	0f 90       	pop	r0
     9ea:	0f 90       	pop	r0
     9ec:	df 91       	pop	r29
     9ee:	cf 91       	pop	r28
     9f0:	08 95       	ret

000009f2 <_ZN6myTime8getHoursEv>:
     9f2:	cf 93       	push	r28
     9f4:	df 93       	push	r29
     9f6:	0f 92       	push	r0
     9f8:	0f 92       	push	r0
     9fa:	cd b7       	in	r28, 0x3d	; 61
     9fc:	de b7       	in	r29, 0x3e	; 62
     9fe:	9a 83       	std	Y+2, r25	; 0x02
     a00:	89 83       	std	Y+1, r24	; 0x01
     a02:	89 81       	ldd	r24, Y+1	; 0x01
     a04:	9a 81       	ldd	r25, Y+2	; 0x02
     a06:	fc 01       	movw	r30, r24
     a08:	87 89       	ldd	r24, Z+23	; 0x17
     a0a:	90 8d       	ldd	r25, Z+24	; 0x18
     a0c:	0f 90       	pop	r0
     a0e:	0f 90       	pop	r0
     a10:	df 91       	pop	r29
     a12:	cf 91       	pop	r28
     a14:	08 95       	ret

00000a16 <_ZN6myTime7setTimeEPc>:
     a16:	cf 93       	push	r28
     a18:	df 93       	push	r29
     a1a:	cd b7       	in	r28, 0x3d	; 61
     a1c:	de b7       	in	r29, 0x3e	; 62
     a1e:	a2 97       	sbiw	r28, 0x22	; 34
     a20:	0f b6       	in	r0, 0x3f	; 63
     a22:	f8 94       	cli
     a24:	de bf       	out	0x3e, r29	; 62
     a26:	0f be       	out	0x3f, r0	; 63
     a28:	cd bf       	out	0x3d, r28	; 61
     a2a:	98 a3       	lds	r25, 0x58
     a2c:	8f 8f       	std	Y+31, r24	; 0x1f
     a2e:	7a a3       	lds	r23, 0x5a
     a30:	69 a3       	lds	r22, 0x59
     a32:	ce 01       	movw	r24, r28
     a34:	0b 96       	adiw	r24, 0x0b	; 11
     a36:	29 a1       	lds	r18, 0x49
     a38:	3a a1       	lds	r19, 0x4a
     a3a:	b9 01       	movw	r22, r18
     a3c:	0e 94 b8 23 	call	0x4770	; 0x4770 <strcpy>
     a40:	1a 82       	std	Y+2, r1	; 0x02
     a42:	19 82       	std	Y+1, r1	; 0x01
     a44:	43 c0       	rjmp	.+134    	; 0xacc <_ZN6myTime7setTimeEPc+0xb6>
     a46:	1c 82       	std	Y+4, r1	; 0x04
     a48:	1b 82       	std	Y+3, r1	; 0x03
     a4a:	20 c0       	rjmp	.+64     	; 0xa8c <_ZN6myTime7setTimeEPc+0x76>
     a4c:	29 81       	ldd	r18, Y+1	; 0x01
     a4e:	3a 81       	ldd	r19, Y+2	; 0x02
     a50:	c9 01       	movw	r24, r18
     a52:	88 0f       	add	r24, r24
     a54:	99 1f       	adc	r25, r25
     a56:	28 0f       	add	r18, r24
     a58:	39 1f       	adc	r19, r25
     a5a:	8b 81       	ldd	r24, Y+3	; 0x03
     a5c:	9c 81       	ldd	r25, Y+4	; 0x04
     a5e:	82 0f       	add	r24, r18
     a60:	93 1f       	adc	r25, r19
     a62:	9e 01       	movw	r18, r28
     a64:	25 5f       	subi	r18, 0xF5	; 245
     a66:	3f 4f       	sbci	r19, 0xFF	; 255
     a68:	82 0f       	add	r24, r18
     a6a:	93 1f       	adc	r25, r19
     a6c:	fc 01       	movw	r30, r24
     a6e:	40 81       	ld	r20, Z
     a70:	9e 01       	movw	r18, r28
     a72:	2b 5e       	subi	r18, 0xEB	; 235
     a74:	3f 4f       	sbci	r19, 0xFF	; 255
     a76:	8b 81       	ldd	r24, Y+3	; 0x03
     a78:	9c 81       	ldd	r25, Y+4	; 0x04
     a7a:	82 0f       	add	r24, r18
     a7c:	93 1f       	adc	r25, r19
     a7e:	fc 01       	movw	r30, r24
     a80:	40 83       	st	Z, r20
     a82:	8b 81       	ldd	r24, Y+3	; 0x03
     a84:	9c 81       	ldd	r25, Y+4	; 0x04
     a86:	01 96       	adiw	r24, 0x01	; 1
     a88:	9c 83       	std	Y+4, r25	; 0x04
     a8a:	8b 83       	std	Y+3, r24	; 0x03
     a8c:	21 e0       	ldi	r18, 0x01	; 1
     a8e:	8b 81       	ldd	r24, Y+3	; 0x03
     a90:	9c 81       	ldd	r25, Y+4	; 0x04
     a92:	82 30       	cpi	r24, 0x02	; 2
     a94:	91 05       	cpc	r25, r1
     a96:	0c f0       	brlt	.+2      	; 0xa9a <_ZN6myTime7setTimeEPc+0x84>
     a98:	20 e0       	ldi	r18, 0x00	; 0
     a9a:	22 23       	and	r18, r18
     a9c:	b9 f6       	brne	.-82     	; 0xa4c <_ZN6myTime7setTimeEPc+0x36>
     a9e:	ce 01       	movw	r24, r28
     aa0:	45 96       	adiw	r24, 0x15	; 21
     aa2:	0e 94 86 23 	call	0x470c	; 0x470c <atoi>
     aa6:	9c 01       	movw	r18, r24
     aa8:	89 81       	ldd	r24, Y+1	; 0x01
     aaa:	9a 81       	ldd	r25, Y+2	; 0x02
     aac:	88 0f       	add	r24, r24
     aae:	99 1f       	adc	r25, r25
     ab0:	ae 01       	movw	r20, r28
     ab2:	4f 5f       	subi	r20, 0xFF	; 255
     ab4:	5f 4f       	sbci	r21, 0xFF	; 255
     ab6:	84 0f       	add	r24, r20
     ab8:	95 1f       	adc	r25, r21
     aba:	04 96       	adiw	r24, 0x04	; 4
     abc:	fc 01       	movw	r30, r24
     abe:	31 83       	std	Z+1, r19	; 0x01
     ac0:	20 83       	st	Z, r18
     ac2:	89 81       	ldd	r24, Y+1	; 0x01
     ac4:	9a 81       	ldd	r25, Y+2	; 0x02
     ac6:	01 96       	adiw	r24, 0x01	; 1
     ac8:	9a 83       	std	Y+2, r25	; 0x02
     aca:	89 83       	std	Y+1, r24	; 0x01
     acc:	21 e0       	ldi	r18, 0x01	; 1
     ace:	89 81       	ldd	r24, Y+1	; 0x01
     ad0:	9a 81       	ldd	r25, Y+2	; 0x02
     ad2:	83 30       	cpi	r24, 0x03	; 3
     ad4:	91 05       	cpc	r25, r1
     ad6:	0c f0       	brlt	.+2      	; 0xada <_ZN6myTime7setTimeEPc+0xc4>
     ad8:	20 e0       	ldi	r18, 0x00	; 0
     ada:	22 23       	and	r18, r18
     adc:	09 f0       	breq	.+2      	; 0xae0 <_ZN6myTime7setTimeEPc+0xca>
     ade:	b3 cf       	rjmp	.-154    	; 0xa46 <_ZN6myTime7setTimeEPc+0x30>
     ae0:	8d 81       	ldd	r24, Y+5	; 0x05
     ae2:	9e 81       	ldd	r25, Y+6	; 0x06
     ae4:	47 96       	adiw	r24, 0x17	; 23
     ae6:	8f 32       	cpi	r24, 0x2F	; 47
     ae8:	91 05       	cpc	r25, r1
     aea:	c0 f4       	brcc	.+48     	; 0xb1c <_ZN6myTime7setTimeEPc+0x106>
     aec:	8f 81       	ldd	r24, Y+7	; 0x07
     aee:	98 85       	ldd	r25, Y+8	; 0x08
     af0:	cb 96       	adiw	r24, 0x3b	; 59
     af2:	87 37       	cpi	r24, 0x77	; 119
     af4:	91 05       	cpc	r25, r1
     af6:	90 f4       	brcc	.+36     	; 0xb1c <_ZN6myTime7setTimeEPc+0x106>
     af8:	89 85       	ldd	r24, Y+9	; 0x09
     afa:	9a 85       	ldd	r25, Y+10	; 0x0a
     afc:	cb 96       	adiw	r24, 0x3b	; 59
     afe:	87 37       	cpi	r24, 0x77	; 119
     b00:	91 05       	cpc	r25, r1
     b02:	60 f4       	brcc	.+24     	; 0xb1c <_ZN6myTime7setTimeEPc+0x106>
     b04:	6d 81       	ldd	r22, Y+5	; 0x05
     b06:	7e 81       	ldd	r23, Y+6	; 0x06
     b08:	4f 81       	ldd	r20, Y+7	; 0x07
     b0a:	58 85       	ldd	r21, Y+8	; 0x08
     b0c:	29 85       	ldd	r18, Y+9	; 0x09
     b0e:	3a 85       	ldd	r19, Y+10	; 0x0a
     b10:	8f 8d       	ldd	r24, Y+31	; 0x1f
     b12:	98 a1       	lds	r25, 0x48
     b14:	0e 94 98 05 	call	0xb30	; 0xb30 <_ZN6myTime7setTimeEiii>
     b18:	81 e0       	ldi	r24, 0x01	; 1
     b1a:	01 c0       	rjmp	.+2      	; 0xb1e <_ZN6myTime7setTimeEPc+0x108>
     b1c:	80 e0       	ldi	r24, 0x00	; 0
     b1e:	a2 96       	adiw	r28, 0x22	; 34
     b20:	0f b6       	in	r0, 0x3f	; 63
     b22:	f8 94       	cli
     b24:	de bf       	out	0x3e, r29	; 62
     b26:	0f be       	out	0x3f, r0	; 63
     b28:	cd bf       	out	0x3d, r28	; 61
     b2a:	df 91       	pop	r29
     b2c:	cf 91       	pop	r28
     b2e:	08 95       	ret

00000b30 <_ZN6myTime7setTimeEiii>:
     b30:	cf 93       	push	r28
     b32:	df 93       	push	r29
     b34:	cd b7       	in	r28, 0x3d	; 61
     b36:	de b7       	in	r29, 0x3e	; 62
     b38:	28 97       	sbiw	r28, 0x08	; 8
     b3a:	0f b6       	in	r0, 0x3f	; 63
     b3c:	f8 94       	cli
     b3e:	de bf       	out	0x3e, r29	; 62
     b40:	0f be       	out	0x3f, r0	; 63
     b42:	cd bf       	out	0x3d, r28	; 61
     b44:	9a 83       	std	Y+2, r25	; 0x02
     b46:	89 83       	std	Y+1, r24	; 0x01
     b48:	7c 83       	std	Y+4, r23	; 0x04
     b4a:	6b 83       	std	Y+3, r22	; 0x03
     b4c:	5e 83       	std	Y+6, r21	; 0x06
     b4e:	4d 83       	std	Y+5, r20	; 0x05
     b50:	38 87       	std	Y+8, r19	; 0x08
     b52:	2f 83       	std	Y+7, r18	; 0x07
     b54:	89 81       	ldd	r24, Y+1	; 0x01
     b56:	9a 81       	ldd	r25, Y+2	; 0x02
     b58:	2b 81       	ldd	r18, Y+3	; 0x03
     b5a:	3c 81       	ldd	r19, Y+4	; 0x04
     b5c:	b9 01       	movw	r22, r18
     b5e:	0e 94 c8 05 	call	0xb90	; 0xb90 <_ZN6myTime7setHourEi>
     b62:	89 81       	ldd	r24, Y+1	; 0x01
     b64:	9a 81       	ldd	r25, Y+2	; 0x02
     b66:	2d 81       	ldd	r18, Y+5	; 0x05
     b68:	3e 81       	ldd	r19, Y+6	; 0x06
     b6a:	b9 01       	movw	r22, r18
     b6c:	0e 94 e6 05 	call	0xbcc	; 0xbcc <_ZN6myTime9setMinuteEi>
     b70:	89 81       	ldd	r24, Y+1	; 0x01
     b72:	9a 81       	ldd	r25, Y+2	; 0x02
     b74:	2f 81       	ldd	r18, Y+7	; 0x07
     b76:	38 85       	ldd	r19, Y+8	; 0x08
     b78:	b9 01       	movw	r22, r18
     b7a:	0e 94 04 06 	call	0xc08	; 0xc08 <_ZN6myTime9setSecondEi>
     b7e:	28 96       	adiw	r28, 0x08	; 8
     b80:	0f b6       	in	r0, 0x3f	; 63
     b82:	f8 94       	cli
     b84:	de bf       	out	0x3e, r29	; 62
     b86:	0f be       	out	0x3f, r0	; 63
     b88:	cd bf       	out	0x3d, r28	; 61
     b8a:	df 91       	pop	r29
     b8c:	cf 91       	pop	r28
     b8e:	08 95       	ret

00000b90 <_ZN6myTime7setHourEi>:
     b90:	cf 93       	push	r28
     b92:	df 93       	push	r29
     b94:	00 d0       	rcall	.+0      	; 0xb96 <_ZN6myTime7setHourEi+0x6>
     b96:	0f 92       	push	r0
     b98:	cd b7       	in	r28, 0x3d	; 61
     b9a:	de b7       	in	r29, 0x3e	; 62
     b9c:	9a 83       	std	Y+2, r25	; 0x02
     b9e:	89 83       	std	Y+1, r24	; 0x01
     ba0:	7c 83       	std	Y+4, r23	; 0x04
     ba2:	6b 83       	std	Y+3, r22	; 0x03
     ba4:	8b 81       	ldd	r24, Y+3	; 0x03
     ba6:	9c 81       	ldd	r25, Y+4	; 0x04
     ba8:	47 96       	adiw	r24, 0x17	; 23
     baa:	8f 32       	cpi	r24, 0x2F	; 47
     bac:	91 05       	cpc	r25, r1
     bae:	38 f4       	brcc	.+14     	; 0xbbe <_ZN6myTime7setHourEi+0x2e>
     bb0:	89 81       	ldd	r24, Y+1	; 0x01
     bb2:	9a 81       	ldd	r25, Y+2	; 0x02
     bb4:	2b 81       	ldd	r18, Y+3	; 0x03
     bb6:	3c 81       	ldd	r19, Y+4	; 0x04
     bb8:	fc 01       	movw	r30, r24
     bba:	30 8f       	std	Z+24, r19	; 0x18
     bbc:	27 8b       	std	Z+23, r18	; 0x17
     bbe:	0f 90       	pop	r0
     bc0:	0f 90       	pop	r0
     bc2:	0f 90       	pop	r0
     bc4:	0f 90       	pop	r0
     bc6:	df 91       	pop	r29
     bc8:	cf 91       	pop	r28
     bca:	08 95       	ret

00000bcc <_ZN6myTime9setMinuteEi>:
     bcc:	cf 93       	push	r28
     bce:	df 93       	push	r29
     bd0:	00 d0       	rcall	.+0      	; 0xbd2 <_ZN6myTime9setMinuteEi+0x6>
     bd2:	0f 92       	push	r0
     bd4:	cd b7       	in	r28, 0x3d	; 61
     bd6:	de b7       	in	r29, 0x3e	; 62
     bd8:	9a 83       	std	Y+2, r25	; 0x02
     bda:	89 83       	std	Y+1, r24	; 0x01
     bdc:	7c 83       	std	Y+4, r23	; 0x04
     bde:	6b 83       	std	Y+3, r22	; 0x03
     be0:	8b 81       	ldd	r24, Y+3	; 0x03
     be2:	9c 81       	ldd	r25, Y+4	; 0x04
     be4:	cb 96       	adiw	r24, 0x3b	; 59
     be6:	87 37       	cpi	r24, 0x77	; 119
     be8:	91 05       	cpc	r25, r1
     bea:	38 f4       	brcc	.+14     	; 0xbfa <_ZN6myTime9setMinuteEi+0x2e>
     bec:	89 81       	ldd	r24, Y+1	; 0x01
     bee:	9a 81       	ldd	r25, Y+2	; 0x02
     bf0:	2b 81       	ldd	r18, Y+3	; 0x03
     bf2:	3c 81       	ldd	r19, Y+4	; 0x04
     bf4:	fc 01       	movw	r30, r24
     bf6:	32 8f       	std	Z+26, r19	; 0x1a
     bf8:	21 8f       	std	Z+25, r18	; 0x19
     bfa:	0f 90       	pop	r0
     bfc:	0f 90       	pop	r0
     bfe:	0f 90       	pop	r0
     c00:	0f 90       	pop	r0
     c02:	df 91       	pop	r29
     c04:	cf 91       	pop	r28
     c06:	08 95       	ret

00000c08 <_ZN6myTime9setSecondEi>:
     c08:	cf 93       	push	r28
     c0a:	df 93       	push	r29
     c0c:	00 d0       	rcall	.+0      	; 0xc0e <_ZN6myTime9setSecondEi+0x6>
     c0e:	0f 92       	push	r0
     c10:	cd b7       	in	r28, 0x3d	; 61
     c12:	de b7       	in	r29, 0x3e	; 62
     c14:	9a 83       	std	Y+2, r25	; 0x02
     c16:	89 83       	std	Y+1, r24	; 0x01
     c18:	7c 83       	std	Y+4, r23	; 0x04
     c1a:	6b 83       	std	Y+3, r22	; 0x03
     c1c:	8b 81       	ldd	r24, Y+3	; 0x03
     c1e:	9c 81       	ldd	r25, Y+4	; 0x04
     c20:	cb 96       	adiw	r24, 0x3b	; 59
     c22:	87 37       	cpi	r24, 0x77	; 119
     c24:	91 05       	cpc	r25, r1
     c26:	38 f4       	brcc	.+14     	; 0xc36 <_ZN6myTime9setSecondEi+0x2e>
     c28:	89 81       	ldd	r24, Y+1	; 0x01
     c2a:	9a 81       	ldd	r25, Y+2	; 0x02
     c2c:	2b 81       	ldd	r18, Y+3	; 0x03
     c2e:	3c 81       	ldd	r19, Y+4	; 0x04
     c30:	fc 01       	movw	r30, r24
     c32:	34 8f       	std	Z+28, r19	; 0x1c
     c34:	23 8f       	std	Z+27, r18	; 0x1b
     c36:	0f 90       	pop	r0
     c38:	0f 90       	pop	r0
     c3a:	0f 90       	pop	r0
     c3c:	0f 90       	pop	r0
     c3e:	df 91       	pop	r29
     c40:	cf 91       	pop	r28
     c42:	08 95       	ret

00000c44 <_ZN6myTime8addHoursEi>:
     c44:	cf 93       	push	r28
     c46:	df 93       	push	r29
     c48:	cd b7       	in	r28, 0x3d	; 61
     c4a:	de b7       	in	r29, 0x3e	; 62
     c4c:	28 97       	sbiw	r28, 0x08	; 8
     c4e:	0f b6       	in	r0, 0x3f	; 63
     c50:	f8 94       	cli
     c52:	de bf       	out	0x3e, r29	; 62
     c54:	0f be       	out	0x3f, r0	; 63
     c56:	cd bf       	out	0x3d, r28	; 61
     c58:	9e 83       	std	Y+6, r25	; 0x06
     c5a:	8d 83       	std	Y+5, r24	; 0x05
     c5c:	78 87       	std	Y+8, r23	; 0x08
     c5e:	6f 83       	std	Y+7, r22	; 0x07
     c60:	8d 81       	ldd	r24, Y+5	; 0x05
     c62:	9e 81       	ldd	r25, Y+6	; 0x06
     c64:	fc 01       	movw	r30, r24
     c66:	27 89       	ldd	r18, Z+23	; 0x17
     c68:	30 8d       	ldd	r19, Z+24	; 0x18
     c6a:	8f 81       	ldd	r24, Y+7	; 0x07
     c6c:	98 85       	ldd	r25, Y+8	; 0x08
     c6e:	82 0f       	add	r24, r18
     c70:	93 1f       	adc	r25, r19
     c72:	9a 83       	std	Y+2, r25	; 0x02
     c74:	89 83       	std	Y+1, r24	; 0x01
     c76:	89 81       	ldd	r24, Y+1	; 0x01
     c78:	9a 81       	ldd	r25, Y+2	; 0x02
     c7a:	28 e1       	ldi	r18, 0x18	; 24
     c7c:	30 e0       	ldi	r19, 0x00	; 0
     c7e:	b9 01       	movw	r22, r18
     c80:	0e 94 6f 23 	call	0x46de	; 0x46de <__divmodhi4>
     c84:	9c 01       	movw	r18, r24
     c86:	8d 81       	ldd	r24, Y+5	; 0x05
     c88:	9e 81       	ldd	r25, Y+6	; 0x06
     c8a:	fc 01       	movw	r30, r24
     c8c:	30 8f       	std	Z+24, r19	; 0x18
     c8e:	27 8b       	std	Z+23, r18	; 0x17
     c90:	89 81       	ldd	r24, Y+1	; 0x01
     c92:	9a 81       	ldd	r25, Y+2	; 0x02
     c94:	21 e0       	ldi	r18, 0x01	; 1
     c96:	88 31       	cpi	r24, 0x18	; 24
     c98:	91 05       	cpc	r25, r1
     c9a:	0c f4       	brge	.+2      	; 0xc9e <_ZN6myTime8addHoursEi+0x5a>
     c9c:	20 e0       	ldi	r18, 0x00	; 0
     c9e:	22 23       	and	r18, r18
     ca0:	91 f0       	breq	.+36     	; 0xcc6 <_ZN6myTime8addHoursEi+0x82>
     ca2:	89 81       	ldd	r24, Y+1	; 0x01
     ca4:	9a 81       	ldd	r25, Y+2	; 0x02
     ca6:	28 e1       	ldi	r18, 0x18	; 24
     ca8:	30 e0       	ldi	r19, 0x00	; 0
     caa:	b9 01       	movw	r22, r18
     cac:	0e 94 6f 23 	call	0x46de	; 0x46de <__divmodhi4>
     cb0:	9b 01       	movw	r18, r22
     cb2:	c9 01       	movw	r24, r18
     cb4:	9c 83       	std	Y+4, r25	; 0x04
     cb6:	8b 83       	std	Y+3, r24	; 0x03
     cb8:	8d 81       	ldd	r24, Y+5	; 0x05
     cba:	9e 81       	ldd	r25, Y+6	; 0x06
     cbc:	2b 81       	ldd	r18, Y+3	; 0x03
     cbe:	3c 81       	ldd	r19, Y+4	; 0x04
     cc0:	b9 01       	movw	r22, r18
     cc2:	0e 94 85 02 	call	0x50a	; 0x50a <_ZN6myDate7addDaysEi>
     cc6:	28 96       	adiw	r28, 0x08	; 8
     cc8:	0f b6       	in	r0, 0x3f	; 63
     cca:	f8 94       	cli
     ccc:	de bf       	out	0x3e, r29	; 62
     cce:	0f be       	out	0x3f, r0	; 63
     cd0:	cd bf       	out	0x3d, r28	; 61
     cd2:	df 91       	pop	r29
     cd4:	cf 91       	pop	r28
     cd6:	08 95       	ret

00000cd8 <_ZN6myTime10addMinutesEi>:
     cd8:	cf 93       	push	r28
     cda:	df 93       	push	r29
     cdc:	cd b7       	in	r28, 0x3d	; 61
     cde:	de b7       	in	r29, 0x3e	; 62
     ce0:	28 97       	sbiw	r28, 0x08	; 8
     ce2:	0f b6       	in	r0, 0x3f	; 63
     ce4:	f8 94       	cli
     ce6:	de bf       	out	0x3e, r29	; 62
     ce8:	0f be       	out	0x3f, r0	; 63
     cea:	cd bf       	out	0x3d, r28	; 61
     cec:	9e 83       	std	Y+6, r25	; 0x06
     cee:	8d 83       	std	Y+5, r24	; 0x05
     cf0:	78 87       	std	Y+8, r23	; 0x08
     cf2:	6f 83       	std	Y+7, r22	; 0x07
     cf4:	8d 81       	ldd	r24, Y+5	; 0x05
     cf6:	9e 81       	ldd	r25, Y+6	; 0x06
     cf8:	fc 01       	movw	r30, r24
     cfa:	21 8d       	ldd	r18, Z+25	; 0x19
     cfc:	32 8d       	ldd	r19, Z+26	; 0x1a
     cfe:	8f 81       	ldd	r24, Y+7	; 0x07
     d00:	98 85       	ldd	r25, Y+8	; 0x08
     d02:	82 0f       	add	r24, r18
     d04:	93 1f       	adc	r25, r19
     d06:	9a 83       	std	Y+2, r25	; 0x02
     d08:	89 83       	std	Y+1, r24	; 0x01
     d0a:	89 81       	ldd	r24, Y+1	; 0x01
     d0c:	9a 81       	ldd	r25, Y+2	; 0x02
     d0e:	2c e3       	ldi	r18, 0x3C	; 60
     d10:	30 e0       	ldi	r19, 0x00	; 0
     d12:	b9 01       	movw	r22, r18
     d14:	0e 94 6f 23 	call	0x46de	; 0x46de <__divmodhi4>
     d18:	9c 01       	movw	r18, r24
     d1a:	8d 81       	ldd	r24, Y+5	; 0x05
     d1c:	9e 81       	ldd	r25, Y+6	; 0x06
     d1e:	fc 01       	movw	r30, r24
     d20:	32 8f       	std	Z+26, r19	; 0x1a
     d22:	21 8f       	std	Z+25, r18	; 0x19
     d24:	89 81       	ldd	r24, Y+1	; 0x01
     d26:	9a 81       	ldd	r25, Y+2	; 0x02
     d28:	21 e0       	ldi	r18, 0x01	; 1
     d2a:	8c 33       	cpi	r24, 0x3C	; 60
     d2c:	91 05       	cpc	r25, r1
     d2e:	0c f4       	brge	.+2      	; 0xd32 <_ZN6myTime10addMinutesEi+0x5a>
     d30:	20 e0       	ldi	r18, 0x00	; 0
     d32:	22 23       	and	r18, r18
     d34:	91 f0       	breq	.+36     	; 0xd5a <_ZN6myTime10addMinutesEi+0x82>
     d36:	89 81       	ldd	r24, Y+1	; 0x01
     d38:	9a 81       	ldd	r25, Y+2	; 0x02
     d3a:	2c e3       	ldi	r18, 0x3C	; 60
     d3c:	30 e0       	ldi	r19, 0x00	; 0
     d3e:	b9 01       	movw	r22, r18
     d40:	0e 94 6f 23 	call	0x46de	; 0x46de <__divmodhi4>
     d44:	9b 01       	movw	r18, r22
     d46:	c9 01       	movw	r24, r18
     d48:	9c 83       	std	Y+4, r25	; 0x04
     d4a:	8b 83       	std	Y+3, r24	; 0x03
     d4c:	2b 81       	ldd	r18, Y+3	; 0x03
     d4e:	3c 81       	ldd	r19, Y+4	; 0x04
     d50:	8d 81       	ldd	r24, Y+5	; 0x05
     d52:	9e 81       	ldd	r25, Y+6	; 0x06
     d54:	b9 01       	movw	r22, r18
     d56:	0e 94 22 06 	call	0xc44	; 0xc44 <_ZN6myTime8addHoursEi>
     d5a:	28 96       	adiw	r28, 0x08	; 8
     d5c:	0f b6       	in	r0, 0x3f	; 63
     d5e:	f8 94       	cli
     d60:	de bf       	out	0x3e, r29	; 62
     d62:	0f be       	out	0x3f, r0	; 63
     d64:	cd bf       	out	0x3d, r28	; 61
     d66:	df 91       	pop	r29
     d68:	cf 91       	pop	r28
     d6a:	08 95       	ret

00000d6c <_ZN6myTime10addSecondsEi>:
     d6c:	cf 93       	push	r28
     d6e:	df 93       	push	r29
     d70:	cd b7       	in	r28, 0x3d	; 61
     d72:	de b7       	in	r29, 0x3e	; 62
     d74:	28 97       	sbiw	r28, 0x08	; 8
     d76:	0f b6       	in	r0, 0x3f	; 63
     d78:	f8 94       	cli
     d7a:	de bf       	out	0x3e, r29	; 62
     d7c:	0f be       	out	0x3f, r0	; 63
     d7e:	cd bf       	out	0x3d, r28	; 61
     d80:	9e 83       	std	Y+6, r25	; 0x06
     d82:	8d 83       	std	Y+5, r24	; 0x05
     d84:	78 87       	std	Y+8, r23	; 0x08
     d86:	6f 83       	std	Y+7, r22	; 0x07
     d88:	8d 81       	ldd	r24, Y+5	; 0x05
     d8a:	9e 81       	ldd	r25, Y+6	; 0x06
     d8c:	fc 01       	movw	r30, r24
     d8e:	23 8d       	ldd	r18, Z+27	; 0x1b
     d90:	34 8d       	ldd	r19, Z+28	; 0x1c
     d92:	8f 81       	ldd	r24, Y+7	; 0x07
     d94:	98 85       	ldd	r25, Y+8	; 0x08
     d96:	82 0f       	add	r24, r18
     d98:	93 1f       	adc	r25, r19
     d9a:	9a 83       	std	Y+2, r25	; 0x02
     d9c:	89 83       	std	Y+1, r24	; 0x01
     d9e:	89 81       	ldd	r24, Y+1	; 0x01
     da0:	9a 81       	ldd	r25, Y+2	; 0x02
     da2:	2c e3       	ldi	r18, 0x3C	; 60
     da4:	30 e0       	ldi	r19, 0x00	; 0
     da6:	b9 01       	movw	r22, r18
     da8:	0e 94 6f 23 	call	0x46de	; 0x46de <__divmodhi4>
     dac:	9c 01       	movw	r18, r24
     dae:	8d 81       	ldd	r24, Y+5	; 0x05
     db0:	9e 81       	ldd	r25, Y+6	; 0x06
     db2:	fc 01       	movw	r30, r24
     db4:	34 8f       	std	Z+28, r19	; 0x1c
     db6:	23 8f       	std	Z+27, r18	; 0x1b
     db8:	89 81       	ldd	r24, Y+1	; 0x01
     dba:	9a 81       	ldd	r25, Y+2	; 0x02
     dbc:	21 e0       	ldi	r18, 0x01	; 1
     dbe:	8c 33       	cpi	r24, 0x3C	; 60
     dc0:	91 05       	cpc	r25, r1
     dc2:	0c f4       	brge	.+2      	; 0xdc6 <_ZN6myTime10addSecondsEi+0x5a>
     dc4:	20 e0       	ldi	r18, 0x00	; 0
     dc6:	22 23       	and	r18, r18
     dc8:	91 f0       	breq	.+36     	; 0xdee <_ZN6myTime10addSecondsEi+0x82>
     dca:	89 81       	ldd	r24, Y+1	; 0x01
     dcc:	9a 81       	ldd	r25, Y+2	; 0x02
     dce:	2c e3       	ldi	r18, 0x3C	; 60
     dd0:	30 e0       	ldi	r19, 0x00	; 0
     dd2:	b9 01       	movw	r22, r18
     dd4:	0e 94 6f 23 	call	0x46de	; 0x46de <__divmodhi4>
     dd8:	9b 01       	movw	r18, r22
     dda:	c9 01       	movw	r24, r18
     ddc:	9c 83       	std	Y+4, r25	; 0x04
     dde:	8b 83       	std	Y+3, r24	; 0x03
     de0:	2b 81       	ldd	r18, Y+3	; 0x03
     de2:	3c 81       	ldd	r19, Y+4	; 0x04
     de4:	8d 81       	ldd	r24, Y+5	; 0x05
     de6:	9e 81       	ldd	r25, Y+6	; 0x06
     de8:	b9 01       	movw	r22, r18
     dea:	0e 94 6c 06 	call	0xcd8	; 0xcd8 <_ZN6myTime10addMinutesEi>
     dee:	28 96       	adiw	r28, 0x08	; 8
     df0:	0f b6       	in	r0, 0x3f	; 63
     df2:	f8 94       	cli
     df4:	de bf       	out	0x3e, r29	; 62
     df6:	0f be       	out	0x3f, r0	; 63
     df8:	cd bf       	out	0x3d, r28	; 61
     dfa:	df 91       	pop	r29
     dfc:	cf 91       	pop	r28
     dfe:	08 95       	ret

00000e00 <_ZN6myTime13checkValidityEv>:
     e00:	cf 93       	push	r28
     e02:	df 93       	push	r29
     e04:	0f 92       	push	r0
     e06:	0f 92       	push	r0
     e08:	cd b7       	in	r28, 0x3d	; 61
     e0a:	de b7       	in	r29, 0x3e	; 62
     e0c:	9a 83       	std	Y+2, r25	; 0x02
     e0e:	89 83       	std	Y+1, r24	; 0x01
     e10:	89 81       	ldd	r24, Y+1	; 0x01
     e12:	9a 81       	ldd	r25, Y+2	; 0x02
     e14:	fc 01       	movw	r30, r24
     e16:	83 8d       	ldd	r24, Z+27	; 0x1b
     e18:	94 8d       	ldd	r25, Z+28	; 0x1c
     e1a:	cb 96       	adiw	r24, 0x3b	; 59
     e1c:	87 37       	cpi	r24, 0x77	; 119
     e1e:	91 05       	cpc	r25, r1
     e20:	a0 f4       	brcc	.+40     	; 0xe4a <_ZN6myTime13checkValidityEv+0x4a>
     e22:	89 81       	ldd	r24, Y+1	; 0x01
     e24:	9a 81       	ldd	r25, Y+2	; 0x02
     e26:	fc 01       	movw	r30, r24
     e28:	81 8d       	ldd	r24, Z+25	; 0x19
     e2a:	92 8d       	ldd	r25, Z+26	; 0x1a
     e2c:	cb 96       	adiw	r24, 0x3b	; 59
     e2e:	87 37       	cpi	r24, 0x77	; 119
     e30:	91 05       	cpc	r25, r1
     e32:	58 f4       	brcc	.+22     	; 0xe4a <_ZN6myTime13checkValidityEv+0x4a>
     e34:	89 81       	ldd	r24, Y+1	; 0x01
     e36:	9a 81       	ldd	r25, Y+2	; 0x02
     e38:	fc 01       	movw	r30, r24
     e3a:	87 89       	ldd	r24, Z+23	; 0x17
     e3c:	90 8d       	ldd	r25, Z+24	; 0x18
     e3e:	47 96       	adiw	r24, 0x17	; 23
     e40:	8f 32       	cpi	r24, 0x2F	; 47
     e42:	91 05       	cpc	r25, r1
     e44:	10 f4       	brcc	.+4      	; 0xe4a <_ZN6myTime13checkValidityEv+0x4a>
     e46:	81 e0       	ldi	r24, 0x01	; 1
     e48:	01 c0       	rjmp	.+2      	; 0xe4c <_ZN6myTime13checkValidityEv+0x4c>
     e4a:	80 e0       	ldi	r24, 0x00	; 0
     e4c:	88 23       	and	r24, r24
     e4e:	69 f0       	breq	.+26     	; 0xe6a <_ZN6myTime13checkValidityEv+0x6a>
     e50:	89 81       	ldd	r24, Y+1	; 0x01
     e52:	9a 81       	ldd	r25, Y+2	; 0x02
     e54:	0e 94 43 03 	call	0x686	; 0x686 <_ZN6myDate17checkValidityDateEv>
     e58:	98 2f       	mov	r25, r24
     e5a:	81 e0       	ldi	r24, 0x01	; 1
     e5c:	99 23       	and	r25, r25
     e5e:	09 f4       	brne	.+2      	; 0xe62 <_ZN6myTime13checkValidityEv+0x62>
     e60:	80 e0       	ldi	r24, 0x00	; 0
     e62:	88 23       	and	r24, r24
     e64:	11 f0       	breq	.+4      	; 0xe6a <_ZN6myTime13checkValidityEv+0x6a>
     e66:	81 e0       	ldi	r24, 0x01	; 1
     e68:	01 c0       	rjmp	.+2      	; 0xe6c <_ZN6myTime13checkValidityEv+0x6c>
     e6a:	80 e0       	ldi	r24, 0x00	; 0
     e6c:	0f 90       	pop	r0
     e6e:	0f 90       	pop	r0
     e70:	df 91       	pop	r29
     e72:	cf 91       	pop	r28
     e74:	08 95       	ret

00000e76 <_ZN6myTime7getTimeEv>:
     e76:	cf 93       	push	r28
     e78:	df 93       	push	r29
     e7a:	cd b7       	in	r28, 0x3d	; 61
     e7c:	de b7       	in	r29, 0x3e	; 62
     e7e:	2b 97       	sbiw	r28, 0x0b	; 11
     e80:	0f b6       	in	r0, 0x3f	; 63
     e82:	f8 94       	cli
     e84:	de bf       	out	0x3e, r29	; 62
     e86:	0f be       	out	0x3f, r0	; 63
     e88:	cd bf       	out	0x3d, r28	; 61
     e8a:	9b 87       	std	Y+11, r25	; 0x0b
     e8c:	8a 87       	std	Y+10, r24	; 0x0a
     e8e:	8a 85       	ldd	r24, Y+10	; 0x0a
     e90:	9b 85       	ldd	r25, Y+11	; 0x0b
     e92:	fc 01       	movw	r30, r24
     e94:	87 89       	ldd	r24, Z+23	; 0x17
     e96:	90 8d       	ldd	r25, Z+24	; 0x18
     e98:	9e 01       	movw	r18, r28
     e9a:	2f 5f       	subi	r18, 0xFF	; 255
     e9c:	3f 4f       	sbci	r19, 0xFF	; 255
     e9e:	b9 01       	movw	r22, r18
     ea0:	4a e0       	ldi	r20, 0x0A	; 10
     ea2:	50 e0       	ldi	r21, 0x00	; 0
     ea4:	0e 94 cd 23 	call	0x479a	; 0x479a <itoa>
     ea8:	8a 85       	ldd	r24, Y+10	; 0x0a
     eaa:	9b 85       	ldd	r25, Y+11	; 0x0b
     eac:	fc 01       	movw	r30, r24
     eae:	81 8d       	ldd	r24, Z+25	; 0x19
     eb0:	92 8d       	ldd	r25, Z+26	; 0x1a
     eb2:	9e 01       	movw	r18, r28
     eb4:	2c 5f       	subi	r18, 0xFC	; 252
     eb6:	3f 4f       	sbci	r19, 0xFF	; 255
     eb8:	b9 01       	movw	r22, r18
     eba:	4a e0       	ldi	r20, 0x0A	; 10
     ebc:	50 e0       	ldi	r21, 0x00	; 0
     ebe:	0e 94 cd 23 	call	0x479a	; 0x479a <itoa>
     ec2:	8a 85       	ldd	r24, Y+10	; 0x0a
     ec4:	9b 85       	ldd	r25, Y+11	; 0x0b
     ec6:	fc 01       	movw	r30, r24
     ec8:	83 8d       	ldd	r24, Z+27	; 0x1b
     eca:	94 8d       	ldd	r25, Z+28	; 0x1c
     ecc:	9e 01       	movw	r18, r28
     ece:	29 5f       	subi	r18, 0xF9	; 249
     ed0:	3f 4f       	sbci	r19, 0xFF	; 255
     ed2:	b9 01       	movw	r22, r18
     ed4:	4a e0       	ldi	r20, 0x0A	; 10
     ed6:	50 e0       	ldi	r21, 0x00	; 0
     ed8:	0e 94 cd 23 	call	0x479a	; 0x479a <itoa>
     edc:	8a 85       	ldd	r24, Y+10	; 0x0a
     ede:	9b 85       	ldd	r25, Y+11	; 0x0b
     ee0:	4d 96       	adiw	r24, 0x1d	; 29
     ee2:	9e 01       	movw	r18, r28
     ee4:	2f 5f       	subi	r18, 0xFF	; 255
     ee6:	3f 4f       	sbci	r19, 0xFF	; 255
     ee8:	b9 01       	movw	r22, r18
     eea:	0e 94 b8 23 	call	0x4770	; 0x4770 <strcpy>
     eee:	8a 85       	ldd	r24, Y+10	; 0x0a
     ef0:	9b 85       	ldd	r25, Y+11	; 0x0b
     ef2:	9c 01       	movw	r18, r24
     ef4:	23 5e       	subi	r18, 0xE3	; 227
     ef6:	3f 4f       	sbci	r19, 0xFF	; 255
     ef8:	c9 01       	movw	r24, r18
     efa:	ac 01       	movw	r20, r24
     efc:	fa 01       	movw	r30, r20
     efe:	01 90       	ld	r0, Z+
     f00:	00 20       	and	r0, r0
     f02:	e9 f7       	brne	.-6      	; 0xefe <_ZN6myTime7getTimeEv+0x88>
     f04:	cf 01       	movw	r24, r30
     f06:	01 97       	sbiw	r24, 0x01	; 1
     f08:	84 1b       	sub	r24, r20
     f0a:	95 0b       	sbc	r25, r21
     f0c:	82 0f       	add	r24, r18
     f0e:	93 1f       	adc	r25, r19
     f10:	2a e3       	ldi	r18, 0x3A	; 58
     f12:	30 e0       	ldi	r19, 0x00	; 0
     f14:	fc 01       	movw	r30, r24
     f16:	31 83       	std	Z+1, r19	; 0x01
     f18:	20 83       	st	Z, r18
     f1a:	8a 85       	ldd	r24, Y+10	; 0x0a
     f1c:	9b 85       	ldd	r25, Y+11	; 0x0b
     f1e:	4d 96       	adiw	r24, 0x1d	; 29
     f20:	9e 01       	movw	r18, r28
     f22:	2c 5f       	subi	r18, 0xFC	; 252
     f24:	3f 4f       	sbci	r19, 0xFF	; 255
     f26:	b9 01       	movw	r22, r18
     f28:	0e 94 a4 23 	call	0x4748	; 0x4748 <strcat>
     f2c:	8a 85       	ldd	r24, Y+10	; 0x0a
     f2e:	9b 85       	ldd	r25, Y+11	; 0x0b
     f30:	9c 01       	movw	r18, r24
     f32:	23 5e       	subi	r18, 0xE3	; 227
     f34:	3f 4f       	sbci	r19, 0xFF	; 255
     f36:	c9 01       	movw	r24, r18
     f38:	ac 01       	movw	r20, r24
     f3a:	fa 01       	movw	r30, r20
     f3c:	01 90       	ld	r0, Z+
     f3e:	00 20       	and	r0, r0
     f40:	e9 f7       	brne	.-6      	; 0xf3c <_ZN6myTime7getTimeEv+0xc6>
     f42:	cf 01       	movw	r24, r30
     f44:	01 97       	sbiw	r24, 0x01	; 1
     f46:	84 1b       	sub	r24, r20
     f48:	95 0b       	sbc	r25, r21
     f4a:	82 0f       	add	r24, r18
     f4c:	93 1f       	adc	r25, r19
     f4e:	2a e3       	ldi	r18, 0x3A	; 58
     f50:	30 e0       	ldi	r19, 0x00	; 0
     f52:	fc 01       	movw	r30, r24
     f54:	31 83       	std	Z+1, r19	; 0x01
     f56:	20 83       	st	Z, r18
     f58:	8a 85       	ldd	r24, Y+10	; 0x0a
     f5a:	9b 85       	ldd	r25, Y+11	; 0x0b
     f5c:	4d 96       	adiw	r24, 0x1d	; 29
     f5e:	9e 01       	movw	r18, r28
     f60:	29 5f       	subi	r18, 0xF9	; 249
     f62:	3f 4f       	sbci	r19, 0xFF	; 255
     f64:	b9 01       	movw	r22, r18
     f66:	0e 94 a4 23 	call	0x4748	; 0x4748 <strcat>
     f6a:	8a 85       	ldd	r24, Y+10	; 0x0a
     f6c:	9b 85       	ldd	r25, Y+11	; 0x0b
     f6e:	fc 01       	movw	r30, r24
     f70:	10 a6       	lds	r17, 0xb0
     f72:	8a 85       	ldd	r24, Y+10	; 0x0a
     f74:	9b 85       	ldd	r25, Y+11	; 0x0b
     f76:	4d 96       	adiw	r24, 0x1d	; 29
     f78:	2b 96       	adiw	r28, 0x0b	; 11
     f7a:	0f b6       	in	r0, 0x3f	; 63
     f7c:	f8 94       	cli
     f7e:	de bf       	out	0x3e, r29	; 62
     f80:	0f be       	out	0x3f, r0	; 63
     f82:	cd bf       	out	0x3d, r28	; 61
     f84:	df 91       	pop	r29
     f86:	cf 91       	pop	r28
     f88:	08 95       	ret

00000f8a <_Z10TripEEPROMv>:
     f8a:	cf 93       	push	r28
     f8c:	df 93       	push	r29
     f8e:	cd b7       	in	r28, 0x3d	; 61
     f90:	de b7       	in	r29, 0x3e	; 62
     f92:	6c 97       	sbiw	r28, 0x1c	; 28
     f94:	0f b6       	in	r0, 0x3f	; 63
     f96:	f8 94       	cli
     f98:	de bf       	out	0x3e, r29	; 62
     f9a:	0f be       	out	0x3f, r0	; 63
     f9c:	cd bf       	out	0x3d, r28	; 61
     f9e:	81 e0       	ldi	r24, 0x01	; 1
     fa0:	90 e0       	ldi	r25, 0x00	; 0
     fa2:	0e 94 f6 23 	call	0x47ec	; 0x47ec <__eerd_byte_m2560>
     fa6:	89 83       	std	Y+1, r24	; 0x01
     fa8:	80 e0       	ldi	r24, 0x00	; 0
     faa:	90 e0       	ldi	r25, 0x00	; 0
     fac:	0e 94 f6 23 	call	0x47ec	; 0x47ec <__eerd_byte_m2560>
     fb0:	8a 83       	std	Y+2, r24	; 0x02
     fb2:	89 81       	ldd	r24, Y+1	; 0x01
     fb4:	88 23       	and	r24, r24
     fb6:	09 f0       	breq	.+2      	; 0xfba <_Z10TripEEPROMv+0x30>
     fb8:	67 c0       	rjmp	.+206    	; 0x1088 <_Z10TripEEPROMv+0xfe>
     fba:	8a 81       	ldd	r24, Y+2	; 0x02
     fbc:	88 2f       	mov	r24, r24
     fbe:	90 e0       	ldi	r25, 0x00	; 0
     fc0:	9c 01       	movw	r18, r24
     fc2:	21 50       	subi	r18, 0x01	; 1
     fc4:	30 40       	sbci	r19, 0x00	; 0
     fc6:	c9 01       	movw	r24, r18
     fc8:	88 0f       	add	r24, r24
     fca:	99 1f       	adc	r25, r25
     fcc:	82 0f       	add	r24, r18
     fce:	93 1f       	adc	r25, r19
     fd0:	88 0f       	add	r24, r24
     fd2:	99 1f       	adc	r25, r25
     fd4:	88 0f       	add	r24, r24
     fd6:	99 1f       	adc	r25, r25
     fd8:	88 0f       	add	r24, r24
     fda:	99 1f       	adc	r25, r25
     fdc:	02 96       	adiw	r24, 0x02	; 2
     fde:	9c 83       	std	Y+4, r25	; 0x04
     fe0:	8b 83       	std	Y+3, r24	; 0x03
     fe2:	8b 81       	ldd	r24, Y+3	; 0x03
     fe4:	9c 81       	ldd	r25, Y+4	; 0x04
     fe6:	0e 94 fe 23 	call	0x47fc	; 0x47fc <__eerd_word_m2560>
     fea:	9e 83       	std	Y+6, r25	; 0x06
     fec:	8d 83       	std	Y+5, r24	; 0x05
     fee:	8b 81       	ldd	r24, Y+3	; 0x03
     ff0:	9c 81       	ldd	r25, Y+4	; 0x04
     ff2:	02 96       	adiw	r24, 0x02	; 2
     ff4:	0e 94 fe 23 	call	0x47fc	; 0x47fc <__eerd_word_m2560>
     ff8:	98 87       	std	Y+8, r25	; 0x08
     ffa:	8f 83       	std	Y+7, r24	; 0x07
     ffc:	8b 81       	ldd	r24, Y+3	; 0x03
     ffe:	9c 81       	ldd	r25, Y+4	; 0x04
    1000:	04 96       	adiw	r24, 0x04	; 4
    1002:	0e 94 fe 23 	call	0x47fc	; 0x47fc <__eerd_word_m2560>
    1006:	9a 87       	std	Y+10, r25	; 0x0a
    1008:	89 87       	std	Y+9, r24	; 0x09
    100a:	8b 81       	ldd	r24, Y+3	; 0x03
    100c:	9c 81       	ldd	r25, Y+4	; 0x04
    100e:	06 96       	adiw	r24, 0x06	; 6
    1010:	0e 94 fe 23 	call	0x47fc	; 0x47fc <__eerd_word_m2560>
    1014:	9c 87       	std	Y+12, r25	; 0x0c
    1016:	8b 87       	std	Y+11, r24	; 0x0b
    1018:	8b 81       	ldd	r24, Y+3	; 0x03
    101a:	9c 81       	ldd	r25, Y+4	; 0x04
    101c:	08 96       	adiw	r24, 0x08	; 8
    101e:	0e 94 fe 23 	call	0x47fc	; 0x47fc <__eerd_word_m2560>
    1022:	9e 87       	std	Y+14, r25	; 0x0e
    1024:	8d 87       	std	Y+13, r24	; 0x0d
    1026:	8b 81       	ldd	r24, Y+3	; 0x03
    1028:	9c 81       	ldd	r25, Y+4	; 0x04
    102a:	0a 96       	adiw	r24, 0x0a	; 10
    102c:	0e 94 fe 23 	call	0x47fc	; 0x47fc <__eerd_word_m2560>
    1030:	98 8b       	std	Y+16, r25	; 0x10
    1032:	8f 87       	std	Y+15, r24	; 0x0f
    1034:	8b 81       	ldd	r24, Y+3	; 0x03
    1036:	9c 81       	ldd	r25, Y+4	; 0x04
    1038:	0c 96       	adiw	r24, 0x0c	; 12
    103a:	0e 94 fe 23 	call	0x47fc	; 0x47fc <__eerd_word_m2560>
    103e:	9a 8b       	std	Y+18, r25	; 0x12
    1040:	89 8b       	std	Y+17, r24	; 0x11
    1042:	8b 81       	ldd	r24, Y+3	; 0x03
    1044:	9c 81       	ldd	r25, Y+4	; 0x04
    1046:	0e 96       	adiw	r24, 0x0e	; 14
    1048:	0e 94 fe 23 	call	0x47fc	; 0x47fc <__eerd_word_m2560>
    104c:	9c 8b       	std	Y+20, r25	; 0x14
    104e:	8b 8b       	std	Y+19, r24	; 0x13
    1050:	8b 81       	ldd	r24, Y+3	; 0x03
    1052:	9c 81       	ldd	r25, Y+4	; 0x04
    1054:	40 96       	adiw	r24, 0x10	; 16
    1056:	0e 94 fe 23 	call	0x47fc	; 0x47fc <__eerd_word_m2560>
    105a:	9e 8b       	std	Y+22, r25	; 0x16
    105c:	8d 8b       	std	Y+21, r24	; 0x15
    105e:	8b 81       	ldd	r24, Y+3	; 0x03
    1060:	9c 81       	ldd	r25, Y+4	; 0x04
    1062:	42 96       	adiw	r24, 0x12	; 18
    1064:	0e 94 fe 23 	call	0x47fc	; 0x47fc <__eerd_word_m2560>
    1068:	98 8f       	std	Y+24, r25	; 0x18
    106a:	8f 8b       	std	Y+23, r24	; 0x17
    106c:	8b 81       	ldd	r24, Y+3	; 0x03
    106e:	9c 81       	ldd	r25, Y+4	; 0x04
    1070:	44 96       	adiw	r24, 0x14	; 20
    1072:	0e 94 fe 23 	call	0x47fc	; 0x47fc <__eerd_word_m2560>
    1076:	9a 8f       	std	Y+26, r25	; 0x1a
    1078:	89 8f       	std	Y+25, r24	; 0x19
    107a:	8b 81       	ldd	r24, Y+3	; 0x03
    107c:	9c 81       	ldd	r25, Y+4	; 0x04
    107e:	46 96       	adiw	r24, 0x16	; 22
    1080:	0e 94 fe 23 	call	0x47fc	; 0x47fc <__eerd_word_m2560>
    1084:	9c 8f       	std	Y+28, r25	; 0x1c
    1086:	8b 8f       	std	Y+27, r24	; 0x1b
    1088:	6c 96       	adiw	r28, 0x1c	; 28
    108a:	0f b6       	in	r0, 0x3f	; 63
    108c:	f8 94       	cli
    108e:	de bf       	out	0x3e, r29	; 62
    1090:	0f be       	out	0x3f, r0	; 63
    1092:	cd bf       	out	0x3d, r28	; 61
    1094:	df 91       	pop	r29
    1096:	cf 91       	pop	r28
    1098:	08 95       	ret

0000109a <_Z18getDateTime_eepromhh>:
    109a:	cf 93       	push	r28
    109c:	df 93       	push	r29
    109e:	cd b7       	in	r28, 0x3d	; 61
    10a0:	de b7       	in	r29, 0x3e	; 62
    10a2:	2f 97       	sbiw	r28, 0x0f	; 15
    10a4:	0f b6       	in	r0, 0x3f	; 63
    10a6:	f8 94       	cli
    10a8:	de bf       	out	0x3e, r29	; 62
    10aa:	0f be       	out	0x3f, r0	; 63
    10ac:	cd bf       	out	0x3d, r28	; 61
    10ae:	8e 87       	std	Y+14, r24	; 0x0e
    10b0:	6f 87       	std	Y+15, r22	; 0x0f
    10b2:	f8 94       	cli
    10b4:	8e 85       	ldd	r24, Y+14	; 0x0e
    10b6:	88 23       	and	r24, r24
    10b8:	09 f4       	brne	.+2      	; 0x10bc <_Z18getDateTime_eepromhh+0x22>
    10ba:	4b c0       	rjmp	.+150    	; 0x1152 <_Z18getDateTime_eepromhh+0xb8>
    10bc:	1a 82       	std	Y+2, r1	; 0x02
    10be:	19 82       	std	Y+1, r1	; 0x01
    10c0:	81 e0       	ldi	r24, 0x01	; 1
    10c2:	8b 83       	std	Y+3, r24	; 0x03
    10c4:	2c c0       	rjmp	.+88     	; 0x111e <_Z18getDateTime_eepromhh+0x84>
    10c6:	82 e0       	ldi	r24, 0x02	; 2
    10c8:	90 e0       	ldi	r25, 0x00	; 0
    10ca:	0e 94 f6 23 	call	0x47ec	; 0x47ec <__eerd_byte_m2560>
    10ce:	8f 83       	std	Y+7, r24	; 0x07
    10d0:	81 e0       	ldi	r24, 0x01	; 1
    10d2:	90 e0       	ldi	r25, 0x00	; 0
    10d4:	0e 94 f6 23 	call	0x47ec	; 0x47ec <__eerd_byte_m2560>
    10d8:	88 87       	std	Y+8, r24	; 0x08
    10da:	80 e0       	ldi	r24, 0x00	; 0
    10dc:	90 e0       	ldi	r25, 0x00	; 0
    10de:	0e 94 f6 23 	call	0x47ec	; 0x47ec <__eerd_byte_m2560>
    10e2:	89 87       	std	Y+9, r24	; 0x09
    10e4:	8f 81       	ldd	r24, Y+7	; 0x07
    10e6:	8c 33       	cpi	r24, 0x3C	; 60
    10e8:	a8 f4       	brcc	.+42     	; 0x1114 <_Z18getDateTime_eepromhh+0x7a>
    10ea:	88 85       	ldd	r24, Y+8	; 0x08
    10ec:	8c 33       	cpi	r24, 0x3C	; 60
    10ee:	90 f4       	brcc	.+36     	; 0x1114 <_Z18getDateTime_eepromhh+0x7a>
    10f0:	89 85       	ldd	r24, Y+9	; 0x09
    10f2:	88 31       	cpi	r24, 0x18	; 24
    10f4:	78 f4       	brcc	.+30     	; 0x1114 <_Z18getDateTime_eepromhh+0x7a>
    10f6:	89 85       	ldd	r24, Y+9	; 0x09
    10f8:	68 2f       	mov	r22, r24
    10fa:	70 e0       	ldi	r23, 0x00	; 0
    10fc:	88 85       	ldd	r24, Y+8	; 0x08
    10fe:	48 2f       	mov	r20, r24
    1100:	50 e0       	ldi	r21, 0x00	; 0
    1102:	8f 81       	ldd	r24, Y+7	; 0x07
    1104:	28 2f       	mov	r18, r24
    1106:	30 e0       	ldi	r19, 0x00	; 0
    1108:	89 ec       	ldi	r24, 0xC9	; 201
    110a:	92 e0       	ldi	r25, 0x02	; 2
    110c:	0e 94 98 05 	call	0xb30	; 0xb30 <_ZN6myTime7setTimeEiii>
    1110:	1b 82       	std	Y+3, r1	; 0x03
    1112:	05 c0       	rjmp	.+10     	; 0x111e <_Z18getDateTime_eepromhh+0x84>
    1114:	89 81       	ldd	r24, Y+1	; 0x01
    1116:	9a 81       	ldd	r25, Y+2	; 0x02
    1118:	01 96       	adiw	r24, 0x01	; 1
    111a:	9a 83       	std	Y+2, r25	; 0x02
    111c:	89 83       	std	Y+1, r24	; 0x01
    111e:	8b 81       	ldd	r24, Y+3	; 0x03
    1120:	88 23       	and	r24, r24
    1122:	39 f0       	breq	.+14     	; 0x1132 <_Z18getDateTime_eepromhh+0x98>
    1124:	89 81       	ldd	r24, Y+1	; 0x01
    1126:	9a 81       	ldd	r25, Y+2	; 0x02
    1128:	83 30       	cpi	r24, 0x03	; 3
    112a:	91 05       	cpc	r25, r1
    112c:	14 f4       	brge	.+4      	; 0x1132 <_Z18getDateTime_eepromhh+0x98>
    112e:	81 e0       	ldi	r24, 0x01	; 1
    1130:	01 c0       	rjmp	.+2      	; 0x1134 <_Z18getDateTime_eepromhh+0x9a>
    1132:	80 e0       	ldi	r24, 0x00	; 0
    1134:	88 23       	and	r24, r24
    1136:	39 f6       	brne	.-114    	; 0x10c6 <_Z18getDateTime_eepromhh+0x2c>
    1138:	8b 81       	ldd	r24, Y+3	; 0x03
    113a:	88 23       	and	r24, r24
    113c:	51 f0       	breq	.+20     	; 0x1152 <_Z18getDateTime_eepromhh+0xb8>
    113e:	89 ec       	ldi	r24, 0xC9	; 201
    1140:	92 e0       	ldi	r25, 0x02	; 2
    1142:	61 e0       	ldi	r22, 0x01	; 1
    1144:	70 e0       	ldi	r23, 0x00	; 0
    1146:	41 e0       	ldi	r20, 0x01	; 1
    1148:	50 e0       	ldi	r21, 0x00	; 0
    114a:	21 e0       	ldi	r18, 0x01	; 1
    114c:	30 e0       	ldi	r19, 0x00	; 0
    114e:	0e 94 98 05 	call	0xb30	; 0xb30 <_ZN6myTime7setTimeEiii>
    1152:	8f 85       	ldd	r24, Y+15	; 0x0f
    1154:	88 23       	and	r24, r24
    1156:	09 f4       	brne	.+2      	; 0x115a <_Z18getDateTime_eepromhh+0xc0>
    1158:	4e c0       	rjmp	.+156    	; 0x11f6 <_Z18getDateTime_eepromhh+0x15c>
    115a:	1d 82       	std	Y+5, r1	; 0x05
    115c:	1c 82       	std	Y+4, r1	; 0x04
    115e:	81 e0       	ldi	r24, 0x01	; 1
    1160:	8e 83       	std	Y+6, r24	; 0x06
    1162:	2f c0       	rjmp	.+94     	; 0x11c2 <_Z18getDateTime_eepromhh+0x128>
    1164:	84 e0       	ldi	r24, 0x04	; 4
    1166:	90 e0       	ldi	r25, 0x00	; 0
    1168:	0e 94 f6 23 	call	0x47ec	; 0x47ec <__eerd_byte_m2560>
    116c:	8a 87       	std	Y+10, r24	; 0x0a
    116e:	83 e0       	ldi	r24, 0x03	; 3
    1170:	90 e0       	ldi	r25, 0x00	; 0
    1172:	0e 94 f6 23 	call	0x47ec	; 0x47ec <__eerd_byte_m2560>
    1176:	8b 87       	std	Y+11, r24	; 0x0b
    1178:	85 e0       	ldi	r24, 0x05	; 5
    117a:	90 e0       	ldi	r25, 0x00	; 0
    117c:	0e 94 fe 23 	call	0x47fc	; 0x47fc <__eerd_word_m2560>
    1180:	9d 87       	std	Y+13, r25	; 0x0d
    1182:	8c 87       	std	Y+12, r24	; 0x0c
    1184:	8a 85       	ldd	r24, Y+10	; 0x0a
    1186:	8f 31       	cpi	r24, 0x1F	; 31
    1188:	b8 f4       	brcc	.+46     	; 0x11b8 <_Z18getDateTime_eepromhh+0x11e>
    118a:	8b 85       	ldd	r24, Y+11	; 0x0b
    118c:	8d 30       	cpi	r24, 0x0D	; 13
    118e:	a0 f4       	brcc	.+40     	; 0x11b8 <_Z18getDateTime_eepromhh+0x11e>
    1190:	8c 85       	ldd	r24, Y+12	; 0x0c
    1192:	9d 85       	ldd	r25, Y+13	; 0x0d
    1194:	27 e2       	ldi	r18, 0x27	; 39
    1196:	80 31       	cpi	r24, 0x10	; 16
    1198:	92 07       	cpc	r25, r18
    119a:	70 f4       	brcc	.+28     	; 0x11b8 <_Z18getDateTime_eepromhh+0x11e>
    119c:	8b 85       	ldd	r24, Y+11	; 0x0b
    119e:	68 2f       	mov	r22, r24
    11a0:	70 e0       	ldi	r23, 0x00	; 0
    11a2:	8a 85       	ldd	r24, Y+10	; 0x0a
    11a4:	48 2f       	mov	r20, r24
    11a6:	50 e0       	ldi	r21, 0x00	; 0
    11a8:	2c 85       	ldd	r18, Y+12	; 0x0c
    11aa:	3d 85       	ldd	r19, Y+13	; 0x0d
    11ac:	89 ec       	ldi	r24, 0xC9	; 201
    11ae:	92 e0       	ldi	r25, 0x02	; 2
    11b0:	0e 94 c7 01 	call	0x38e	; 0x38e <_ZN6myDate7setDateEiii>
    11b4:	1e 82       	std	Y+6, r1	; 0x06
    11b6:	05 c0       	rjmp	.+10     	; 0x11c2 <_Z18getDateTime_eepromhh+0x128>
    11b8:	8c 81       	ldd	r24, Y+4	; 0x04
    11ba:	9d 81       	ldd	r25, Y+5	; 0x05
    11bc:	01 96       	adiw	r24, 0x01	; 1
    11be:	9d 83       	std	Y+5, r25	; 0x05
    11c0:	8c 83       	std	Y+4, r24	; 0x04
    11c2:	8e 81       	ldd	r24, Y+6	; 0x06
    11c4:	88 23       	and	r24, r24
    11c6:	39 f0       	breq	.+14     	; 0x11d6 <_Z18getDateTime_eepromhh+0x13c>
    11c8:	8c 81       	ldd	r24, Y+4	; 0x04
    11ca:	9d 81       	ldd	r25, Y+5	; 0x05
    11cc:	83 30       	cpi	r24, 0x03	; 3
    11ce:	91 05       	cpc	r25, r1
    11d0:	14 f4       	brge	.+4      	; 0x11d6 <_Z18getDateTime_eepromhh+0x13c>
    11d2:	81 e0       	ldi	r24, 0x01	; 1
    11d4:	01 c0       	rjmp	.+2      	; 0x11d8 <_Z18getDateTime_eepromhh+0x13e>
    11d6:	80 e0       	ldi	r24, 0x00	; 0
    11d8:	88 23       	and	r24, r24
    11da:	21 f6       	brne	.-120    	; 0x1164 <_Z18getDateTime_eepromhh+0xca>
    11dc:	8e 81       	ldd	r24, Y+6	; 0x06
    11de:	88 23       	and	r24, r24
    11e0:	51 f0       	breq	.+20     	; 0x11f6 <_Z18getDateTime_eepromhh+0x15c>
    11e2:	89 ec       	ldi	r24, 0xC9	; 201
    11e4:	92 e0       	ldi	r25, 0x02	; 2
    11e6:	61 e0       	ldi	r22, 0x01	; 1
    11e8:	70 e0       	ldi	r23, 0x00	; 0
    11ea:	41 e0       	ldi	r20, 0x01	; 1
    11ec:	50 e0       	ldi	r21, 0x00	; 0
    11ee:	21 ed       	ldi	r18, 0xD1	; 209
    11f0:	37 e0       	ldi	r19, 0x07	; 7
    11f2:	0e 94 c7 01 	call	0x38e	; 0x38e <_ZN6myDate7setDateEiii>
    11f6:	78 94       	sei
    11f8:	2f 96       	adiw	r28, 0x0f	; 15
    11fa:	0f b6       	in	r0, 0x3f	; 63
    11fc:	f8 94       	cli
    11fe:	de bf       	out	0x3e, r29	; 62
    1200:	0f be       	out	0x3f, r0	; 63
    1202:	cd bf       	out	0x3d, r28	; 61
    1204:	df 91       	pop	r29
    1206:	cf 91       	pop	r28
    1208:	08 95       	ret

0000120a <_Z19saveDateTime_eepromhh>:
    120a:	cf 93       	push	r28
    120c:	df 93       	push	r29
    120e:	cd b7       	in	r28, 0x3d	; 61
    1210:	de b7       	in	r29, 0x3e	; 62
    1212:	29 97       	sbiw	r28, 0x09	; 9
    1214:	0f b6       	in	r0, 0x3f	; 63
    1216:	f8 94       	cli
    1218:	de bf       	out	0x3e, r29	; 62
    121a:	0f be       	out	0x3f, r0	; 63
    121c:	cd bf       	out	0x3d, r28	; 61
    121e:	88 87       	std	Y+8, r24	; 0x08
    1220:	69 87       	std	Y+9, r22	; 0x09
    1222:	f8 94       	cli
    1224:	88 85       	ldd	r24, Y+8	; 0x08
    1226:	88 23       	and	r24, r24
    1228:	f1 f0       	breq	.+60     	; 0x1266 <_Z19saveDateTime_eepromhh+0x5c>
    122a:	89 ec       	ldi	r24, 0xC9	; 201
    122c:	92 e0       	ldi	r25, 0x02	; 2
    122e:	0e 94 f9 04 	call	0x9f2	; 0x9f2 <_ZN6myTime8getHoursEv>
    1232:	89 83       	std	Y+1, r24	; 0x01
    1234:	89 ec       	ldi	r24, 0xC9	; 201
    1236:	92 e0       	ldi	r25, 0x02	; 2
    1238:	0e 94 e7 04 	call	0x9ce	; 0x9ce <_ZN6myTime10getMinutesEv>
    123c:	8a 83       	std	Y+2, r24	; 0x02
    123e:	89 ec       	ldi	r24, 0xC9	; 201
    1240:	92 e0       	ldi	r25, 0x02	; 2
    1242:	0e 94 d5 04 	call	0x9aa	; 0x9aa <_ZN6myTime10getSecondsEv>
    1246:	8b 83       	std	Y+3, r24	; 0x03
    1248:	82 e0       	ldi	r24, 0x02	; 2
    124a:	90 e0       	ldi	r25, 0x00	; 0
    124c:	6b 81       	ldd	r22, Y+3	; 0x03
    124e:	0e 94 04 24 	call	0x4808	; 0x4808 <__eewr_byte_m2560>
    1252:	81 e0       	ldi	r24, 0x01	; 1
    1254:	90 e0       	ldi	r25, 0x00	; 0
    1256:	6a 81       	ldd	r22, Y+2	; 0x02
    1258:	0e 94 04 24 	call	0x4808	; 0x4808 <__eewr_byte_m2560>
    125c:	80 e0       	ldi	r24, 0x00	; 0
    125e:	90 e0       	ldi	r25, 0x00	; 0
    1260:	69 81       	ldd	r22, Y+1	; 0x01
    1262:	0e 94 04 24 	call	0x4808	; 0x4808 <__eewr_byte_m2560>
    1266:	89 85       	ldd	r24, Y+9	; 0x09
    1268:	88 23       	and	r24, r24
    126a:	09 f1       	breq	.+66     	; 0x12ae <_Z19saveDateTime_eepromhh+0xa4>
    126c:	89 ec       	ldi	r24, 0xC9	; 201
    126e:	92 e0       	ldi	r25, 0x02	; 2
    1270:	0e 94 fb 00 	call	0x1f6	; 0x1f6 <_ZN6myDate8getYearsEv>
    1274:	9d 83       	std	Y+5, r25	; 0x05
    1276:	8c 83       	std	Y+4, r24	; 0x04
    1278:	89 ec       	ldi	r24, 0xC9	; 201
    127a:	92 e0       	ldi	r25, 0x02	; 2
    127c:	0e 94 e9 00 	call	0x1d2	; 0x1d2 <_ZN6myDate9getMonthsEv>
    1280:	8e 83       	std	Y+6, r24	; 0x06
    1282:	89 ec       	ldi	r24, 0xC9	; 201
    1284:	92 e0       	ldi	r25, 0x02	; 2
    1286:	0e 94 0d 01 	call	0x21a	; 0x21a <_ZN6myDate7getDaysEv>
    128a:	8f 83       	std	Y+7, r24	; 0x07
    128c:	85 e0       	ldi	r24, 0x05	; 5
    128e:	90 e0       	ldi	r25, 0x00	; 0
    1290:	2c 81       	ldd	r18, Y+4	; 0x04
    1292:	3d 81       	ldd	r19, Y+5	; 0x05
    1294:	b9 01       	movw	r22, r18
    1296:	0e 94 12 24 	call	0x4824	; 0x4824 <__eewr_word_m2560>
    129a:	83 e0       	ldi	r24, 0x03	; 3
    129c:	90 e0       	ldi	r25, 0x00	; 0
    129e:	6e 81       	ldd	r22, Y+6	; 0x06
    12a0:	0e 94 04 24 	call	0x4808	; 0x4808 <__eewr_byte_m2560>
    12a4:	84 e0       	ldi	r24, 0x04	; 4
    12a6:	90 e0       	ldi	r25, 0x00	; 0
    12a8:	6f 81       	ldd	r22, Y+7	; 0x07
    12aa:	0e 94 04 24 	call	0x4808	; 0x4808 <__eewr_byte_m2560>
    12ae:	78 94       	sei
    12b0:	29 96       	adiw	r28, 0x09	; 9
    12b2:	0f b6       	in	r0, 0x3f	; 63
    12b4:	f8 94       	cli
    12b6:	de bf       	out	0x3e, r29	; 62
    12b8:	0f be       	out	0x3f, r0	; 63
    12ba:	cd bf       	out	0x3d, r28	; 61
    12bc:	df 91       	pop	r29
    12be:	cf 91       	pop	r28
    12c0:	08 95       	ret

000012c2 <_Z7Wait_msj>:
    12c2:	cf 93       	push	r28
    12c4:	df 93       	push	r29
    12c6:	00 d0       	rcall	.+0      	; 0x12c8 <_Z7Wait_msj+0x6>
    12c8:	0f 92       	push	r0
    12ca:	cd b7       	in	r28, 0x3d	; 61
    12cc:	de b7       	in	r29, 0x3e	; 62
    12ce:	9c 83       	std	Y+4, r25	; 0x04
    12d0:	8b 83       	std	Y+3, r24	; 0x03
    12d2:	17 c0       	rjmp	.+46     	; 0x1302 <_Z7Wait_msj+0x40>
    12d4:	1a 82       	std	Y+2, r1	; 0x02
    12d6:	19 82       	std	Y+1, r1	; 0x01
    12d8:	06 c0       	rjmp	.+12     	; 0x12e6 <_Z7Wait_msj+0x24>
    12da:	00 00       	nop
    12dc:	89 81       	ldd	r24, Y+1	; 0x01
    12de:	9a 81       	ldd	r25, Y+2	; 0x02
    12e0:	01 96       	adiw	r24, 0x01	; 1
    12e2:	9a 83       	std	Y+2, r25	; 0x02
    12e4:	89 83       	std	Y+1, r24	; 0x01
    12e6:	89 81       	ldd	r24, Y+1	; 0x01
    12e8:	9a 81       	ldd	r25, Y+2	; 0x02
    12ea:	21 e0       	ldi	r18, 0x01	; 1
    12ec:	88 3c       	cpi	r24, 0xC8	; 200
    12ee:	91 05       	cpc	r25, r1
    12f0:	0c f0       	brlt	.+2      	; 0x12f4 <_Z7Wait_msj+0x32>
    12f2:	20 e0       	ldi	r18, 0x00	; 0
    12f4:	22 23       	and	r18, r18
    12f6:	89 f7       	brne	.-30     	; 0x12da <_Z7Wait_msj+0x18>
    12f8:	8b 81       	ldd	r24, Y+3	; 0x03
    12fa:	9c 81       	ldd	r25, Y+4	; 0x04
    12fc:	01 97       	sbiw	r24, 0x01	; 1
    12fe:	9c 83       	std	Y+4, r25	; 0x04
    1300:	8b 83       	std	Y+3, r24	; 0x03
    1302:	21 e0       	ldi	r18, 0x01	; 1
    1304:	8b 81       	ldd	r24, Y+3	; 0x03
    1306:	9c 81       	ldd	r25, Y+4	; 0x04
    1308:	00 97       	sbiw	r24, 0x00	; 0
    130a:	09 f4       	brne	.+2      	; 0x130e <_Z7Wait_msj+0x4c>
    130c:	20 e0       	ldi	r18, 0x00	; 0
    130e:	22 23       	and	r18, r18
    1310:	09 f7       	brne	.-62     	; 0x12d4 <_Z7Wait_msj+0x12>
    1312:	0f 90       	pop	r0
    1314:	0f 90       	pop	r0
    1316:	0f 90       	pop	r0
    1318:	0f 90       	pop	r0
    131a:	df 91       	pop	r29
    131c:	cf 91       	pop	r28
    131e:	08 95       	ret

00001320 <_Z13PutUartChBonec>:
    1320:	cf 93       	push	r28
    1322:	df 93       	push	r29
    1324:	0f 92       	push	r0
    1326:	cd b7       	in	r28, 0x3d	; 61
    1328:	de b7       	in	r29, 0x3e	; 62
    132a:	89 83       	std	Y+1, r24	; 0x01
    132c:	00 00       	nop
    132e:	80 ec       	ldi	r24, 0xC0	; 192
    1330:	90 e0       	ldi	r25, 0x00	; 0
    1332:	fc 01       	movw	r30, r24
    1334:	80 81       	ld	r24, Z
    1336:	88 2f       	mov	r24, r24
    1338:	90 e0       	ldi	r25, 0x00	; 0
    133a:	80 72       	andi	r24, 0x20	; 32
    133c:	90 70       	andi	r25, 0x00	; 0
    133e:	21 e0       	ldi	r18, 0x01	; 1
    1340:	00 97       	sbiw	r24, 0x00	; 0
    1342:	09 f0       	breq	.+2      	; 0x1346 <_Z13PutUartChBonec+0x26>
    1344:	20 e0       	ldi	r18, 0x00	; 0
    1346:	22 23       	and	r18, r18
    1348:	91 f7       	brne	.-28     	; 0x132e <_Z13PutUartChBonec+0xe>
    134a:	86 ec       	ldi	r24, 0xC6	; 198
    134c:	90 e0       	ldi	r25, 0x00	; 0
    134e:	29 81       	ldd	r18, Y+1	; 0x01
    1350:	fc 01       	movw	r30, r24
    1352:	20 83       	st	Z, r18
    1354:	0f 90       	pop	r0
    1356:	df 91       	pop	r29
    1358:	cf 91       	pop	r28
    135a:	08 95       	ret

0000135c <_Z9PrintBonePc>:
    135c:	cf 93       	push	r28
    135e:	df 93       	push	r29
    1360:	00 d0       	rcall	.+0      	; 0x1362 <_Z9PrintBonePc+0x6>
    1362:	cd b7       	in	r28, 0x3d	; 61
    1364:	de b7       	in	r29, 0x3e	; 62
    1366:	9b 83       	std	Y+3, r25	; 0x03
    1368:	8a 83       	std	Y+2, r24	; 0x02
    136a:	19 82       	std	Y+1, r1	; 0x01
    136c:	0e c0       	rjmp	.+28     	; 0x138a <_Z9PrintBonePc+0x2e>
    136e:	89 81       	ldd	r24, Y+1	; 0x01
    1370:	88 2f       	mov	r24, r24
    1372:	90 e0       	ldi	r25, 0x00	; 0
    1374:	2a 81       	ldd	r18, Y+2	; 0x02
    1376:	3b 81       	ldd	r19, Y+3	; 0x03
    1378:	82 0f       	add	r24, r18
    137a:	93 1f       	adc	r25, r19
    137c:	fc 01       	movw	r30, r24
    137e:	80 81       	ld	r24, Z
    1380:	99 81       	ldd	r25, Y+1	; 0x01
    1382:	9f 5f       	subi	r25, 0xFF	; 255
    1384:	99 83       	std	Y+1, r25	; 0x01
    1386:	0e 94 90 09 	call	0x1320	; 0x1320 <_Z13PutUartChBonec>
    138a:	89 81       	ldd	r24, Y+1	; 0x01
    138c:	88 2f       	mov	r24, r24
    138e:	90 e0       	ldi	r25, 0x00	; 0
    1390:	2a 81       	ldd	r18, Y+2	; 0x02
    1392:	3b 81       	ldd	r19, Y+3	; 0x03
    1394:	82 0f       	add	r24, r18
    1396:	93 1f       	adc	r25, r19
    1398:	fc 01       	movw	r30, r24
    139a:	90 81       	ld	r25, Z
    139c:	81 e0       	ldi	r24, 0x01	; 1
    139e:	99 23       	and	r25, r25
    13a0:	09 f4       	brne	.+2      	; 0x13a4 <_Z9PrintBonePc+0x48>
    13a2:	80 e0       	ldi	r24, 0x00	; 0
    13a4:	88 23       	and	r24, r24
    13a6:	19 f7       	brne	.-58     	; 0x136e <_Z9PrintBonePc+0x12>
    13a8:	0f 90       	pop	r0
    13aa:	0f 90       	pop	r0
    13ac:	0f 90       	pop	r0
    13ae:	df 91       	pop	r29
    13b0:	cf 91       	pop	r28
    13b2:	08 95       	ret

000013b4 <_Z13PutUartChWAVRc>:
    13b4:	cf 93       	push	r28
    13b6:	df 93       	push	r29
    13b8:	0f 92       	push	r0
    13ba:	cd b7       	in	r28, 0x3d	; 61
    13bc:	de b7       	in	r29, 0x3e	; 62
    13be:	89 83       	std	Y+1, r24	; 0x01
    13c0:	00 00       	nop
    13c2:	88 ec       	ldi	r24, 0xC8	; 200
    13c4:	90 e0       	ldi	r25, 0x00	; 0
    13c6:	fc 01       	movw	r30, r24
    13c8:	80 81       	ld	r24, Z
    13ca:	88 2f       	mov	r24, r24
    13cc:	90 e0       	ldi	r25, 0x00	; 0
    13ce:	80 72       	andi	r24, 0x20	; 32
    13d0:	90 70       	andi	r25, 0x00	; 0
    13d2:	21 e0       	ldi	r18, 0x01	; 1
    13d4:	00 97       	sbiw	r24, 0x00	; 0
    13d6:	09 f0       	breq	.+2      	; 0x13da <_Z13PutUartChWAVRc+0x26>
    13d8:	20 e0       	ldi	r18, 0x00	; 0
    13da:	22 23       	and	r18, r18
    13dc:	91 f7       	brne	.-28     	; 0x13c2 <_Z13PutUartChWAVRc+0xe>
    13de:	8e ec       	ldi	r24, 0xCE	; 206
    13e0:	90 e0       	ldi	r25, 0x00	; 0
    13e2:	29 81       	ldd	r18, Y+1	; 0x01
    13e4:	fc 01       	movw	r30, r24
    13e6:	20 83       	st	Z, r18
    13e8:	0f 90       	pop	r0
    13ea:	df 91       	pop	r29
    13ec:	cf 91       	pop	r28
    13ee:	08 95       	ret

000013f0 <_Z9PrintWAVRPc>:
    13f0:	cf 93       	push	r28
    13f2:	df 93       	push	r29
    13f4:	00 d0       	rcall	.+0      	; 0x13f6 <_Z9PrintWAVRPc+0x6>
    13f6:	cd b7       	in	r28, 0x3d	; 61
    13f8:	de b7       	in	r29, 0x3e	; 62
    13fa:	9b 83       	std	Y+3, r25	; 0x03
    13fc:	8a 83       	std	Y+2, r24	; 0x02
    13fe:	19 82       	std	Y+1, r1	; 0x01
    1400:	12 c0       	rjmp	.+36     	; 0x1426 <_Z9PrintWAVRPc+0x36>
    1402:	8e e5       	ldi	r24, 0x5E	; 94
    1404:	91 e0       	ldi	r25, 0x01	; 1
    1406:	0e 94 61 09 	call	0x12c2	; 0x12c2 <_Z7Wait_msj>
    140a:	89 81       	ldd	r24, Y+1	; 0x01
    140c:	88 2f       	mov	r24, r24
    140e:	90 e0       	ldi	r25, 0x00	; 0
    1410:	2a 81       	ldd	r18, Y+2	; 0x02
    1412:	3b 81       	ldd	r19, Y+3	; 0x03
    1414:	82 0f       	add	r24, r18
    1416:	93 1f       	adc	r25, r19
    1418:	fc 01       	movw	r30, r24
    141a:	80 81       	ld	r24, Z
    141c:	99 81       	ldd	r25, Y+1	; 0x01
    141e:	9f 5f       	subi	r25, 0xFF	; 255
    1420:	99 83       	std	Y+1, r25	; 0x01
    1422:	0e 94 da 09 	call	0x13b4	; 0x13b4 <_Z13PutUartChWAVRc>
    1426:	89 81       	ldd	r24, Y+1	; 0x01
    1428:	88 2f       	mov	r24, r24
    142a:	90 e0       	ldi	r25, 0x00	; 0
    142c:	2a 81       	ldd	r18, Y+2	; 0x02
    142e:	3b 81       	ldd	r19, Y+3	; 0x03
    1430:	82 0f       	add	r24, r18
    1432:	93 1f       	adc	r25, r19
    1434:	fc 01       	movw	r30, r24
    1436:	90 81       	ld	r25, Z
    1438:	81 e0       	ldi	r24, 0x01	; 1
    143a:	99 23       	and	r25, r25
    143c:	09 f4       	brne	.+2      	; 0x1440 <_Z9PrintWAVRPc+0x50>
    143e:	80 e0       	ldi	r24, 0x00	; 0
    1440:	88 23       	and	r24, r24
    1442:	f9 f6       	brne	.-66     	; 0x1402 <_Z9PrintWAVRPc+0x12>
    1444:	0f 90       	pop	r0
    1446:	0f 90       	pop	r0
    1448:	0f 90       	pop	r0
    144a:	df 91       	pop	r29
    144c:	cf 91       	pop	r28
    144e:	08 95       	ret

00001450 <_Z11ReceiveWAVRv>:
    1450:	cf 93       	push	r28
    1452:	df 93       	push	r29
    1454:	cd b7       	in	r28, 0x3d	; 61
    1456:	de b7       	in	r29, 0x3e	; 62
    1458:	c3 55       	subi	r28, 0x53	; 83
    145a:	d0 40       	sbci	r29, 0x00	; 0
    145c:	0f b6       	in	r0, 0x3f	; 63
    145e:	f8 94       	cli
    1460:	de bf       	out	0x3e, r29	; 62
    1462:	0f be       	out	0x3f, r0	; 63
    1464:	cd bf       	out	0x3d, r28	; 61
    1466:	78 94       	sei
    1468:	1a 8e       	std	Y+26, r1	; 0x1a
    146a:	19 8e       	std	Y+25, r1	; 0x19
    146c:	1a 82       	std	Y+2, r1	; 0x02
    146e:	19 82       	std	Y+1, r1	; 0x01
    1470:	81 e0       	ldi	r24, 0x01	; 1
    1472:	8b 83       	std	Y+3, r24	; 0x03
    1474:	38 c3       	rjmp	.+1648   	; 0x1ae6 <_Z11ReceiveWAVRv+0x696>
    1476:	89 8d       	ldd	r24, Y+25	; 0x19
    1478:	9a 8d       	ldd	r25, Y+26	; 0x1a
    147a:	82 30       	cpi	r24, 0x02	; 2
    147c:	91 05       	cpc	r25, r1
    147e:	09 f4       	brne	.+2      	; 0x1482 <_Z11ReceiveWAVRv+0x32>
    1480:	a9 c0       	rjmp	.+338    	; 0x15d4 <_Z11ReceiveWAVRv+0x184>
    1482:	83 30       	cpi	r24, 0x03	; 3
    1484:	91 05       	cpc	r25, r1
    1486:	38 f4       	brcc	.+14     	; 0x1496 <_Z11ReceiveWAVRv+0x46>
    1488:	00 97       	sbiw	r24, 0x00	; 0
    148a:	91 f0       	breq	.+36     	; 0x14b0 <_Z11ReceiveWAVRv+0x60>
    148c:	81 30       	cpi	r24, 0x01	; 1
    148e:	91 05       	cpc	r25, r1
    1490:	09 f4       	brne	.+2      	; 0x1494 <_Z11ReceiveWAVRv+0x44>
    1492:	92 c0       	rjmp	.+292    	; 0x15b8 <_Z11ReceiveWAVRv+0x168>
    1494:	22 c3       	rjmp	.+1604   	; 0x1ada <_Z11ReceiveWAVRv+0x68a>
    1496:	84 30       	cpi	r24, 0x04	; 4
    1498:	91 05       	cpc	r25, r1
    149a:	09 f4       	brne	.+2      	; 0x149e <_Z11ReceiveWAVRv+0x4e>
    149c:	d0 c2       	rjmp	.+1440   	; 0x1a3e <_Z11ReceiveWAVRv+0x5ee>
    149e:	84 30       	cpi	r24, 0x04	; 4
    14a0:	91 05       	cpc	r25, r1
    14a2:	08 f4       	brcc	.+2      	; 0x14a6 <_Z11ReceiveWAVRv+0x56>
    14a4:	e2 c0       	rjmp	.+452    	; 0x166a <_Z11ReceiveWAVRv+0x21a>
    14a6:	85 30       	cpi	r24, 0x05	; 5
    14a8:	91 05       	cpc	r25, r1
    14aa:	09 f4       	brne	.+2      	; 0x14ae <_Z11ReceiveWAVRv+0x5e>
    14ac:	ed c2       	rjmp	.+1498   	; 0x1a88 <_Z11ReceiveWAVRv+0x638>
    14ae:	15 c3       	rjmp	.+1578   	; 0x1ada <_Z11ReceiveWAVRv+0x68a>
    14b0:	1a 82       	std	Y+2, r1	; 0x02
    14b2:	19 82       	std	Y+1, r1	; 0x01
    14b4:	8e ec       	ldi	r24, 0xCE	; 206
    14b6:	90 e0       	ldi	r25, 0x00	; 0
    14b8:	fc 01       	movw	r30, r24
    14ba:	80 81       	ld	r24, Z
    14bc:	88 8f       	std	Y+24, r24	; 0x18
    14be:	88 8d       	ldd	r24, Y+24	; 0x18
    14c0:	8e 32       	cpi	r24, 0x2E	; 46
    14c2:	49 f4       	brne	.+18     	; 0x14d6 <_Z11ReceiveWAVRv+0x86>
    14c4:	80 e0       	ldi	r24, 0x00	; 0
    14c6:	92 e0       	ldi	r25, 0x02	; 2
    14c8:	0e 94 f8 09 	call	0x13f0	; 0x13f0 <_Z9PrintWAVRPc>
    14cc:	84 e0       	ldi	r24, 0x04	; 4
    14ce:	90 e0       	ldi	r25, 0x00	; 0
    14d0:	9a 8f       	std	Y+26, r25	; 0x1a
    14d2:	89 8f       	std	Y+25, r24	; 0x19
    14d4:	08 c3       	rjmp	.+1552   	; 0x1ae6 <_Z11ReceiveWAVRv+0x696>
    14d6:	9e 01       	movw	r18, r28
    14d8:	24 5d       	subi	r18, 0xD4	; 212
    14da:	3f 4f       	sbci	r19, 0xFF	; 255
    14dc:	89 81       	ldd	r24, Y+1	; 0x01
    14de:	9a 81       	ldd	r25, Y+2	; 0x02
    14e0:	82 0f       	add	r24, r18
    14e2:	93 1f       	adc	r25, r19
    14e4:	28 8d       	ldd	r18, Y+24	; 0x18
    14e6:	fc 01       	movw	r30, r24
    14e8:	20 83       	st	Z, r18
    14ea:	89 81       	ldd	r24, Y+1	; 0x01
    14ec:	9a 81       	ldd	r25, Y+2	; 0x02
    14ee:	01 96       	adiw	r24, 0x01	; 1
    14f0:	9a 83       	std	Y+2, r25	; 0x02
    14f2:	89 83       	std	Y+1, r24	; 0x01
    14f4:	81 e0       	ldi	r24, 0x01	; 1
    14f6:	90 e0       	ldi	r25, 0x00	; 0
    14f8:	9a 8f       	std	Y+26, r25	; 0x1a
    14fa:	89 8f       	std	Y+25, r24	; 0x19
    14fc:	f4 c2       	rjmp	.+1512   	; 0x1ae6 <_Z11ReceiveWAVRv+0x696>
    14fe:	84 e6       	ldi	r24, 0x64	; 100
    1500:	90 e0       	ldi	r25, 0x00	; 0
    1502:	0e 94 61 09 	call	0x12c2	; 0x12c2 <_Z7Wait_msj>
    1506:	00 00       	nop
    1508:	88 ec       	ldi	r24, 0xC8	; 200
    150a:	90 e0       	ldi	r25, 0x00	; 0
    150c:	fc 01       	movw	r30, r24
    150e:	80 81       	ld	r24, Z
    1510:	88 23       	and	r24, r24
    1512:	34 f0       	brlt	.+12     	; 0x1520 <_Z11ReceiveWAVRv+0xd0>
    1514:	80 91 c3 02 	lds	r24, 0x02C3
    1518:	88 23       	and	r24, r24
    151a:	11 f0       	breq	.+4      	; 0x1520 <_Z11ReceiveWAVRv+0xd0>
    151c:	81 e0       	ldi	r24, 0x01	; 1
    151e:	01 c0       	rjmp	.+2      	; 0x1522 <_Z11ReceiveWAVRv+0xd2>
    1520:	80 e0       	ldi	r24, 0x00	; 0
    1522:	88 23       	and	r24, r24
    1524:	89 f7       	brne	.-30     	; 0x1508 <_Z11ReceiveWAVRv+0xb8>
    1526:	80 91 c3 02 	lds	r24, 0x02C3
    152a:	88 23       	and	r24, r24
    152c:	61 f4       	brne	.+24     	; 0x1546 <_Z11ReceiveWAVRv+0xf6>
    152e:	83 e0       	ldi	r24, 0x03	; 3
    1530:	92 e0       	ldi	r25, 0x02	; 2
    1532:	0e 94 ae 09 	call	0x135c	; 0x135c <_Z9PrintBonePc>
    1536:	ce 01       	movw	r24, r28
    1538:	8c 96       	adiw	r24, 0x2c	; 44
    153a:	0e 94 ae 09 	call	0x135c	; 0x135c <_Z9PrintBonePc>
    153e:	1a 8e       	std	Y+26, r1	; 0x1a
    1540:	19 8e       	std	Y+25, r1	; 0x19
    1542:	00 00       	nop
    1544:	d0 c2       	rjmp	.+1440   	; 0x1ae6 <_Z11ReceiveWAVRv+0x696>
    1546:	8e ec       	ldi	r24, 0xCE	; 206
    1548:	90 e0       	ldi	r25, 0x00	; 0
    154a:	fc 01       	movw	r30, r24
    154c:	80 81       	ld	r24, Z
    154e:	88 8f       	std	Y+24, r24	; 0x18
    1550:	9e 01       	movw	r18, r28
    1552:	24 5d       	subi	r18, 0xD4	; 212
    1554:	3f 4f       	sbci	r19, 0xFF	; 255
    1556:	89 81       	ldd	r24, Y+1	; 0x01
    1558:	9a 81       	ldd	r25, Y+2	; 0x02
    155a:	82 0f       	add	r24, r18
    155c:	93 1f       	adc	r25, r19
    155e:	28 8d       	ldd	r18, Y+24	; 0x18
    1560:	fc 01       	movw	r30, r24
    1562:	20 83       	st	Z, r18
    1564:	89 81       	ldd	r24, Y+1	; 0x01
    1566:	9a 81       	ldd	r25, Y+2	; 0x02
    1568:	01 96       	adiw	r24, 0x01	; 1
    156a:	9a 83       	std	Y+2, r25	; 0x02
    156c:	89 83       	std	Y+1, r24	; 0x01
    156e:	88 8d       	ldd	r24, Y+24	; 0x18
    1570:	8e 32       	cpi	r24, 0x2E	; 46
    1572:	19 f0       	breq	.+6      	; 0x157a <_Z11ReceiveWAVRv+0x12a>
    1574:	88 8d       	ldd	r24, Y+24	; 0x18
    1576:	88 23       	and	r24, r24
    1578:	79 f4       	brne	.+30     	; 0x1598 <_Z11ReceiveWAVRv+0x148>
    157a:	9e 01       	movw	r18, r28
    157c:	24 5d       	subi	r18, 0xD4	; 212
    157e:	3f 4f       	sbci	r19, 0xFF	; 255
    1580:	89 81       	ldd	r24, Y+1	; 0x01
    1582:	9a 81       	ldd	r25, Y+2	; 0x02
    1584:	82 0f       	add	r24, r18
    1586:	93 1f       	adc	r25, r19
    1588:	fc 01       	movw	r30, r24
    158a:	10 82       	st	Z, r1
    158c:	1b 82       	std	Y+3, r1	; 0x03
    158e:	82 e0       	ldi	r24, 0x02	; 2
    1590:	90 e0       	ldi	r25, 0x00	; 0
    1592:	9a 8f       	std	Y+26, r25	; 0x1a
    1594:	89 8f       	std	Y+25, r24	; 0x19
    1596:	10 c0       	rjmp	.+32     	; 0x15b8 <_Z11ReceiveWAVRv+0x168>
    1598:	89 81       	ldd	r24, Y+1	; 0x01
    159a:	9a 81       	ldd	r25, Y+2	; 0x02
    159c:	87 32       	cpi	r24, 0x27	; 39
    159e:	91 05       	cpc	r25, r1
    15a0:	5c f0       	brlt	.+22     	; 0x15b8 <_Z11ReceiveWAVRv+0x168>
    15a2:	1a 82       	std	Y+2, r1	; 0x02
    15a4:	19 82       	std	Y+1, r1	; 0x01
    15a6:	1b 82       	std	Y+3, r1	; 0x03
    15a8:	10 92 c3 02 	sts	0x02C3, r1
    15ac:	80 e0       	ldi	r24, 0x00	; 0
    15ae:	92 e0       	ldi	r25, 0x02	; 2
    15b0:	0e 94 f8 09 	call	0x13f0	; 0x13f0 <_Z9PrintWAVRPc>
    15b4:	1a 8e       	std	Y+26, r1	; 0x1a
    15b6:	19 8e       	std	Y+25, r1	; 0x19
    15b8:	8b 81       	ldd	r24, Y+3	; 0x03
    15ba:	88 23       	and	r24, r24
    15bc:	31 f0       	breq	.+12     	; 0x15ca <_Z11ReceiveWAVRv+0x17a>
    15be:	80 91 c3 02 	lds	r24, 0x02C3
    15c2:	88 23       	and	r24, r24
    15c4:	11 f0       	breq	.+4      	; 0x15ca <_Z11ReceiveWAVRv+0x17a>
    15c6:	81 e0       	ldi	r24, 0x01	; 1
    15c8:	01 c0       	rjmp	.+2      	; 0x15cc <_Z11ReceiveWAVRv+0x17c>
    15ca:	80 e0       	ldi	r24, 0x00	; 0
    15cc:	88 23       	and	r24, r24
    15ce:	09 f0       	breq	.+2      	; 0x15d2 <_Z11ReceiveWAVRv+0x182>
    15d0:	96 cf       	rjmp	.-212    	; 0x14fe <_Z11ReceiveWAVRv+0xae>
    15d2:	89 c2       	rjmp	.+1298   	; 0x1ae6 <_Z11ReceiveWAVRv+0x696>
    15d4:	ce 01       	movw	r24, r28
    15d6:	8c 96       	adiw	r24, 0x2c	; 44
    15d8:	2d e0       	ldi	r18, 0x0D	; 13
    15da:	32 e0       	ldi	r19, 0x02	; 2
    15dc:	b9 01       	movw	r22, r18
    15de:	43 e0       	ldi	r20, 0x03	; 3
    15e0:	50 e0       	ldi	r21, 0x00	; 0
    15e2:	0e 94 bf 23 	call	0x477e	; 0x477e <strncmp>
    15e6:	00 97       	sbiw	r24, 0x00	; 0
    15e8:	e9 f4       	brne	.+58     	; 0x1624 <_Z11ReceiveWAVRv+0x1d4>
    15ea:	84 e0       	ldi	r24, 0x04	; 4
    15ec:	90 e0       	ldi	r25, 0x00	; 0
    15ee:	9a 8f       	std	Y+26, r25	; 0x1a
    15f0:	89 8f       	std	Y+25, r24	; 0x19
    15f2:	80 e1       	ldi	r24, 0x10	; 16
    15f4:	92 e0       	ldi	r25, 0x02	; 2
    15f6:	0e 94 ae 09 	call	0x135c	; 0x135c <_Z9PrintBonePc>
    15fa:	84 e6       	ldi	r24, 0x64	; 100
    15fc:	90 e0       	ldi	r25, 0x00	; 0
    15fe:	0e 94 61 09 	call	0x12c2	; 0x12c2 <_Z7Wait_msj>
    1602:	8d e0       	ldi	r24, 0x0D	; 13
    1604:	92 e0       	ldi	r25, 0x02	; 2
    1606:	0e 94 f8 09 	call	0x13f0	; 0x13f0 <_Z9PrintWAVRPc>
    160a:	81 e0       	ldi	r24, 0x01	; 1
    160c:	80 93 be 02 	sts	0x02BE, r24
    1610:	80 91 bf 02 	lds	r24, 0x02BF
    1614:	88 23       	and	r24, r24
    1616:	09 f4       	brne	.+2      	; 0x161a <_Z11ReceiveWAVRv+0x1ca>
    1618:	65 c2       	rjmp	.+1226   	; 0x1ae4 <_Z11ReceiveWAVRv+0x694>
    161a:	10 92 bf 02 	sts	0x02BF, r1
    161e:	10 92 c2 02 	sts	0x02C2, r1
    1622:	60 c2       	rjmp	.+1216   	; 0x1ae4 <_Z11ReceiveWAVRv+0x694>
    1624:	8e a5       	lds	r24, 0x6e
    1626:	91 e0       	ldi	r25, 0x01	; 1
    1628:	8a 33       	cpi	r24, 0x3A	; 58
    162a:	09 f0       	breq	.+2      	; 0x162e <_Z11ReceiveWAVRv+0x1de>
    162c:	90 e0       	ldi	r25, 0x00	; 0
    162e:	2f a5       	lds	r18, 0x6f
    1630:	81 e0       	ldi	r24, 0x01	; 1
    1632:	2a 33       	cpi	r18, 0x3A	; 58
    1634:	09 f0       	breq	.+2      	; 0x1638 <_Z11ReceiveWAVRv+0x1e8>
    1636:	80 e0       	ldi	r24, 0x00	; 0
    1638:	89 27       	eor	r24, r25
    163a:	88 23       	and	r24, r24
    163c:	29 f0       	breq	.+10     	; 0x1648 <_Z11ReceiveWAVRv+0x1f8>
    163e:	83 e0       	ldi	r24, 0x03	; 3
    1640:	90 e0       	ldi	r25, 0x00	; 0
    1642:	9a 8f       	std	Y+26, r25	; 0x1a
    1644:	89 8f       	std	Y+25, r24	; 0x19
    1646:	4e c2       	rjmp	.+1180   	; 0x1ae4 <_Z11ReceiveWAVRv+0x694>
    1648:	80 e0       	ldi	r24, 0x00	; 0
    164a:	92 e0       	ldi	r25, 0x02	; 2
    164c:	0e 94 f8 09 	call	0x13f0	; 0x13f0 <_Z9PrintWAVRPc>
    1650:	84 e0       	ldi	r24, 0x04	; 4
    1652:	90 e0       	ldi	r25, 0x00	; 0
    1654:	9a 8f       	std	Y+26, r25	; 0x1a
    1656:	89 8f       	std	Y+25, r24	; 0x19
    1658:	84 e2       	ldi	r24, 0x24	; 36
    165a:	92 e0       	ldi	r25, 0x02	; 2
    165c:	0e 94 ae 09 	call	0x135c	; 0x135c <_Z9PrintBonePc>
    1660:	ce 01       	movw	r24, r28
    1662:	8c 96       	adiw	r24, 0x2c	; 44
    1664:	0e 94 ae 09 	call	0x135c	; 0x135c <_Z9PrintBonePc>
    1668:	3d c2       	rjmp	.+1146   	; 0x1ae4 <_Z11ReceiveWAVRv+0x694>
    166a:	1c 82       	std	Y+4, r1	; 0x04
    166c:	1d 82       	std	Y+5, r1	; 0x05
    166e:	81 e0       	ldi	r24, 0x01	; 1
    1670:	90 e0       	ldi	r25, 0x00	; 0
    1672:	9f 83       	std	Y+7, r25	; 0x07
    1674:	8e 83       	std	Y+6, r24	; 0x06
    1676:	1c 8e       	std	Y+28, r1	; 0x1c
    1678:	1b 8e       	std	Y+27, r1	; 0x1b
    167a:	1e 8e       	std	Y+30, r1	; 0x1e
    167c:	1d 8e       	std	Y+29, r1	; 0x1d
    167e:	18 a2       	lds	r17, 0x98
    1680:	1f 8e       	std	Y+31, r1	; 0x1f
    1682:	1a a2       	lds	r17, 0x9a
    1684:	19 a2       	lds	r17, 0x99
    1686:	1c a2       	lds	r17, 0x9c
    1688:	1b a2       	lds	r17, 0x9b
    168a:	1e a2       	lds	r17, 0x9e
    168c:	1d a2       	lds	r17, 0x9d
    168e:	19 86       	std	Y+9, r1	; 0x09
    1690:	18 86       	std	Y+8, r1	; 0x08
    1692:	1b 86       	std	Y+11, r1	; 0x0b
    1694:	1a 86       	std	Y+10, r1	; 0x0a
    1696:	1d 86       	std	Y+13, r1	; 0x0d
    1698:	1c 86       	std	Y+12, r1	; 0x0c
    169a:	73 c0       	rjmp	.+230    	; 0x1782 <_Z11ReceiveWAVRv+0x332>
    169c:	9e 01       	movw	r18, r28
    169e:	24 5d       	subi	r18, 0xD4	; 212
    16a0:	3f 4f       	sbci	r19, 0xFF	; 255
    16a2:	8e 81       	ldd	r24, Y+6	; 0x06
    16a4:	9f 81       	ldd	r25, Y+7	; 0x07
    16a6:	82 0f       	add	r24, r18
    16a8:	93 1f       	adc	r25, r19
    16aa:	fc 01       	movw	r30, r24
    16ac:	80 81       	ld	r24, Z
    16ae:	8a 33       	cpi	r24, 0x3A	; 58
    16b0:	e9 f0       	breq	.+58     	; 0x16ec <_Z11ReceiveWAVRv+0x29c>
    16b2:	8a 85       	ldd	r24, Y+10	; 0x0a
    16b4:	9b 85       	ldd	r25, Y+11	; 0x0b
    16b6:	83 30       	cpi	r24, 0x03	; 3
    16b8:	91 05       	cpc	r25, r1
    16ba:	c4 f4       	brge	.+48     	; 0x16ec <_Z11ReceiveWAVRv+0x29c>
    16bc:	9e 01       	movw	r18, r28
    16be:	24 5d       	subi	r18, 0xD4	; 212
    16c0:	3f 4f       	sbci	r19, 0xFF	; 255
    16c2:	8e 81       	ldd	r24, Y+6	; 0x06
    16c4:	9f 81       	ldd	r25, Y+7	; 0x07
    16c6:	82 0f       	add	r24, r18
    16c8:	93 1f       	adc	r25, r19
    16ca:	fc 01       	movw	r30, r24
    16cc:	40 81       	ld	r20, Z
    16ce:	9e 01       	movw	r18, r28
    16d0:	29 5d       	subi	r18, 0xD9	; 217
    16d2:	3f 4f       	sbci	r19, 0xFF	; 255
    16d4:	8c 85       	ldd	r24, Y+12	; 0x0c
    16d6:	9d 85       	ldd	r25, Y+13	; 0x0d
    16d8:	82 0f       	add	r24, r18
    16da:	93 1f       	adc	r25, r19
    16dc:	fc 01       	movw	r30, r24
    16de:	40 83       	st	Z, r20
    16e0:	8c 85       	ldd	r24, Y+12	; 0x0c
    16e2:	9d 85       	ldd	r25, Y+13	; 0x0d
    16e4:	01 96       	adiw	r24, 0x01	; 1
    16e6:	9d 87       	std	Y+13, r25	; 0x0d
    16e8:	8c 87       	std	Y+12, r24	; 0x0c
    16ea:	46 c0       	rjmp	.+140    	; 0x1778 <_Z11ReceiveWAVRv+0x328>
    16ec:	8a 85       	ldd	r24, Y+10	; 0x0a
    16ee:	9b 85       	ldd	r25, Y+11	; 0x0b
    16f0:	82 30       	cpi	r24, 0x02	; 2
    16f2:	91 05       	cpc	r25, r1
    16f4:	0c f0       	brlt	.+2      	; 0x16f8 <_Z11ReceiveWAVRv+0x2a8>
    16f6:	40 c0       	rjmp	.+128    	; 0x1778 <_Z11ReceiveWAVRv+0x328>
    16f8:	9e 01       	movw	r18, r28
    16fa:	24 5d       	subi	r18, 0xD4	; 212
    16fc:	3f 4f       	sbci	r19, 0xFF	; 255
    16fe:	8e 81       	ldd	r24, Y+6	; 0x06
    1700:	9f 81       	ldd	r25, Y+7	; 0x07
    1702:	82 0f       	add	r24, r18
    1704:	93 1f       	adc	r25, r19
    1706:	fc 01       	movw	r30, r24
    1708:	80 81       	ld	r24, Z
    170a:	8a 33       	cpi	r24, 0x3A	; 58
    170c:	a9 f5       	brne	.+106    	; 0x1778 <_Z11ReceiveWAVRv+0x328>
    170e:	ce 01       	movw	r24, r28
    1710:	87 96       	adiw	r24, 0x27	; 39
    1712:	0e 94 86 23 	call	0x470c	; 0x470c <atoi>
    1716:	9c 01       	movw	r18, r24
    1718:	8a 85       	ldd	r24, Y+10	; 0x0a
    171a:	9b 85       	ldd	r25, Y+11	; 0x0b
    171c:	88 0f       	add	r24, r24
    171e:	99 1f       	adc	r25, r25
    1720:	ae 01       	movw	r20, r28
    1722:	4f 5f       	subi	r20, 0xFF	; 255
    1724:	5f 4f       	sbci	r21, 0xFF	; 255
    1726:	84 0f       	add	r24, r20
    1728:	95 1f       	adc	r25, r21
    172a:	4a 96       	adiw	r24, 0x1a	; 26
    172c:	fc 01       	movw	r30, r24
    172e:	31 83       	std	Z+1, r19	; 0x01
    1730:	20 83       	st	Z, r18
    1732:	8a 85       	ldd	r24, Y+10	; 0x0a
    1734:	9b 85       	ldd	r25, Y+11	; 0x0b
    1736:	01 96       	adiw	r24, 0x01	; 1
    1738:	9b 87       	std	Y+11, r25	; 0x0b
    173a:	8a 87       	std	Y+10, r24	; 0x0a
    173c:	1f 86       	std	Y+15, r1	; 0x0f
    173e:	1e 86       	std	Y+14, r1	; 0x0e
    1740:	0e c0       	rjmp	.+28     	; 0x175e <_Z11ReceiveWAVRv+0x30e>
    1742:	9e 01       	movw	r18, r28
    1744:	29 5d       	subi	r18, 0xD9	; 217
    1746:	3f 4f       	sbci	r19, 0xFF	; 255
    1748:	8e 85       	ldd	r24, Y+14	; 0x0e
    174a:	9f 85       	ldd	r25, Y+15	; 0x0f
    174c:	82 0f       	add	r24, r18
    174e:	93 1f       	adc	r25, r19
    1750:	fc 01       	movw	r30, r24
    1752:	10 82       	st	Z, r1
    1754:	8e 85       	ldd	r24, Y+14	; 0x0e
    1756:	9f 85       	ldd	r25, Y+15	; 0x0f
    1758:	01 96       	adiw	r24, 0x01	; 1
    175a:	9f 87       	std	Y+15, r25	; 0x0f
    175c:	8e 87       	std	Y+14, r24	; 0x0e
    175e:	41 e0       	ldi	r20, 0x01	; 1
    1760:	2e 85       	ldd	r18, Y+14	; 0x0e
    1762:	3f 85       	ldd	r19, Y+15	; 0x0f
    1764:	8c 85       	ldd	r24, Y+12	; 0x0c
    1766:	9d 85       	ldd	r25, Y+13	; 0x0d
    1768:	82 17       	cp	r24, r18
    176a:	93 07       	cpc	r25, r19
    176c:	0c f4       	brge	.+2      	; 0x1770 <_Z11ReceiveWAVRv+0x320>
    176e:	40 e0       	ldi	r20, 0x00	; 0
    1770:	44 23       	and	r20, r20
    1772:	39 f7       	brne	.-50     	; 0x1742 <_Z11ReceiveWAVRv+0x2f2>
    1774:	1d 86       	std	Y+13, r1	; 0x0d
    1776:	1c 86       	std	Y+12, r1	; 0x0c
    1778:	8e 81       	ldd	r24, Y+6	; 0x06
    177a:	9f 81       	ldd	r25, Y+7	; 0x07
    177c:	01 96       	adiw	r24, 0x01	; 1
    177e:	9f 83       	std	Y+7, r25	; 0x07
    1780:	8e 83       	std	Y+6, r24	; 0x06
    1782:	9e 01       	movw	r18, r28
    1784:	24 5d       	subi	r18, 0xD4	; 212
    1786:	3f 4f       	sbci	r19, 0xFF	; 255
    1788:	8e 81       	ldd	r24, Y+6	; 0x06
    178a:	9f 81       	ldd	r25, Y+7	; 0x07
    178c:	82 0f       	add	r24, r18
    178e:	93 1f       	adc	r25, r19
    1790:	fc 01       	movw	r30, r24
    1792:	80 81       	ld	r24, Z
    1794:	8f 32       	cpi	r24, 0x2F	; 47
    1796:	69 f0       	breq	.+26     	; 0x17b2 <_Z11ReceiveWAVRv+0x362>
    1798:	9e 01       	movw	r18, r28
    179a:	24 5d       	subi	r18, 0xD4	; 212
    179c:	3f 4f       	sbci	r19, 0xFF	; 255
    179e:	8e 81       	ldd	r24, Y+6	; 0x06
    17a0:	9f 81       	ldd	r25, Y+7	; 0x07
    17a2:	82 0f       	add	r24, r18
    17a4:	93 1f       	adc	r25, r19
    17a6:	fc 01       	movw	r30, r24
    17a8:	80 81       	ld	r24, Z
    17aa:	88 23       	and	r24, r24
    17ac:	11 f0       	breq	.+4      	; 0x17b2 <_Z11ReceiveWAVRv+0x362>
    17ae:	81 e0       	ldi	r24, 0x01	; 1
    17b0:	01 c0       	rjmp	.+2      	; 0x17b4 <_Z11ReceiveWAVRv+0x364>
    17b2:	80 e0       	ldi	r24, 0x00	; 0
    17b4:	88 23       	and	r24, r24
    17b6:	09 f0       	breq	.+2      	; 0x17ba <_Z11ReceiveWAVRv+0x36a>
    17b8:	71 cf       	rjmp	.-286    	; 0x169c <_Z11ReceiveWAVRv+0x24c>
    17ba:	9e 01       	movw	r18, r28
    17bc:	24 5d       	subi	r18, 0xD4	; 212
    17be:	3f 4f       	sbci	r19, 0xFF	; 255
    17c0:	8e 81       	ldd	r24, Y+6	; 0x06
    17c2:	9f 81       	ldd	r25, Y+7	; 0x07
    17c4:	82 0f       	add	r24, r18
    17c6:	93 1f       	adc	r25, r19
    17c8:	fc 01       	movw	r30, r24
    17ca:	80 81       	ld	r24, Z
    17cc:	8f 32       	cpi	r24, 0x2F	; 47
    17ce:	a9 f4       	brne	.+42     	; 0x17fa <_Z11ReceiveWAVRv+0x3aa>
    17d0:	ce 01       	movw	r24, r28
    17d2:	87 96       	adiw	r24, 0x27	; 39
    17d4:	0e 94 86 23 	call	0x470c	; 0x470c <atoi>
    17d8:	9c 01       	movw	r18, r24
    17da:	8a 85       	ldd	r24, Y+10	; 0x0a
    17dc:	9b 85       	ldd	r25, Y+11	; 0x0b
    17de:	88 0f       	add	r24, r24
    17e0:	99 1f       	adc	r25, r25
    17e2:	ae 01       	movw	r20, r28
    17e4:	4f 5f       	subi	r20, 0xFF	; 255
    17e6:	5f 4f       	sbci	r21, 0xFF	; 255
    17e8:	84 0f       	add	r24, r20
    17ea:	95 1f       	adc	r25, r21
    17ec:	4a 96       	adiw	r24, 0x1a	; 26
    17ee:	fc 01       	movw	r30, r24
    17f0:	31 83       	std	Z+1, r19	; 0x01
    17f2:	20 83       	st	Z, r18
    17f4:	81 e0       	ldi	r24, 0x01	; 1
    17f6:	8c 83       	std	Y+4, r24	; 0x04
    17f8:	04 c0       	rjmp	.+8      	; 0x1802 <_Z11ReceiveWAVRv+0x3b2>
    17fa:	85 e0       	ldi	r24, 0x05	; 5
    17fc:	90 e0       	ldi	r25, 0x00	; 0
    17fe:	9a 8f       	std	Y+26, r25	; 0x1a
    1800:	89 8f       	std	Y+25, r24	; 0x19
    1802:	19 8a       	std	Y+17, r1	; 0x11
    1804:	18 8a       	std	Y+16, r1	; 0x10
    1806:	0e c0       	rjmp	.+28     	; 0x1824 <_Z11ReceiveWAVRv+0x3d4>
    1808:	9e 01       	movw	r18, r28
    180a:	29 5d       	subi	r18, 0xD9	; 217
    180c:	3f 4f       	sbci	r19, 0xFF	; 255
    180e:	88 89       	ldd	r24, Y+16	; 0x10
    1810:	99 89       	ldd	r25, Y+17	; 0x11
    1812:	82 0f       	add	r24, r18
    1814:	93 1f       	adc	r25, r19
    1816:	fc 01       	movw	r30, r24
    1818:	10 82       	st	Z, r1
    181a:	88 89       	ldd	r24, Y+16	; 0x10
    181c:	99 89       	ldd	r25, Y+17	; 0x11
    181e:	01 96       	adiw	r24, 0x01	; 1
    1820:	99 8b       	std	Y+17, r25	; 0x11
    1822:	88 8b       	std	Y+16, r24	; 0x10
    1824:	41 e0       	ldi	r20, 0x01	; 1
    1826:	28 89       	ldd	r18, Y+16	; 0x10
    1828:	39 89       	ldd	r19, Y+17	; 0x11
    182a:	8c 85       	ldd	r24, Y+12	; 0x0c
    182c:	9d 85       	ldd	r25, Y+13	; 0x0d
    182e:	82 17       	cp	r24, r18
    1830:	93 07       	cpc	r25, r19
    1832:	0c f4       	brge	.+2      	; 0x1836 <_Z11ReceiveWAVRv+0x3e6>
    1834:	40 e0       	ldi	r20, 0x00	; 0
    1836:	44 23       	and	r20, r20
    1838:	39 f7       	brne	.-50     	; 0x1808 <_Z11ReceiveWAVRv+0x3b8>
    183a:	1d 86       	std	Y+13, r1	; 0x0d
    183c:	1c 86       	std	Y+12, r1	; 0x0c
    183e:	8e 81       	ldd	r24, Y+6	; 0x06
    1840:	9f 81       	ldd	r25, Y+7	; 0x07
    1842:	01 96       	adiw	r24, 0x01	; 1
    1844:	9f 83       	std	Y+7, r25	; 0x07
    1846:	8e 83       	std	Y+6, r24	; 0x06
    1848:	73 c0       	rjmp	.+230    	; 0x1930 <_Z11ReceiveWAVRv+0x4e0>
    184a:	9e 01       	movw	r18, r28
    184c:	24 5d       	subi	r18, 0xD4	; 212
    184e:	3f 4f       	sbci	r19, 0xFF	; 255
    1850:	8e 81       	ldd	r24, Y+6	; 0x06
    1852:	9f 81       	ldd	r25, Y+7	; 0x07
    1854:	82 0f       	add	r24, r18
    1856:	93 1f       	adc	r25, r19
    1858:	fc 01       	movw	r30, r24
    185a:	80 81       	ld	r24, Z
    185c:	8c 32       	cpi	r24, 0x2C	; 44
    185e:	e9 f0       	breq	.+58     	; 0x189a <_Z11ReceiveWAVRv+0x44a>
    1860:	88 85       	ldd	r24, Y+8	; 0x08
    1862:	99 85       	ldd	r25, Y+9	; 0x09
    1864:	83 30       	cpi	r24, 0x03	; 3
    1866:	91 05       	cpc	r25, r1
    1868:	c4 f4       	brge	.+48     	; 0x189a <_Z11ReceiveWAVRv+0x44a>
    186a:	9e 01       	movw	r18, r28
    186c:	24 5d       	subi	r18, 0xD4	; 212
    186e:	3f 4f       	sbci	r19, 0xFF	; 255
    1870:	8e 81       	ldd	r24, Y+6	; 0x06
    1872:	9f 81       	ldd	r25, Y+7	; 0x07
    1874:	82 0f       	add	r24, r18
    1876:	93 1f       	adc	r25, r19
    1878:	fc 01       	movw	r30, r24
    187a:	40 81       	ld	r20, Z
    187c:	9e 01       	movw	r18, r28
    187e:	29 5d       	subi	r18, 0xD9	; 217
    1880:	3f 4f       	sbci	r19, 0xFF	; 255
    1882:	8c 85       	ldd	r24, Y+12	; 0x0c
    1884:	9d 85       	ldd	r25, Y+13	; 0x0d
    1886:	82 0f       	add	r24, r18
    1888:	93 1f       	adc	r25, r19
    188a:	fc 01       	movw	r30, r24
    188c:	40 83       	st	Z, r20
    188e:	8c 85       	ldd	r24, Y+12	; 0x0c
    1890:	9d 85       	ldd	r25, Y+13	; 0x0d
    1892:	01 96       	adiw	r24, 0x01	; 1
    1894:	9d 87       	std	Y+13, r25	; 0x0d
    1896:	8c 87       	std	Y+12, r24	; 0x0c
    1898:	46 c0       	rjmp	.+140    	; 0x1926 <_Z11ReceiveWAVRv+0x4d6>
    189a:	88 85       	ldd	r24, Y+8	; 0x08
    189c:	99 85       	ldd	r25, Y+9	; 0x09
    189e:	82 30       	cpi	r24, 0x02	; 2
    18a0:	91 05       	cpc	r25, r1
    18a2:	0c f0       	brlt	.+2      	; 0x18a6 <_Z11ReceiveWAVRv+0x456>
    18a4:	40 c0       	rjmp	.+128    	; 0x1926 <_Z11ReceiveWAVRv+0x4d6>
    18a6:	9e 01       	movw	r18, r28
    18a8:	24 5d       	subi	r18, 0xD4	; 212
    18aa:	3f 4f       	sbci	r19, 0xFF	; 255
    18ac:	8e 81       	ldd	r24, Y+6	; 0x06
    18ae:	9f 81       	ldd	r25, Y+7	; 0x07
    18b0:	82 0f       	add	r24, r18
    18b2:	93 1f       	adc	r25, r19
    18b4:	fc 01       	movw	r30, r24
    18b6:	80 81       	ld	r24, Z
    18b8:	8c 32       	cpi	r24, 0x2C	; 44
    18ba:	a9 f5       	brne	.+106    	; 0x1926 <_Z11ReceiveWAVRv+0x4d6>
    18bc:	ce 01       	movw	r24, r28
    18be:	87 96       	adiw	r24, 0x27	; 39
    18c0:	0e 94 86 23 	call	0x470c	; 0x470c <atoi>
    18c4:	9c 01       	movw	r18, r24
    18c6:	88 85       	ldd	r24, Y+8	; 0x08
    18c8:	99 85       	ldd	r25, Y+9	; 0x09
    18ca:	88 0f       	add	r24, r24
    18cc:	99 1f       	adc	r25, r25
    18ce:	ae 01       	movw	r20, r28
    18d0:	4f 5f       	subi	r20, 0xFF	; 255
    18d2:	5f 4f       	sbci	r21, 0xFF	; 255
    18d4:	84 0f       	add	r24, r20
    18d6:	95 1f       	adc	r25, r21
    18d8:	80 96       	adiw	r24, 0x20	; 32
    18da:	fc 01       	movw	r30, r24
    18dc:	31 83       	std	Z+1, r19	; 0x01
    18de:	20 83       	st	Z, r18
    18e0:	88 85       	ldd	r24, Y+8	; 0x08
    18e2:	99 85       	ldd	r25, Y+9	; 0x09
    18e4:	01 96       	adiw	r24, 0x01	; 1
    18e6:	99 87       	std	Y+9, r25	; 0x09
    18e8:	88 87       	std	Y+8, r24	; 0x08
    18ea:	1b 8a       	std	Y+19, r1	; 0x13
    18ec:	1a 8a       	std	Y+18, r1	; 0x12
    18ee:	0e c0       	rjmp	.+28     	; 0x190c <_Z11ReceiveWAVRv+0x4bc>
    18f0:	9e 01       	movw	r18, r28
    18f2:	29 5d       	subi	r18, 0xD9	; 217
    18f4:	3f 4f       	sbci	r19, 0xFF	; 255
    18f6:	8a 89       	ldd	r24, Y+18	; 0x12
    18f8:	9b 89       	ldd	r25, Y+19	; 0x13
    18fa:	82 0f       	add	r24, r18
    18fc:	93 1f       	adc	r25, r19
    18fe:	fc 01       	movw	r30, r24
    1900:	10 82       	st	Z, r1
    1902:	8a 89       	ldd	r24, Y+18	; 0x12
    1904:	9b 89       	ldd	r25, Y+19	; 0x13
    1906:	01 96       	adiw	r24, 0x01	; 1
    1908:	9b 8b       	std	Y+19, r25	; 0x13
    190a:	8a 8b       	std	Y+18, r24	; 0x12
    190c:	41 e0       	ldi	r20, 0x01	; 1
    190e:	2a 89       	ldd	r18, Y+18	; 0x12
    1910:	3b 89       	ldd	r19, Y+19	; 0x13
    1912:	8c 85       	ldd	r24, Y+12	; 0x0c
    1914:	9d 85       	ldd	r25, Y+13	; 0x0d
    1916:	82 17       	cp	r24, r18
    1918:	93 07       	cpc	r25, r19
    191a:	0c f4       	brge	.+2      	; 0x191e <_Z11ReceiveWAVRv+0x4ce>
    191c:	40 e0       	ldi	r20, 0x00	; 0
    191e:	44 23       	and	r20, r20
    1920:	39 f7       	brne	.-50     	; 0x18f0 <_Z11ReceiveWAVRv+0x4a0>
    1922:	1d 86       	std	Y+13, r1	; 0x0d
    1924:	1c 86       	std	Y+12, r1	; 0x0c
    1926:	8e 81       	ldd	r24, Y+6	; 0x06
    1928:	9f 81       	ldd	r25, Y+7	; 0x07
    192a:	01 96       	adiw	r24, 0x01	; 1
    192c:	9f 83       	std	Y+7, r25	; 0x07
    192e:	8e 83       	std	Y+6, r24	; 0x06
    1930:	9e 01       	movw	r18, r28
    1932:	24 5d       	subi	r18, 0xD4	; 212
    1934:	3f 4f       	sbci	r19, 0xFF	; 255
    1936:	8e 81       	ldd	r24, Y+6	; 0x06
    1938:	9f 81       	ldd	r25, Y+7	; 0x07
    193a:	82 0f       	add	r24, r18
    193c:	93 1f       	adc	r25, r19
    193e:	fc 01       	movw	r30, r24
    1940:	80 81       	ld	r24, Z
    1942:	8e 32       	cpi	r24, 0x2E	; 46
    1944:	a1 f0       	breq	.+40     	; 0x196e <_Z11ReceiveWAVRv+0x51e>
    1946:	9e 01       	movw	r18, r28
    1948:	24 5d       	subi	r18, 0xD4	; 212
    194a:	3f 4f       	sbci	r19, 0xFF	; 255
    194c:	8e 81       	ldd	r24, Y+6	; 0x06
    194e:	9f 81       	ldd	r25, Y+7	; 0x07
    1950:	82 0f       	add	r24, r18
    1952:	93 1f       	adc	r25, r19
    1954:	fc 01       	movw	r30, r24
    1956:	80 81       	ld	r24, Z
    1958:	88 23       	and	r24, r24
    195a:	49 f0       	breq	.+18     	; 0x196e <_Z11ReceiveWAVRv+0x51e>
    195c:	2e 81       	ldd	r18, Y+6	; 0x06
    195e:	3f 81       	ldd	r19, Y+7	; 0x07
    1960:	89 81       	ldd	r24, Y+1	; 0x01
    1962:	9a 81       	ldd	r25, Y+2	; 0x02
    1964:	28 17       	cp	r18, r24
    1966:	39 07       	cpc	r19, r25
    1968:	11 f0       	breq	.+4      	; 0x196e <_Z11ReceiveWAVRv+0x51e>
    196a:	81 e0       	ldi	r24, 0x01	; 1
    196c:	01 c0       	rjmp	.+2      	; 0x1970 <_Z11ReceiveWAVRv+0x520>
    196e:	80 e0       	ldi	r24, 0x00	; 0
    1970:	88 23       	and	r24, r24
    1972:	09 f0       	breq	.+2      	; 0x1976 <_Z11ReceiveWAVRv+0x526>
    1974:	6a cf       	rjmp	.-300    	; 0x184a <_Z11ReceiveWAVRv+0x3fa>
    1976:	9e 01       	movw	r18, r28
    1978:	24 5d       	subi	r18, 0xD4	; 212
    197a:	3f 4f       	sbci	r19, 0xFF	; 255
    197c:	8e 81       	ldd	r24, Y+6	; 0x06
    197e:	9f 81       	ldd	r25, Y+7	; 0x07
    1980:	82 0f       	add	r24, r18
    1982:	93 1f       	adc	r25, r19
    1984:	fc 01       	movw	r30, r24
    1986:	80 81       	ld	r24, Z
    1988:	8e 32       	cpi	r24, 0x2E	; 46
    198a:	a9 f4       	brne	.+42     	; 0x19b6 <_Z11ReceiveWAVRv+0x566>
    198c:	ce 01       	movw	r24, r28
    198e:	87 96       	adiw	r24, 0x27	; 39
    1990:	0e 94 86 23 	call	0x470c	; 0x470c <atoi>
    1994:	9c 01       	movw	r18, r24
    1996:	88 85       	ldd	r24, Y+8	; 0x08
    1998:	99 85       	ldd	r25, Y+9	; 0x09
    199a:	88 0f       	add	r24, r24
    199c:	99 1f       	adc	r25, r25
    199e:	ae 01       	movw	r20, r28
    19a0:	4f 5f       	subi	r20, 0xFF	; 255
    19a2:	5f 4f       	sbci	r21, 0xFF	; 255
    19a4:	84 0f       	add	r24, r20
    19a6:	95 1f       	adc	r25, r21
    19a8:	80 96       	adiw	r24, 0x20	; 32
    19aa:	fc 01       	movw	r30, r24
    19ac:	31 83       	std	Z+1, r19	; 0x01
    19ae:	20 83       	st	Z, r18
    19b0:	81 e0       	ldi	r24, 0x01	; 1
    19b2:	8d 83       	std	Y+5, r24	; 0x05
    19b4:	04 c0       	rjmp	.+8      	; 0x19be <_Z11ReceiveWAVRv+0x56e>
    19b6:	85 e0       	ldi	r24, 0x05	; 5
    19b8:	90 e0       	ldi	r25, 0x00	; 0
    19ba:	9a 8f       	std	Y+26, r25	; 0x1a
    19bc:	89 8f       	std	Y+25, r24	; 0x19
    19be:	8d 81       	ldd	r24, Y+5	; 0x05
    19c0:	88 23       	and	r24, r24
    19c2:	79 f1       	breq	.+94     	; 0x1a22 <_Z11ReceiveWAVRv+0x5d2>
    19c4:	8c 81       	ldd	r24, Y+4	; 0x04
    19c6:	88 23       	and	r24, r24
    19c8:	61 f1       	breq	.+88     	; 0x1a22 <_Z11ReceiveWAVRv+0x5d2>
    19ca:	6b 8d       	ldd	r22, Y+27	; 0x1b
    19cc:	7c 8d       	ldd	r23, Y+28	; 0x1c
    19ce:	4d 8d       	ldd	r20, Y+29	; 0x1d
    19d0:	5e 8d       	ldd	r21, Y+30	; 0x1e
    19d2:	2f 8d       	ldd	r18, Y+31	; 0x1f
    19d4:	38 a1       	lds	r19, 0x48
    19d6:	89 ec       	ldi	r24, 0xC9	; 201
    19d8:	92 e0       	ldi	r25, 0x02	; 2
    19da:	0e 94 98 05 	call	0xb30	; 0xb30 <_ZN6myTime7setTimeEiii>
    19de:	69 a1       	lds	r22, 0x49
    19e0:	7a a1       	lds	r23, 0x4a
    19e2:	4b a1       	lds	r20, 0x4b
    19e4:	5c a1       	lds	r21, 0x4c
    19e6:	2d a1       	lds	r18, 0x4d
    19e8:	3e a1       	lds	r19, 0x4e
    19ea:	89 ec       	ldi	r24, 0xC9	; 201
    19ec:	92 e0       	ldi	r25, 0x02	; 2
    19ee:	0e 94 c7 01 	call	0x38e	; 0x38e <_ZN6myDate7setDateEiii>
    19f2:	81 e0       	ldi	r24, 0x01	; 1
    19f4:	61 e0       	ldi	r22, 0x01	; 1
    19f6:	0e 94 05 09 	call	0x120a	; 0x120a <_Z19saveDateTime_eepromhh>
    19fa:	10 92 be 02 	sts	0x02BE, r1
    19fe:	81 e0       	ldi	r24, 0x01	; 1
    1a00:	80 93 bf 02 	sts	0x02BF, r24
    1a04:	85 e3       	ldi	r24, 0x35	; 53
    1a06:	92 e0       	ldi	r25, 0x02	; 2
    1a08:	0e 94 ae 09 	call	0x135c	; 0x135c <_Z9PrintBonePc>
    1a0c:	81 e4       	ldi	r24, 0x41	; 65
    1a0e:	8c a7       	lds	r24, 0x7c
    1a10:	ce 01       	movw	r24, r28
    1a12:	8c 96       	adiw	r24, 0x2c	; 44
    1a14:	0e 94 f8 09 	call	0x13f0	; 0x13f0 <_Z9PrintWAVRPc>
    1a18:	84 e0       	ldi	r24, 0x04	; 4
    1a1a:	90 e0       	ldi	r25, 0x00	; 0
    1a1c:	9a 8f       	std	Y+26, r25	; 0x1a
    1a1e:	89 8f       	std	Y+25, r24	; 0x19
    1a20:	62 c0       	rjmp	.+196    	; 0x1ae6 <_Z11ReceiveWAVRv+0x696>
    1a22:	81 e0       	ldi	r24, 0x01	; 1
    1a24:	80 93 be 02 	sts	0x02BE, r24
    1a28:	10 92 bf 02 	sts	0x02BF, r1
    1a2c:	83 e4       	ldi	r24, 0x43	; 67
    1a2e:	92 e0       	ldi	r25, 0x02	; 2
    1a30:	0e 94 ae 09 	call	0x135c	; 0x135c <_Z9PrintBonePc>
    1a34:	85 e0       	ldi	r24, 0x05	; 5
    1a36:	90 e0       	ldi	r25, 0x00	; 0
    1a38:	9a 8f       	std	Y+26, r25	; 0x1a
    1a3a:	89 8f       	std	Y+25, r24	; 0x19
    1a3c:	54 c0       	rjmp	.+168    	; 0x1ae6 <_Z11ReceiveWAVRv+0x696>
    1a3e:	8c e4       	ldi	r24, 0x4C	; 76
    1a40:	92 e0       	ldi	r25, 0x02	; 2
    1a42:	0e 94 ae 09 	call	0x135c	; 0x135c <_Z9PrintBonePc>
    1a46:	1a 8e       	std	Y+26, r1	; 0x1a
    1a48:	19 8e       	std	Y+25, r1	; 0x19
    1a4a:	10 92 c3 02 	sts	0x02C3, r1
    1a4e:	1d 8a       	std	Y+21, r1	; 0x15
    1a50:	1c 8a       	std	Y+20, r1	; 0x14
    1a52:	0e c0       	rjmp	.+28     	; 0x1a70 <_Z11ReceiveWAVRv+0x620>
    1a54:	9e 01       	movw	r18, r28
    1a56:	24 5d       	subi	r18, 0xD4	; 212
    1a58:	3f 4f       	sbci	r19, 0xFF	; 255
    1a5a:	8c 89       	ldd	r24, Y+20	; 0x14
    1a5c:	9d 89       	ldd	r25, Y+21	; 0x15
    1a5e:	82 0f       	add	r24, r18
    1a60:	93 1f       	adc	r25, r19
    1a62:	fc 01       	movw	r30, r24
    1a64:	10 82       	st	Z, r1
    1a66:	8c 89       	ldd	r24, Y+20	; 0x14
    1a68:	9d 89       	ldd	r25, Y+21	; 0x15
    1a6a:	01 96       	adiw	r24, 0x01	; 1
    1a6c:	9d 8b       	std	Y+21, r25	; 0x15
    1a6e:	8c 8b       	std	Y+20, r24	; 0x14
    1a70:	41 e0       	ldi	r20, 0x01	; 1
    1a72:	2c 89       	ldd	r18, Y+20	; 0x14
    1a74:	3d 89       	ldd	r19, Y+21	; 0x15
    1a76:	89 81       	ldd	r24, Y+1	; 0x01
    1a78:	9a 81       	ldd	r25, Y+2	; 0x02
    1a7a:	82 17       	cp	r24, r18
    1a7c:	93 07       	cpc	r25, r19
    1a7e:	0c f4       	brge	.+2      	; 0x1a82 <_Z11ReceiveWAVRv+0x632>
    1a80:	40 e0       	ldi	r20, 0x00	; 0
    1a82:	44 23       	and	r20, r20
    1a84:	39 f7       	brne	.-50     	; 0x1a54 <_Z11ReceiveWAVRv+0x604>
    1a86:	2f c0       	rjmp	.+94     	; 0x1ae6 <_Z11ReceiveWAVRv+0x696>
    1a88:	86 e9       	ldi	r24, 0x96	; 150
    1a8a:	90 e0       	ldi	r25, 0x00	; 0
    1a8c:	0e 94 61 09 	call	0x12c2	; 0x12c2 <_Z7Wait_msj>
    1a90:	85 e5       	ldi	r24, 0x55	; 85
    1a92:	92 e0       	ldi	r25, 0x02	; 2
    1a94:	0e 94 f8 09 	call	0x13f0	; 0x13f0 <_Z9PrintWAVRPc>
    1a98:	10 92 c3 02 	sts	0x02C3, r1
    1a9c:	1f 8a       	std	Y+23, r1	; 0x17
    1a9e:	1e 8a       	std	Y+22, r1	; 0x16
    1aa0:	0e c0       	rjmp	.+28     	; 0x1abe <_Z11ReceiveWAVRv+0x66e>
    1aa2:	9e 01       	movw	r18, r28
    1aa4:	24 5d       	subi	r18, 0xD4	; 212
    1aa6:	3f 4f       	sbci	r19, 0xFF	; 255
    1aa8:	8e 89       	ldd	r24, Y+22	; 0x16
    1aaa:	9f 89       	ldd	r25, Y+23	; 0x17
    1aac:	82 0f       	add	r24, r18
    1aae:	93 1f       	adc	r25, r19
    1ab0:	fc 01       	movw	r30, r24
    1ab2:	10 82       	st	Z, r1
    1ab4:	8e 89       	ldd	r24, Y+22	; 0x16
    1ab6:	9f 89       	ldd	r25, Y+23	; 0x17
    1ab8:	01 96       	adiw	r24, 0x01	; 1
    1aba:	9f 8b       	std	Y+23, r25	; 0x17
    1abc:	8e 8b       	std	Y+22, r24	; 0x16
    1abe:	41 e0       	ldi	r20, 0x01	; 1
    1ac0:	2e 89       	ldd	r18, Y+22	; 0x16
    1ac2:	3f 89       	ldd	r19, Y+23	; 0x17
    1ac4:	89 81       	ldd	r24, Y+1	; 0x01
    1ac6:	9a 81       	ldd	r25, Y+2	; 0x02
    1ac8:	82 17       	cp	r24, r18
    1aca:	93 07       	cpc	r25, r19
    1acc:	0c f4       	brge	.+2      	; 0x1ad0 <_Z11ReceiveWAVRv+0x680>
    1ace:	40 e0       	ldi	r20, 0x00	; 0
    1ad0:	44 23       	and	r20, r20
    1ad2:	39 f7       	brne	.-50     	; 0x1aa2 <_Z11ReceiveWAVRv+0x652>
    1ad4:	1a 8e       	std	Y+26, r1	; 0x1a
    1ad6:	19 8e       	std	Y+25, r1	; 0x19
    1ad8:	06 c0       	rjmp	.+12     	; 0x1ae6 <_Z11ReceiveWAVRv+0x696>
    1ada:	1a 8e       	std	Y+26, r1	; 0x1a
    1adc:	19 8e       	std	Y+25, r1	; 0x19
    1ade:	10 92 c3 02 	sts	0x02C3, r1
    1ae2:	01 c0       	rjmp	.+2      	; 0x1ae6 <_Z11ReceiveWAVRv+0x696>
    1ae4:	00 00       	nop
    1ae6:	90 91 c3 02 	lds	r25, 0x02C3
    1aea:	81 e0       	ldi	r24, 0x01	; 1
    1aec:	99 23       	and	r25, r25
    1aee:	09 f4       	brne	.+2      	; 0x1af2 <_Z11ReceiveWAVRv+0x6a2>
    1af0:	80 e0       	ldi	r24, 0x00	; 0
    1af2:	88 23       	and	r24, r24
    1af4:	09 f0       	breq	.+2      	; 0x1af8 <_Z11ReceiveWAVRv+0x6a8>
    1af6:	bf cc       	rjmp	.-1666   	; 0x1476 <_Z11ReceiveWAVRv+0x26>
    1af8:	cd 5a       	subi	r28, 0xAD	; 173
    1afa:	df 4f       	sbci	r29, 0xFF	; 255
    1afc:	0f b6       	in	r0, 0x3f	; 63
    1afe:	f8 94       	cli
    1b00:	de bf       	out	0x3e, r29	; 62
    1b02:	0f be       	out	0x3f, r0	; 63
    1b04:	cd bf       	out	0x3d, r28	; 61
    1b06:	df 91       	pop	r29
    1b08:	cf 91       	pop	r28
    1b0a:	08 95       	ret

00001b0c <_Z11ReceiveBonev>:
    1b0c:	cf 93       	push	r28
    1b0e:	df 93       	push	r29
    1b10:	cd b7       	in	r28, 0x3d	; 61
    1b12:	de b7       	in	r29, 0x3e	; 62
    1b14:	e2 97       	sbiw	r28, 0x32	; 50
    1b16:	0f b6       	in	r0, 0x3f	; 63
    1b18:	f8 94       	cli
    1b1a:	de bf       	out	0x3e, r29	; 62
    1b1c:	0f be       	out	0x3f, r0	; 63
    1b1e:	cd bf       	out	0x3d, r28	; 61
    1b20:	1a 82       	std	Y+2, r1	; 0x02
    1b22:	19 82       	std	Y+1, r1	; 0x01
    1b24:	1c 82       	std	Y+4, r1	; 0x04
    1b26:	1b 82       	std	Y+3, r1	; 0x03
    1b28:	81 e0       	ldi	r24, 0x01	; 1
    1b2a:	8d 83       	std	Y+5, r24	; 0x05
    1b2c:	46 c1       	rjmp	.+652    	; 0x1dba <_Z11ReceiveBonev+0x2ae>
    1b2e:	89 81       	ldd	r24, Y+1	; 0x01
    1b30:	9a 81       	ldd	r25, Y+2	; 0x02
    1b32:	82 30       	cpi	r24, 0x02	; 2
    1b34:	91 05       	cpc	r25, r1
    1b36:	09 f4       	brne	.+2      	; 0x1b3a <_Z11ReceiveBonev+0x2e>
    1b38:	95 c0       	rjmp	.+298    	; 0x1c64 <_Z11ReceiveBonev+0x158>
    1b3a:	83 30       	cpi	r24, 0x03	; 3
    1b3c:	91 05       	cpc	r25, r1
    1b3e:	38 f4       	brcc	.+14     	; 0x1b4e <_Z11ReceiveBonev+0x42>
    1b40:	00 97       	sbiw	r24, 0x00	; 0
    1b42:	71 f0       	breq	.+28     	; 0x1b60 <_Z11ReceiveBonev+0x54>
    1b44:	81 30       	cpi	r24, 0x01	; 1
    1b46:	91 05       	cpc	r25, r1
    1b48:	09 f4       	brne	.+2      	; 0x1b4c <_Z11ReceiveBonev+0x40>
    1b4a:	7e c0       	rjmp	.+252    	; 0x1c48 <_Z11ReceiveBonev+0x13c>
    1b4c:	31 c1       	rjmp	.+610    	; 0x1db0 <_Z11ReceiveBonev+0x2a4>
    1b4e:	83 30       	cpi	r24, 0x03	; 3
    1b50:	91 05       	cpc	r25, r1
    1b52:	09 f4       	brne	.+2      	; 0x1b56 <_Z11ReceiveBonev+0x4a>
    1b54:	e3 c0       	rjmp	.+454    	; 0x1d1c <_Z11ReceiveBonev+0x210>
    1b56:	84 30       	cpi	r24, 0x04	; 4
    1b58:	91 05       	cpc	r25, r1
    1b5a:	09 f4       	brne	.+2      	; 0x1b5e <_Z11ReceiveBonev+0x52>
    1b5c:	08 c1       	rjmp	.+528    	; 0x1d6e <_Z11ReceiveBonev+0x262>
    1b5e:	28 c1       	rjmp	.+592    	; 0x1db0 <_Z11ReceiveBonev+0x2a4>
    1b60:	1c 82       	std	Y+4, r1	; 0x04
    1b62:	1b 82       	std	Y+3, r1	; 0x03
    1b64:	86 ec       	ldi	r24, 0xC6	; 198
    1b66:	90 e0       	ldi	r25, 0x00	; 0
    1b68:	fc 01       	movw	r30, r24
    1b6a:	80 81       	ld	r24, Z
    1b6c:	8a 87       	std	Y+10, r24	; 0x0a
    1b6e:	8a 85       	ldd	r24, Y+10	; 0x0a
    1b70:	8e 32       	cpi	r24, 0x2E	; 46
    1b72:	29 f4       	brne	.+10     	; 0x1b7e <_Z11ReceiveBonev+0x72>
    1b74:	83 e0       	ldi	r24, 0x03	; 3
    1b76:	90 e0       	ldi	r25, 0x00	; 0
    1b78:	9a 83       	std	Y+2, r25	; 0x02
    1b7a:	89 83       	std	Y+1, r24	; 0x01
    1b7c:	1e c1       	rjmp	.+572    	; 0x1dba <_Z11ReceiveBonev+0x2ae>
    1b7e:	9e 01       	movw	r18, r28
    1b80:	25 5f       	subi	r18, 0xF5	; 245
    1b82:	3f 4f       	sbci	r19, 0xFF	; 255
    1b84:	8b 81       	ldd	r24, Y+3	; 0x03
    1b86:	9c 81       	ldd	r25, Y+4	; 0x04
    1b88:	82 0f       	add	r24, r18
    1b8a:	93 1f       	adc	r25, r19
    1b8c:	2a 85       	ldd	r18, Y+10	; 0x0a
    1b8e:	fc 01       	movw	r30, r24
    1b90:	20 83       	st	Z, r18
    1b92:	8b 81       	ldd	r24, Y+3	; 0x03
    1b94:	9c 81       	ldd	r25, Y+4	; 0x04
    1b96:	01 96       	adiw	r24, 0x01	; 1
    1b98:	9c 83       	std	Y+4, r25	; 0x04
    1b9a:	8b 83       	std	Y+3, r24	; 0x03
    1b9c:	81 e0       	ldi	r24, 0x01	; 1
    1b9e:	90 e0       	ldi	r25, 0x00	; 0
    1ba0:	9a 83       	std	Y+2, r25	; 0x02
    1ba2:	89 83       	std	Y+1, r24	; 0x01
    1ba4:	0a c1       	rjmp	.+532    	; 0x1dba <_Z11ReceiveBonev+0x2ae>
    1ba6:	80 e5       	ldi	r24, 0x50	; 80
    1ba8:	90 e0       	ldi	r25, 0x00	; 0
    1baa:	0e 94 61 09 	call	0x12c2	; 0x12c2 <_Z7Wait_msj>
    1bae:	00 00       	nop
    1bb0:	80 ec       	ldi	r24, 0xC0	; 192
    1bb2:	90 e0       	ldi	r25, 0x00	; 0
    1bb4:	fc 01       	movw	r30, r24
    1bb6:	80 81       	ld	r24, Z
    1bb8:	88 23       	and	r24, r24
    1bba:	34 f0       	brlt	.+12     	; 0x1bc8 <_Z11ReceiveBonev+0xbc>
    1bbc:	80 91 c5 02 	lds	r24, 0x02C5
    1bc0:	88 23       	and	r24, r24
    1bc2:	11 f0       	breq	.+4      	; 0x1bc8 <_Z11ReceiveBonev+0xbc>
    1bc4:	81 e0       	ldi	r24, 0x01	; 1
    1bc6:	01 c0       	rjmp	.+2      	; 0x1bca <_Z11ReceiveBonev+0xbe>
    1bc8:	80 e0       	ldi	r24, 0x00	; 0
    1bca:	88 23       	and	r24, r24
    1bcc:	89 f7       	brne	.-30     	; 0x1bb0 <_Z11ReceiveBonev+0xa4>
    1bce:	80 91 c5 02 	lds	r24, 0x02C5
    1bd2:	88 23       	and	r24, r24
    1bd4:	31 f4       	brne	.+12     	; 0x1be2 <_Z11ReceiveBonev+0xd6>
    1bd6:	84 e0       	ldi	r24, 0x04	; 4
    1bd8:	90 e0       	ldi	r25, 0x00	; 0
    1bda:	9a 83       	std	Y+2, r25	; 0x02
    1bdc:	89 83       	std	Y+1, r24	; 0x01
    1bde:	00 00       	nop
    1be0:	ec c0       	rjmp	.+472    	; 0x1dba <_Z11ReceiveBonev+0x2ae>
    1be2:	86 ec       	ldi	r24, 0xC6	; 198
    1be4:	90 e0       	ldi	r25, 0x00	; 0
    1be6:	fc 01       	movw	r30, r24
    1be8:	80 81       	ld	r24, Z
    1bea:	8a 87       	std	Y+10, r24	; 0x0a
    1bec:	9e 01       	movw	r18, r28
    1bee:	25 5f       	subi	r18, 0xF5	; 245
    1bf0:	3f 4f       	sbci	r19, 0xFF	; 255
    1bf2:	8b 81       	ldd	r24, Y+3	; 0x03
    1bf4:	9c 81       	ldd	r25, Y+4	; 0x04
    1bf6:	82 0f       	add	r24, r18
    1bf8:	93 1f       	adc	r25, r19
    1bfa:	2a 85       	ldd	r18, Y+10	; 0x0a
    1bfc:	fc 01       	movw	r30, r24
    1bfe:	20 83       	st	Z, r18
    1c00:	8b 81       	ldd	r24, Y+3	; 0x03
    1c02:	9c 81       	ldd	r25, Y+4	; 0x04
    1c04:	01 96       	adiw	r24, 0x01	; 1
    1c06:	9c 83       	std	Y+4, r25	; 0x04
    1c08:	8b 83       	std	Y+3, r24	; 0x03
    1c0a:	8a 85       	ldd	r24, Y+10	; 0x0a
    1c0c:	8e 32       	cpi	r24, 0x2E	; 46
    1c0e:	19 f0       	breq	.+6      	; 0x1c16 <_Z11ReceiveBonev+0x10a>
    1c10:	8a 85       	ldd	r24, Y+10	; 0x0a
    1c12:	88 23       	and	r24, r24
    1c14:	79 f4       	brne	.+30     	; 0x1c34 <_Z11ReceiveBonev+0x128>
    1c16:	9e 01       	movw	r18, r28
    1c18:	25 5f       	subi	r18, 0xF5	; 245
    1c1a:	3f 4f       	sbci	r19, 0xFF	; 255
    1c1c:	8b 81       	ldd	r24, Y+3	; 0x03
    1c1e:	9c 81       	ldd	r25, Y+4	; 0x04
    1c20:	82 0f       	add	r24, r18
    1c22:	93 1f       	adc	r25, r19
    1c24:	fc 01       	movw	r30, r24
    1c26:	10 82       	st	Z, r1
    1c28:	1d 82       	std	Y+5, r1	; 0x05
    1c2a:	82 e0       	ldi	r24, 0x02	; 2
    1c2c:	90 e0       	ldi	r25, 0x00	; 0
    1c2e:	9a 83       	std	Y+2, r25	; 0x02
    1c30:	89 83       	std	Y+1, r24	; 0x01
    1c32:	0a c0       	rjmp	.+20     	; 0x1c48 <_Z11ReceiveBonev+0x13c>
    1c34:	8b 81       	ldd	r24, Y+3	; 0x03
    1c36:	9c 81       	ldd	r25, Y+4	; 0x04
    1c38:	87 32       	cpi	r24, 0x27	; 39
    1c3a:	91 05       	cpc	r25, r1
    1c3c:	28 f0       	brcs	.+10     	; 0x1c48 <_Z11ReceiveBonev+0x13c>
    1c3e:	83 e0       	ldi	r24, 0x03	; 3
    1c40:	90 e0       	ldi	r25, 0x00	; 0
    1c42:	9a 83       	std	Y+2, r25	; 0x02
    1c44:	89 83       	std	Y+1, r24	; 0x01
    1c46:	1d 82       	std	Y+5, r1	; 0x05
    1c48:	8d 81       	ldd	r24, Y+5	; 0x05
    1c4a:	88 23       	and	r24, r24
    1c4c:	31 f0       	breq	.+12     	; 0x1c5a <_Z11ReceiveBonev+0x14e>
    1c4e:	80 91 c5 02 	lds	r24, 0x02C5
    1c52:	88 23       	and	r24, r24
    1c54:	11 f0       	breq	.+4      	; 0x1c5a <_Z11ReceiveBonev+0x14e>
    1c56:	81 e0       	ldi	r24, 0x01	; 1
    1c58:	01 c0       	rjmp	.+2      	; 0x1c5c <_Z11ReceiveBonev+0x150>
    1c5a:	80 e0       	ldi	r24, 0x00	; 0
    1c5c:	88 23       	and	r24, r24
    1c5e:	09 f0       	breq	.+2      	; 0x1c62 <_Z11ReceiveBonev+0x156>
    1c60:	a2 cf       	rjmp	.-188    	; 0x1ba6 <_Z11ReceiveBonev+0x9a>
    1c62:	ab c0       	rjmp	.+342    	; 0x1dba <_Z11ReceiveBonev+0x2ae>
    1c64:	ce 01       	movw	r24, r28
    1c66:	0b 96       	adiw	r24, 0x0b	; 11
    1c68:	28 e5       	ldi	r18, 0x58	; 88
    1c6a:	32 e0       	ldi	r19, 0x02	; 2
    1c6c:	b9 01       	movw	r22, r18
    1c6e:	42 e0       	ldi	r20, 0x02	; 2
    1c70:	50 e0       	ldi	r21, 0x00	; 0
    1c72:	0e 94 bf 23 	call	0x477e	; 0x477e <strncmp>
    1c76:	00 97       	sbiw	r24, 0x00	; 0
    1c78:	51 f4       	brne	.+20     	; 0x1c8e <_Z11ReceiveBonev+0x182>
    1c7a:	81 e0       	ldi	r24, 0x01	; 1
    1c7c:	60 e0       	ldi	r22, 0x00	; 0
    1c7e:	41 e0       	ldi	r20, 0x01	; 1
    1c80:	0e 94 72 11 	call	0x22e4	; 0x22e4 <_Z13printTimeDatehhh>
    1c84:	84 e0       	ldi	r24, 0x04	; 4
    1c86:	90 e0       	ldi	r25, 0x00	; 0
    1c88:	9a 83       	std	Y+2, r25	; 0x02
    1c8a:	89 83       	std	Y+1, r24	; 0x01
    1c8c:	96 c0       	rjmp	.+300    	; 0x1dba <_Z11ReceiveBonev+0x2ae>
    1c8e:	ce 01       	movw	r24, r28
    1c90:	0b 96       	adiw	r24, 0x0b	; 11
    1c92:	2b e5       	ldi	r18, 0x5B	; 91
    1c94:	32 e0       	ldi	r19, 0x02	; 2
    1c96:	b9 01       	movw	r22, r18
    1c98:	42 e0       	ldi	r20, 0x02	; 2
    1c9a:	50 e0       	ldi	r21, 0x00	; 0
    1c9c:	0e 94 bf 23 	call	0x477e	; 0x477e <strncmp>
    1ca0:	00 97       	sbiw	r24, 0x00	; 0
    1ca2:	51 f4       	brne	.+20     	; 0x1cb8 <_Z11ReceiveBonev+0x1ac>
    1ca4:	81 e0       	ldi	r24, 0x01	; 1
    1ca6:	61 e0       	ldi	r22, 0x01	; 1
    1ca8:	40 e0       	ldi	r20, 0x00	; 0
    1caa:	0e 94 72 11 	call	0x22e4	; 0x22e4 <_Z13printTimeDatehhh>
    1cae:	84 e0       	ldi	r24, 0x04	; 4
    1cb0:	90 e0       	ldi	r25, 0x00	; 0
    1cb2:	9a 83       	std	Y+2, r25	; 0x02
    1cb4:	89 83       	std	Y+1, r24	; 0x01
    1cb6:	81 c0       	rjmp	.+258    	; 0x1dba <_Z11ReceiveBonev+0x2ae>
    1cb8:	ce 01       	movw	r24, r28
    1cba:	0b 96       	adiw	r24, 0x0b	; 11
    1cbc:	2e e5       	ldi	r18, 0x5E	; 94
    1cbe:	32 e0       	ldi	r19, 0x02	; 2
    1cc0:	b9 01       	movw	r22, r18
    1cc2:	42 e0       	ldi	r20, 0x02	; 2
    1cc4:	50 e0       	ldi	r21, 0x00	; 0
    1cc6:	0e 94 bf 23 	call	0x477e	; 0x477e <strncmp>
    1cca:	00 97       	sbiw	r24, 0x00	; 0
    1ccc:	51 f4       	brne	.+20     	; 0x1ce2 <_Z11ReceiveBonev+0x1d6>
    1cce:	81 e0       	ldi	r24, 0x01	; 1
    1cd0:	61 e0       	ldi	r22, 0x01	; 1
    1cd2:	41 e0       	ldi	r20, 0x01	; 1
    1cd4:	0e 94 72 11 	call	0x22e4	; 0x22e4 <_Z13printTimeDatehhh>
    1cd8:	84 e0       	ldi	r24, 0x04	; 4
    1cda:	90 e0       	ldi	r25, 0x00	; 0
    1cdc:	9a 83       	std	Y+2, r25	; 0x02
    1cde:	89 83       	std	Y+1, r24	; 0x01
    1ce0:	6c c0       	rjmp	.+216    	; 0x1dba <_Z11ReceiveBonev+0x2ae>
    1ce2:	ce 01       	movw	r24, r28
    1ce4:	0b 96       	adiw	r24, 0x0b	; 11
    1ce6:	21 e6       	ldi	r18, 0x61	; 97
    1ce8:	32 e0       	ldi	r19, 0x02	; 2
    1cea:	b9 01       	movw	r22, r18
    1cec:	42 e0       	ldi	r20, 0x02	; 2
    1cee:	50 e0       	ldi	r21, 0x00	; 0
    1cf0:	0e 94 bf 23 	call	0x477e	; 0x477e <strncmp>
    1cf4:	00 97       	sbiw	r24, 0x00	; 0
    1cf6:	69 f4       	brne	.+26     	; 0x1d12 <_Z11ReceiveBonev+0x206>
    1cf8:	81 e0       	ldi	r24, 0x01	; 1
    1cfa:	60 e0       	ldi	r22, 0x00	; 0
    1cfc:	0e 94 05 09 	call	0x120a	; 0x120a <_Z19saveDateTime_eepromhh>
    1d00:	ce 01       	movw	r24, r28
    1d02:	0b 96       	adiw	r24, 0x0b	; 11
    1d04:	0e 94 ae 09 	call	0x135c	; 0x135c <_Z9PrintBonePc>
    1d08:	84 e0       	ldi	r24, 0x04	; 4
    1d0a:	90 e0       	ldi	r25, 0x00	; 0
    1d0c:	9a 83       	std	Y+2, r25	; 0x02
    1d0e:	89 83       	std	Y+1, r24	; 0x01
    1d10:	54 c0       	rjmp	.+168    	; 0x1dba <_Z11ReceiveBonev+0x2ae>
    1d12:	83 e0       	ldi	r24, 0x03	; 3
    1d14:	90 e0       	ldi	r25, 0x00	; 0
    1d16:	9a 83       	std	Y+2, r25	; 0x02
    1d18:	89 83       	std	Y+1, r24	; 0x01
    1d1a:	4f c0       	rjmp	.+158    	; 0x1dba <_Z11ReceiveBonev+0x2ae>
    1d1c:	84 e6       	ldi	r24, 0x64	; 100
    1d1e:	90 e0       	ldi	r25, 0x00	; 0
    1d20:	0e 94 61 09 	call	0x12c2	; 0x12c2 <_Z7Wait_msj>
    1d24:	80 e0       	ldi	r24, 0x00	; 0
    1d26:	92 e0       	ldi	r25, 0x02	; 2
    1d28:	0e 94 ae 09 	call	0x135c	; 0x135c <_Z9PrintBonePc>
    1d2c:	10 92 c5 02 	sts	0x02C5, r1
    1d30:	1f 82       	std	Y+7, r1	; 0x07
    1d32:	1e 82       	std	Y+6, r1	; 0x06
    1d34:	0e c0       	rjmp	.+28     	; 0x1d52 <_Z11ReceiveBonev+0x246>
    1d36:	9e 01       	movw	r18, r28
    1d38:	25 5f       	subi	r18, 0xF5	; 245
    1d3a:	3f 4f       	sbci	r19, 0xFF	; 255
    1d3c:	8e 81       	ldd	r24, Y+6	; 0x06
    1d3e:	9f 81       	ldd	r25, Y+7	; 0x07
    1d40:	82 0f       	add	r24, r18
    1d42:	93 1f       	adc	r25, r19
    1d44:	fc 01       	movw	r30, r24
    1d46:	10 82       	st	Z, r1
    1d48:	8e 81       	ldd	r24, Y+6	; 0x06
    1d4a:	9f 81       	ldd	r25, Y+7	; 0x07
    1d4c:	01 96       	adiw	r24, 0x01	; 1
    1d4e:	9f 83       	std	Y+7, r25	; 0x07
    1d50:	8e 83       	std	Y+6, r24	; 0x06
    1d52:	2e 81       	ldd	r18, Y+6	; 0x06
    1d54:	3f 81       	ldd	r19, Y+7	; 0x07
    1d56:	41 e0       	ldi	r20, 0x01	; 1
    1d58:	8b 81       	ldd	r24, Y+3	; 0x03
    1d5a:	9c 81       	ldd	r25, Y+4	; 0x04
    1d5c:	28 17       	cp	r18, r24
    1d5e:	39 07       	cpc	r19, r25
    1d60:	08 f0       	brcs	.+2      	; 0x1d64 <_Z11ReceiveBonev+0x258>
    1d62:	40 e0       	ldi	r20, 0x00	; 0
    1d64:	44 23       	and	r20, r20
    1d66:	39 f7       	brne	.-50     	; 0x1d36 <_Z11ReceiveBonev+0x22a>
    1d68:	1a 82       	std	Y+2, r1	; 0x02
    1d6a:	19 82       	std	Y+1, r1	; 0x01
    1d6c:	26 c0       	rjmp	.+76     	; 0x1dba <_Z11ReceiveBonev+0x2ae>
    1d6e:	10 92 c5 02 	sts	0x02C5, r1
    1d72:	19 86       	std	Y+9, r1	; 0x09
    1d74:	18 86       	std	Y+8, r1	; 0x08
    1d76:	0e c0       	rjmp	.+28     	; 0x1d94 <_Z11ReceiveBonev+0x288>
    1d78:	9e 01       	movw	r18, r28
    1d7a:	25 5f       	subi	r18, 0xF5	; 245
    1d7c:	3f 4f       	sbci	r19, 0xFF	; 255
    1d7e:	88 85       	ldd	r24, Y+8	; 0x08
    1d80:	99 85       	ldd	r25, Y+9	; 0x09
    1d82:	82 0f       	add	r24, r18
    1d84:	93 1f       	adc	r25, r19
    1d86:	fc 01       	movw	r30, r24
    1d88:	10 82       	st	Z, r1
    1d8a:	88 85       	ldd	r24, Y+8	; 0x08
    1d8c:	99 85       	ldd	r25, Y+9	; 0x09
    1d8e:	01 96       	adiw	r24, 0x01	; 1
    1d90:	99 87       	std	Y+9, r25	; 0x09
    1d92:	88 87       	std	Y+8, r24	; 0x08
    1d94:	28 85       	ldd	r18, Y+8	; 0x08
    1d96:	39 85       	ldd	r19, Y+9	; 0x09
    1d98:	41 e0       	ldi	r20, 0x01	; 1
    1d9a:	8b 81       	ldd	r24, Y+3	; 0x03
    1d9c:	9c 81       	ldd	r25, Y+4	; 0x04
    1d9e:	28 17       	cp	r18, r24
    1da0:	39 07       	cpc	r19, r25
    1da2:	08 f0       	brcs	.+2      	; 0x1da6 <_Z11ReceiveBonev+0x29a>
    1da4:	40 e0       	ldi	r20, 0x00	; 0
    1da6:	44 23       	and	r20, r20
    1da8:	39 f7       	brne	.-50     	; 0x1d78 <_Z11ReceiveBonev+0x26c>
    1daa:	1a 82       	std	Y+2, r1	; 0x02
    1dac:	19 82       	std	Y+1, r1	; 0x01
    1dae:	05 c0       	rjmp	.+10     	; 0x1dba <_Z11ReceiveBonev+0x2ae>
    1db0:	10 92 c5 02 	sts	0x02C5, r1
    1db4:	1a 82       	std	Y+2, r1	; 0x02
    1db6:	19 82       	std	Y+1, r1	; 0x01
    1db8:	00 00       	nop
    1dba:	90 91 c5 02 	lds	r25, 0x02C5
    1dbe:	81 e0       	ldi	r24, 0x01	; 1
    1dc0:	99 23       	and	r25, r25
    1dc2:	09 f4       	brne	.+2      	; 0x1dc6 <_Z11ReceiveBonev+0x2ba>
    1dc4:	80 e0       	ldi	r24, 0x00	; 0
    1dc6:	88 23       	and	r24, r24
    1dc8:	09 f0       	breq	.+2      	; 0x1dcc <_Z11ReceiveBonev+0x2c0>
    1dca:	b1 ce       	rjmp	.-670    	; 0x1b2e <_Z11ReceiveBonev+0x22>
    1dcc:	e2 96       	adiw	r28, 0x32	; 50
    1dce:	0f b6       	in	r0, 0x3f	; 63
    1dd0:	f8 94       	cli
    1dd2:	de bf       	out	0x3e, r29	; 62
    1dd4:	0f be       	out	0x3f, r0	; 63
    1dd6:	cd bf       	out	0x3d, r28	; 61
    1dd8:	df 91       	pop	r29
    1dda:	cf 91       	pop	r28
    1ddc:	08 95       	ret

00001dde <_Z8SendWAVRv>:
    1dde:	cf 93       	push	r28
    1de0:	df 93       	push	r29
    1de2:	cd b7       	in	r28, 0x3d	; 61
    1de4:	de b7       	in	r29, 0x3e	; 62
    1de6:	cf 55       	subi	r28, 0x5F	; 95
    1de8:	d0 40       	sbci	r29, 0x00	; 0
    1dea:	0f b6       	in	r0, 0x3f	; 63
    1dec:	f8 94       	cli
    1dee:	de bf       	out	0x3e, r29	; 62
    1df0:	0f be       	out	0x3f, r0	; 63
    1df2:	cd bf       	out	0x3d, r28	; 61
    1df4:	81 e0       	ldi	r24, 0x01	; 1
    1df6:	8f 87       	std	Y+15, r24	; 0x0f
    1df8:	1a 82       	std	Y+2, r1	; 0x02
    1dfa:	19 82       	std	Y+1, r1	; 0x01
    1dfc:	81 e0       	ldi	r24, 0x01	; 1
    1dfe:	80 93 c4 02 	sts	0x02C4, r24
    1e02:	5d c2       	rjmp	.+1210   	; 0x22be <__stack+0xbf>
    1e04:	80 91 99 05 	lds	r24, 0x0599
    1e08:	90 91 9a 05 	lds	r25, 0x059A
    1e0c:	83 30       	cpi	r24, 0x03	; 3
    1e0e:	91 05       	cpc	r25, r1
    1e10:	09 f4       	brne	.+2      	; 0x1e14 <_Z8SendWAVRv+0x36>
    1e12:	42 c1       	rjmp	.+644    	; 0x2098 <_Z8SendWAVRv+0x2ba>
    1e14:	84 30       	cpi	r24, 0x04	; 4
    1e16:	91 05       	cpc	r25, r1
    1e18:	48 f4       	brcc	.+18     	; 0x1e2c <_Z8SendWAVRv+0x4e>
    1e1a:	81 30       	cpi	r24, 0x01	; 1
    1e1c:	91 05       	cpc	r25, r1
    1e1e:	09 f4       	brne	.+2      	; 0x1e22 <_Z8SendWAVRv+0x44>
    1e20:	45 c0       	rjmp	.+138    	; 0x1eac <_Z8SendWAVRv+0xce>
    1e22:	82 30       	cpi	r24, 0x02	; 2
    1e24:	91 05       	cpc	r25, r1
    1e26:	08 f0       	brcs	.+2      	; 0x1e2a <_Z8SendWAVRv+0x4c>
    1e28:	ba c0       	rjmp	.+372    	; 0x1f9e <_Z8SendWAVRv+0x1c0>
    1e2a:	0d c0       	rjmp	.+26     	; 0x1e46 <_Z8SendWAVRv+0x68>
    1e2c:	85 30       	cpi	r24, 0x05	; 5
    1e2e:	91 05       	cpc	r25, r1
    1e30:	09 f4       	brne	.+2      	; 0x1e34 <_Z8SendWAVRv+0x56>
    1e32:	f8 c1       	rjmp	.+1008   	; 0x2224 <__stack+0x25>
    1e34:	85 30       	cpi	r24, 0x05	; 5
    1e36:	91 05       	cpc	r25, r1
    1e38:	08 f4       	brcc	.+2      	; 0x1e3c <_Z8SendWAVRv+0x5e>
    1e3a:	e2 c1       	rjmp	.+964    	; 0x2200 <__stack+0x1>
    1e3c:	86 30       	cpi	r24, 0x06	; 6
    1e3e:	91 05       	cpc	r25, r1
    1e40:	09 f4       	brne	.+2      	; 0x1e44 <_Z8SendWAVRv+0x66>
    1e42:	13 c2       	rjmp	.+1062   	; 0x226a <__stack+0x6b>
    1e44:	35 c2       	rjmp	.+1130   	; 0x22b0 <__stack+0xb1>
    1e46:	88 ee       	ldi	r24, 0xE8	; 232
    1e48:	93 e0       	ldi	r25, 0x03	; 3
    1e4a:	0e 94 61 09 	call	0x12c2	; 0x12c2 <_Z7Wait_msj>
    1e4e:	88 e0       	ldi	r24, 0x08	; 8
    1e50:	91 e0       	ldi	r25, 0x01	; 1
    1e52:	28 e0       	ldi	r18, 0x08	; 8
    1e54:	31 e0       	ldi	r19, 0x01	; 1
    1e56:	f9 01       	movw	r30, r18
    1e58:	20 81       	ld	r18, Z
    1e5a:	20 68       	ori	r18, 0x80	; 128
    1e5c:	fc 01       	movw	r30, r24
    1e5e:	20 83       	st	Z, r18
    1e60:	1c 82       	std	Y+4, r1	; 0x04
    1e62:	1b 82       	std	Y+3, r1	; 0x03
    1e64:	06 c0       	rjmp	.+12     	; 0x1e72 <_Z8SendWAVRv+0x94>
    1e66:	00 00       	nop
    1e68:	8b 81       	ldd	r24, Y+3	; 0x03
    1e6a:	9c 81       	ldd	r25, Y+4	; 0x04
    1e6c:	01 96       	adiw	r24, 0x01	; 1
    1e6e:	9c 83       	std	Y+4, r25	; 0x04
    1e70:	8b 83       	std	Y+3, r24	; 0x03
    1e72:	21 e0       	ldi	r18, 0x01	; 1
    1e74:	8b 81       	ldd	r24, Y+3	; 0x03
    1e76:	9c 81       	ldd	r25, Y+4	; 0x04
    1e78:	82 30       	cpi	r24, 0x02	; 2
    1e7a:	91 05       	cpc	r25, r1
    1e7c:	0c f0       	brlt	.+2      	; 0x1e80 <_Z8SendWAVRv+0xa2>
    1e7e:	20 e0       	ldi	r18, 0x00	; 0
    1e80:	22 23       	and	r18, r18
    1e82:	89 f7       	brne	.-30     	; 0x1e66 <_Z8SendWAVRv+0x88>
    1e84:	88 e0       	ldi	r24, 0x08	; 8
    1e86:	91 e0       	ldi	r25, 0x01	; 1
    1e88:	28 e0       	ldi	r18, 0x08	; 8
    1e8a:	31 e0       	ldi	r19, 0x01	; 1
    1e8c:	f9 01       	movw	r30, r18
    1e8e:	20 81       	ld	r18, Z
    1e90:	2f 77       	andi	r18, 0x7F	; 127
    1e92:	fc 01       	movw	r30, r24
    1e94:	20 83       	st	Z, r18
    1e96:	81 e0       	ldi	r24, 0x01	; 1
    1e98:	90 e0       	ldi	r25, 0x00	; 0
    1e9a:	90 93 9a 05 	sts	0x059A, r25
    1e9e:	80 93 99 05 	sts	0x0599, r24
    1ea2:	88 ee       	ldi	r24, 0xE8	; 232
    1ea4:	93 e0       	ldi	r25, 0x03	; 3
    1ea6:	0e 94 61 09 	call	0x12c2	; 0x12c2 <_Z7Wait_msj>
    1eaa:	09 c2       	rjmp	.+1042   	; 0x22be <__stack+0xbf>
    1eac:	84 e6       	ldi	r24, 0x64	; 100
    1eae:	90 e0       	ldi	r25, 0x00	; 0
    1eb0:	0e 94 61 09 	call	0x12c2	; 0x12c2 <_Z7Wait_msj>
    1eb4:	66 c0       	rjmp	.+204    	; 0x1f82 <_Z8SendWAVRv+0x1a4>
    1eb6:	84 e6       	ldi	r24, 0x64	; 100
    1eb8:	90 e0       	ldi	r25, 0x00	; 0
    1eba:	0e 94 61 09 	call	0x12c2	; 0x12c2 <_Z7Wait_msj>
    1ebe:	84 e6       	ldi	r24, 0x64	; 100
    1ec0:	92 e0       	ldi	r25, 0x02	; 2
    1ec2:	0e 94 ae 09 	call	0x135c	; 0x135c <_Z9PrintBonePc>
    1ec6:	00 00       	nop
    1ec8:	88 ec       	ldi	r24, 0xC8	; 200
    1eca:	90 e0       	ldi	r25, 0x00	; 0
    1ecc:	fc 01       	movw	r30, r24
    1ece:	80 81       	ld	r24, Z
    1ed0:	88 23       	and	r24, r24
    1ed2:	34 f0       	brlt	.+12     	; 0x1ee0 <_Z8SendWAVRv+0x102>
    1ed4:	80 91 c4 02 	lds	r24, 0x02C4
    1ed8:	88 23       	and	r24, r24
    1eda:	11 f0       	breq	.+4      	; 0x1ee0 <_Z8SendWAVRv+0x102>
    1edc:	81 e0       	ldi	r24, 0x01	; 1
    1ede:	01 c0       	rjmp	.+2      	; 0x1ee2 <_Z8SendWAVRv+0x104>
    1ee0:	80 e0       	ldi	r24, 0x00	; 0
    1ee2:	88 23       	and	r24, r24
    1ee4:	89 f7       	brne	.-30     	; 0x1ec8 <_Z8SendWAVRv+0xea>
    1ee6:	80 91 c4 02 	lds	r24, 0x02C4
    1eea:	88 23       	and	r24, r24
    1eec:	71 f4       	brne	.+28     	; 0x1f0a <_Z8SendWAVRv+0x12c>
    1eee:	8e e6       	ldi	r24, 0x6E	; 110
    1ef0:	92 e0       	ldi	r25, 0x02	; 2
    1ef2:	0e 94 ae 09 	call	0x135c	; 0x135c <_Z9PrintBonePc>
    1ef6:	ce 01       	movw	r24, r28
    1ef8:	c8 96       	adiw	r24, 0x38	; 56
    1efa:	0e 94 ae 09 	call	0x135c	; 0x135c <_Z9PrintBonePc>
    1efe:	10 92 9a 05 	sts	0x059A, r1
    1f02:	10 92 99 05 	sts	0x0599, r1
    1f06:	00 00       	nop
    1f08:	da c1       	rjmp	.+948    	; 0x22be <__stack+0xbf>
    1f0a:	8e ec       	ldi	r24, 0xCE	; 206
    1f0c:	90 e0       	ldi	r25, 0x00	; 0
    1f0e:	fc 01       	movw	r30, r24
    1f10:	80 81       	ld	r24, Z
    1f12:	8b 87       	std	Y+11, r24	; 0x0b
    1f14:	8b 85       	ldd	r24, Y+11	; 0x0b
    1f16:	88 2f       	mov	r24, r24
    1f18:	90 e0       	ldi	r25, 0x00	; 0
    1f1a:	9d 87       	std	Y+13, r25	; 0x0d
    1f1c:	8c 87       	std	Y+12, r24	; 0x0c
    1f1e:	9e 01       	movw	r18, r28
    1f20:	28 5c       	subi	r18, 0xC8	; 200
    1f22:	3f 4f       	sbci	r19, 0xFF	; 255
    1f24:	89 81       	ldd	r24, Y+1	; 0x01
    1f26:	9a 81       	ldd	r25, Y+2	; 0x02
    1f28:	82 0f       	add	r24, r18
    1f2a:	93 1f       	adc	r25, r19
    1f2c:	2b 85       	ldd	r18, Y+11	; 0x0b
    1f2e:	fc 01       	movw	r30, r24
    1f30:	20 83       	st	Z, r18
    1f32:	89 81       	ldd	r24, Y+1	; 0x01
    1f34:	9a 81       	ldd	r25, Y+2	; 0x02
    1f36:	01 96       	adiw	r24, 0x01	; 1
    1f38:	9a 83       	std	Y+2, r25	; 0x02
    1f3a:	89 83       	std	Y+1, r24	; 0x01
    1f3c:	8c 85       	ldd	r24, Y+12	; 0x0c
    1f3e:	9d 85       	ldd	r25, Y+13	; 0x0d
    1f40:	8e 32       	cpi	r24, 0x2E	; 46
    1f42:	91 05       	cpc	r25, r1
    1f44:	81 f4       	brne	.+32     	; 0x1f66 <_Z8SendWAVRv+0x188>
    1f46:	9e 01       	movw	r18, r28
    1f48:	28 5c       	subi	r18, 0xC8	; 200
    1f4a:	3f 4f       	sbci	r19, 0xFF	; 255
    1f4c:	89 81       	ldd	r24, Y+1	; 0x01
    1f4e:	9a 81       	ldd	r25, Y+2	; 0x02
    1f50:	82 0f       	add	r24, r18
    1f52:	93 1f       	adc	r25, r19
    1f54:	fc 01       	movw	r30, r24
    1f56:	10 82       	st	Z, r1
    1f58:	82 e0       	ldi	r24, 0x02	; 2
    1f5a:	90 e0       	ldi	r25, 0x00	; 0
    1f5c:	90 93 9a 05 	sts	0x059A, r25
    1f60:	80 93 99 05 	sts	0x0599, r24
    1f64:	0e c0       	rjmp	.+28     	; 0x1f82 <_Z8SendWAVRv+0x1a4>
    1f66:	89 81       	ldd	r24, Y+1	; 0x01
    1f68:	9a 81       	ldd	r25, Y+2	; 0x02
    1f6a:	87 32       	cpi	r24, 0x27	; 39
    1f6c:	91 05       	cpc	r25, r1
    1f6e:	48 f0       	brcs	.+18     	; 0x1f82 <_Z8SendWAVRv+0x1a4>
    1f70:	1a 82       	std	Y+2, r1	; 0x02
    1f72:	19 82       	std	Y+1, r1	; 0x01
    1f74:	1f 86       	std	Y+15, r1	; 0x0f
    1f76:	85 e0       	ldi	r24, 0x05	; 5
    1f78:	90 e0       	ldi	r25, 0x00	; 0
    1f7a:	90 93 9a 05 	sts	0x059A, r25
    1f7e:	80 93 99 05 	sts	0x0599, r24
    1f82:	8f 85       	ldd	r24, Y+15	; 0x0f
    1f84:	88 23       	and	r24, r24
    1f86:	31 f0       	breq	.+12     	; 0x1f94 <_Z8SendWAVRv+0x1b6>
    1f88:	80 91 c4 02 	lds	r24, 0x02C4
    1f8c:	88 23       	and	r24, r24
    1f8e:	11 f0       	breq	.+4      	; 0x1f94 <_Z8SendWAVRv+0x1b6>
    1f90:	81 e0       	ldi	r24, 0x01	; 1
    1f92:	01 c0       	rjmp	.+2      	; 0x1f96 <_Z8SendWAVRv+0x1b8>
    1f94:	80 e0       	ldi	r24, 0x00	; 0
    1f96:	88 23       	and	r24, r24
    1f98:	09 f0       	breq	.+2      	; 0x1f9c <_Z8SendWAVRv+0x1be>
    1f9a:	8d cf       	rjmp	.-230    	; 0x1eb6 <_Z8SendWAVRv+0xd8>
    1f9c:	90 c1       	rjmp	.+800    	; 0x22be <__stack+0xbf>
    1f9e:	ce 01       	movw	r24, r28
    1fa0:	c8 96       	adiw	r24, 0x38	; 56
    1fa2:	28 e7       	ldi	r18, 0x78	; 120
    1fa4:	32 e0       	ldi	r19, 0x02	; 2
    1fa6:	b9 01       	movw	r22, r18
    1fa8:	42 e0       	ldi	r20, 0x02	; 2
    1faa:	50 e0       	ldi	r21, 0x00	; 0
    1fac:	0e 94 bf 23 	call	0x477e	; 0x477e <strncmp>
    1fb0:	00 97       	sbiw	r24, 0x00	; 0
    1fb2:	59 f4       	brne	.+22     	; 0x1fca <_Z8SendWAVRv+0x1ec>
    1fb4:	83 e0       	ldi	r24, 0x03	; 3
    1fb6:	90 e0       	ldi	r25, 0x00	; 0
    1fb8:	90 93 9a 05 	sts	0x059A, r25
    1fbc:	80 93 99 05 	sts	0x0599, r24
    1fc0:	8b e7       	ldi	r24, 0x7B	; 123
    1fc2:	92 e0       	ldi	r25, 0x02	; 2
    1fc4:	0e 94 ae 09 	call	0x135c	; 0x135c <_Z9PrintBonePc>
    1fc8:	7a c1       	rjmp	.+756    	; 0x22be <__stack+0xbf>
    1fca:	ce 01       	movw	r24, r28
    1fcc:	c8 96       	adiw	r24, 0x38	; 56
    1fce:	24 e8       	ldi	r18, 0x84	; 132
    1fd0:	32 e0       	ldi	r19, 0x02	; 2
    1fd2:	b9 01       	movw	r22, r18
    1fd4:	42 e0       	ldi	r20, 0x02	; 2
    1fd6:	50 e0       	ldi	r21, 0x00	; 0
    1fd8:	0e 94 bf 23 	call	0x477e	; 0x477e <strncmp>
    1fdc:	00 97       	sbiw	r24, 0x00	; 0
    1fde:	99 f4       	brne	.+38     	; 0x2006 <_Z8SendWAVRv+0x228>
    1fe0:	87 e8       	ldi	r24, 0x87	; 135
    1fe2:	92 e0       	ldi	r25, 0x02	; 2
    1fe4:	0e 94 ae 09 	call	0x135c	; 0x135c <_Z9PrintBonePc>
    1fe8:	85 e0       	ldi	r24, 0x05	; 5
    1fea:	90 e0       	ldi	r25, 0x00	; 0
    1fec:	90 93 9a 05 	sts	0x059A, r25
    1ff0:	80 93 99 05 	sts	0x0599, r24
    1ff4:	81 e0       	ldi	r24, 0x01	; 1
    1ff6:	80 93 c7 02 	sts	0x02C7, r24
    1ffa:	81 e0       	ldi	r24, 0x01	; 1
    1ffc:	80 93 c0 02 	sts	0x02C0, r24
    2000:	10 92 c2 02 	sts	0x02C2, r1
    2004:	5c c1       	rjmp	.+696    	; 0x22be <__stack+0xbf>
    2006:	ce 01       	movw	r24, r28
    2008:	c8 96       	adiw	r24, 0x38	; 56
    200a:	9e 01       	movw	r18, r28
    200c:	20 5f       	subi	r18, 0xF0	; 240
    200e:	3f 4f       	sbci	r19, 0xFF	; 255
    2010:	b9 01       	movw	r22, r18
    2012:	0e 94 af 23 	call	0x475e	; 0x475e <strcmp>
    2016:	00 97       	sbiw	r24, 0x00	; 0
    2018:	59 f4       	brne	.+22     	; 0x2030 <_Z8SendWAVRv+0x252>
    201a:	86 e0       	ldi	r24, 0x06	; 6
    201c:	90 e0       	ldi	r25, 0x00	; 0
    201e:	90 93 9a 05 	sts	0x059A, r25
    2022:	80 93 99 05 	sts	0x0599, r24
    2026:	10 92 c2 02 	sts	0x02C2, r1
    202a:	10 92 c0 02 	sts	0x02C0, r1
    202e:	47 c1       	rjmp	.+654    	; 0x22be <__stack+0xbf>
    2030:	ce 01       	movw	r24, r28
    2032:	c8 96       	adiw	r24, 0x38	; 56
    2034:	2d e8       	ldi	r18, 0x8D	; 141
    2036:	32 e0       	ldi	r19, 0x02	; 2
    2038:	b9 01       	movw	r22, r18
    203a:	43 e0       	ldi	r20, 0x03	; 3
    203c:	50 e0       	ldi	r21, 0x00	; 0
    203e:	0e 94 bf 23 	call	0x477e	; 0x477e <strncmp>
    2042:	00 97       	sbiw	r24, 0x00	; 0
    2044:	61 f4       	brne	.+24     	; 0x205e <_Z8SendWAVRv+0x280>
    2046:	86 e0       	ldi	r24, 0x06	; 6
    2048:	90 e0       	ldi	r25, 0x00	; 0
    204a:	90 93 9a 05 	sts	0x059A, r25
    204e:	80 93 99 05 	sts	0x0599, r24
    2052:	81 e0       	ldi	r24, 0x01	; 1
    2054:	80 93 c0 02 	sts	0x02C0, r24
    2058:	10 92 c2 02 	sts	0x02C2, r1
    205c:	30 c1       	rjmp	.+608    	; 0x22be <__stack+0xbf>
    205e:	ce 01       	movw	r24, r28
    2060:	c8 96       	adiw	r24, 0x38	; 56
    2062:	25 e5       	ldi	r18, 0x55	; 85
    2064:	32 e0       	ldi	r19, 0x02	; 2
    2066:	b9 01       	movw	r22, r18
    2068:	42 e0       	ldi	r20, 0x02	; 2
    206a:	50 e0       	ldi	r21, 0x00	; 0
    206c:	0e 94 bf 23 	call	0x477e	; 0x477e <strncmp>
    2070:	00 97       	sbiw	r24, 0x00	; 0
    2072:	39 f4       	brne	.+14     	; 0x2082 <_Z8SendWAVRv+0x2a4>
    2074:	84 e0       	ldi	r24, 0x04	; 4
    2076:	90 e0       	ldi	r25, 0x00	; 0
    2078:	90 93 9a 05 	sts	0x059A, r25
    207c:	80 93 99 05 	sts	0x0599, r24
    2080:	1e c1       	rjmp	.+572    	; 0x22be <__stack+0xbf>
    2082:	85 e0       	ldi	r24, 0x05	; 5
    2084:	90 e0       	ldi	r25, 0x00	; 0
    2086:	90 93 9a 05 	sts	0x059A, r25
    208a:	80 93 99 05 	sts	0x0599, r24
    208e:	81 e9       	ldi	r24, 0x91	; 145
    2090:	92 e0       	ldi	r25, 0x02	; 2
    2092:	0e 94 ae 09 	call	0x135c	; 0x135c <_Z9PrintBonePc>
    2096:	13 c1       	rjmp	.+550    	; 0x22be <__stack+0xbf>
    2098:	84 e6       	ldi	r24, 0x64	; 100
    209a:	90 e0       	ldi	r25, 0x00	; 0
    209c:	0e 94 61 09 	call	0x12c2	; 0x12c2 <_Z7Wait_msj>
    20a0:	80 91 c0 02 	lds	r24, 0x02C0
    20a4:	88 23       	and	r24, r24
    20a6:	49 f0       	breq	.+18     	; 0x20ba <_Z8SendWAVRv+0x2dc>
    20a8:	80 91 c2 02 	lds	r24, 0x02C2
    20ac:	88 23       	and	r24, r24
    20ae:	29 f4       	brne	.+10     	; 0x20ba <_Z8SendWAVRv+0x2dc>
    20b0:	84 e8       	ldi	r24, 0x84	; 132
    20b2:	92 e0       	ldi	r25, 0x02	; 2
    20b4:	0e 94 f8 09 	call	0x13f0	; 0x13f0 <_Z9PrintWAVRPc>
    20b8:	7b c0       	rjmp	.+246    	; 0x21b0 <_Z8SendWAVRv+0x3d2>
    20ba:	80 91 c2 02 	lds	r24, 0x02C2
    20be:	88 23       	and	r24, r24
    20c0:	09 f4       	brne	.+2      	; 0x20c4 <_Z8SendWAVRv+0x2e6>
    20c2:	58 c0       	rjmp	.+176    	; 0x2174 <_Z8SendWAVRv+0x396>
    20c4:	80 91 c0 02 	lds	r24, 0x02C0
    20c8:	88 23       	and	r24, r24
    20ca:	09 f0       	breq	.+2      	; 0x20ce <_Z8SendWAVRv+0x2f0>
    20cc:	53 c0       	rjmp	.+166    	; 0x2174 <_Z8SendWAVRv+0x396>
    20ce:	88 e9       	ldi	r24, 0x98	; 152
    20d0:	92 e0       	ldi	r25, 0x02	; 2
    20d2:	0e 94 ae 09 	call	0x135c	; 0x135c <_Z9PrintBonePc>
    20d6:	ce 01       	movw	r24, r28
    20d8:	40 96       	adiw	r24, 0x10	; 16
    20da:	21 e4       	ldi	r18, 0x41	; 65
    20dc:	30 e0       	ldi	r19, 0x00	; 0
    20de:	fc 01       	movw	r30, r24
    20e0:	31 83       	std	Z+1, r19	; 0x01
    20e2:	20 83       	st	Z, r18
    20e4:	89 ec       	ldi	r24, 0xC9	; 201
    20e6:	92 e0       	ldi	r25, 0x02	; 2
    20e8:	0e 94 3b 07 	call	0xe76	; 0xe76 <_ZN6myTime7getTimeEv>
    20ec:	9c 01       	movw	r18, r24
    20ee:	ce 01       	movw	r24, r28
    20f0:	40 96       	adiw	r24, 0x10	; 16
    20f2:	b9 01       	movw	r22, r18
    20f4:	0e 94 a4 23 	call	0x4748	; 0x4748 <strcat>
    20f8:	ce 01       	movw	r24, r28
    20fa:	40 96       	adiw	r24, 0x10	; 16
    20fc:	9c 01       	movw	r18, r24
    20fe:	f9 01       	movw	r30, r18
    2100:	01 90       	ld	r0, Z+
    2102:	00 20       	and	r0, r0
    2104:	e9 f7       	brne	.-6      	; 0x2100 <_Z8SendWAVRv+0x322>
    2106:	cf 01       	movw	r24, r30
    2108:	01 97       	sbiw	r24, 0x01	; 1
    210a:	82 1b       	sub	r24, r18
    210c:	93 0b       	sbc	r25, r19
    210e:	9e 01       	movw	r18, r28
    2110:	20 5f       	subi	r18, 0xF0	; 240
    2112:	3f 4f       	sbci	r19, 0xFF	; 255
    2114:	82 0f       	add	r24, r18
    2116:	93 1f       	adc	r25, r19
    2118:	2f e2       	ldi	r18, 0x2F	; 47
    211a:	30 e0       	ldi	r19, 0x00	; 0
    211c:	fc 01       	movw	r30, r24
    211e:	31 83       	std	Z+1, r19	; 0x01
    2120:	20 83       	st	Z, r18
    2122:	89 ec       	ldi	r24, 0xC9	; 201
    2124:	92 e0       	ldi	r25, 0x02	; 2
    2126:	0e 94 c6 03 	call	0x78c	; 0x78c <_ZN6myDate7getDateEv>
    212a:	9c 01       	movw	r18, r24
    212c:	ce 01       	movw	r24, r28
    212e:	40 96       	adiw	r24, 0x10	; 16
    2130:	b9 01       	movw	r22, r18
    2132:	0e 94 a4 23 	call	0x4748	; 0x4748 <strcat>
    2136:	ce 01       	movw	r24, r28
    2138:	40 96       	adiw	r24, 0x10	; 16
    213a:	9c 01       	movw	r18, r24
    213c:	f9 01       	movw	r30, r18
    213e:	01 90       	ld	r0, Z+
    2140:	00 20       	and	r0, r0
    2142:	e9 f7       	brne	.-6      	; 0x213e <_Z8SendWAVRv+0x360>
    2144:	cf 01       	movw	r24, r30
    2146:	01 97       	sbiw	r24, 0x01	; 1
    2148:	82 1b       	sub	r24, r18
    214a:	93 0b       	sbc	r25, r19
    214c:	9e 01       	movw	r18, r28
    214e:	20 5f       	subi	r18, 0xF0	; 240
    2150:	3f 4f       	sbci	r19, 0xFF	; 255
    2152:	82 0f       	add	r24, r18
    2154:	93 1f       	adc	r25, r19
    2156:	2e e2       	ldi	r18, 0x2E	; 46
    2158:	30 e0       	ldi	r19, 0x00	; 0
    215a:	fc 01       	movw	r30, r24
    215c:	31 83       	std	Z+1, r19	; 0x01
    215e:	20 83       	st	Z, r18
    2160:	85 ea       	ldi	r24, 0xA5	; 165
    2162:	92 e0       	ldi	r25, 0x02	; 2
    2164:	0e 94 f8 09 	call	0x13f0	; 0x13f0 <_Z9PrintWAVRPc>
    2168:	80 e0       	ldi	r24, 0x00	; 0
    216a:	61 e0       	ldi	r22, 0x01	; 1
    216c:	41 e0       	ldi	r20, 0x01	; 1
    216e:	0e 94 72 11 	call	0x22e4	; 0x22e4 <_Z13printTimeDatehhh>
    2172:	1e c0       	rjmp	.+60     	; 0x21b0 <_Z8SendWAVRv+0x3d2>
    2174:	80 91 c2 02 	lds	r24, 0x02C2
    2178:	88 23       	and	r24, r24
    217a:	59 f0       	breq	.+22     	; 0x2192 <_Z8SendWAVRv+0x3b4>
    217c:	80 91 c0 02 	lds	r24, 0x02C0
    2180:	88 23       	and	r24, r24
    2182:	39 f0       	breq	.+14     	; 0x2192 <_Z8SendWAVRv+0x3b4>
    2184:	84 e8       	ldi	r24, 0x84	; 132
    2186:	92 e0       	ldi	r25, 0x02	; 2
    2188:	0e 94 f8 09 	call	0x13f0	; 0x13f0 <_Z9PrintWAVRPc>
    218c:	10 92 c2 02 	sts	0x02C2, r1
    2190:	0f c0       	rjmp	.+30     	; 0x21b0 <_Z8SendWAVRv+0x3d2>
    2192:	80 91 be 02 	lds	r24, 0x02BE
    2196:	88 23       	and	r24, r24
    2198:	59 f4       	brne	.+22     	; 0x21b0 <_Z8SendWAVRv+0x3d2>
    219a:	80 91 c0 02 	lds	r24, 0x02C0
    219e:	88 23       	and	r24, r24
    21a0:	39 f4       	brne	.+14     	; 0x21b0 <_Z8SendWAVRv+0x3d2>
    21a2:	84 e8       	ldi	r24, 0x84	; 132
    21a4:	92 e0       	ldi	r25, 0x02	; 2
    21a6:	0e 94 f8 09 	call	0x13f0	; 0x13f0 <_Z9PrintWAVRPc>
    21aa:	81 e0       	ldi	r24, 0x01	; 1
    21ac:	80 93 c0 02 	sts	0x02C0, r24
    21b0:	1e 82       	std	Y+6, r1	; 0x06
    21b2:	1d 82       	std	Y+5, r1	; 0x05
    21b4:	0e c0       	rjmp	.+28     	; 0x21d2 <_Z8SendWAVRv+0x3f4>
    21b6:	9e 01       	movw	r18, r28
    21b8:	28 5c       	subi	r18, 0xC8	; 200
    21ba:	3f 4f       	sbci	r19, 0xFF	; 255
    21bc:	8d 81       	ldd	r24, Y+5	; 0x05
    21be:	9e 81       	ldd	r25, Y+6	; 0x06
    21c0:	82 0f       	add	r24, r18
    21c2:	93 1f       	adc	r25, r19
    21c4:	fc 01       	movw	r30, r24
    21c6:	10 82       	st	Z, r1
    21c8:	8d 81       	ldd	r24, Y+5	; 0x05
    21ca:	9e 81       	ldd	r25, Y+6	; 0x06
    21cc:	01 96       	adiw	r24, 0x01	; 1
    21ce:	9e 83       	std	Y+6, r25	; 0x06
    21d0:	8d 83       	std	Y+5, r24	; 0x05
    21d2:	2d 81       	ldd	r18, Y+5	; 0x05
    21d4:	3e 81       	ldd	r19, Y+6	; 0x06
    21d6:	41 e0       	ldi	r20, 0x01	; 1
    21d8:	89 81       	ldd	r24, Y+1	; 0x01
    21da:	9a 81       	ldd	r25, Y+2	; 0x02
    21dc:	82 17       	cp	r24, r18
    21de:	93 07       	cpc	r25, r19
    21e0:	08 f4       	brcc	.+2      	; 0x21e4 <_Z8SendWAVRv+0x406>
    21e2:	40 e0       	ldi	r20, 0x00	; 0
    21e4:	44 23       	and	r20, r20
    21e6:	39 f7       	brne	.-50     	; 0x21b6 <_Z8SendWAVRv+0x3d8>
    21e8:	1a 82       	std	Y+2, r1	; 0x02
    21ea:	19 82       	std	Y+1, r1	; 0x01
    21ec:	1b 86       	std	Y+11, r1	; 0x0b
    21ee:	81 e0       	ldi	r24, 0x01	; 1
    21f0:	8f 87       	std	Y+15, r24	; 0x0f
    21f2:	81 e0       	ldi	r24, 0x01	; 1
    21f4:	90 e0       	ldi	r25, 0x00	; 0
    21f6:	90 93 9a 05 	sts	0x059A, r25
    21fa:	80 93 99 05 	sts	0x0599, r24
    21fe:	5f c0       	rjmp	.+190    	; 0x22be <__stack+0xbf>
    2200:	89 ec       	ldi	r24, 0xC9	; 201
    2202:	92 e0       	ldi	r25, 0x02	; 2
    2204:	0e 94 00 07 	call	0xe00	; 0xe00 <_ZN6myTime13checkValidityEv>
    2208:	8e 87       	std	Y+14, r24	; 0x0e
    220a:	8e 85       	ldd	r24, Y+14	; 0x0e
    220c:	88 23       	and	r24, r24
    220e:	19 f4       	brne	.+6      	; 0x2216 <__stack+0x17>
    2210:	81 e0       	ldi	r24, 0x01	; 1
    2212:	80 93 c1 02 	sts	0x02C1, r24
    2216:	86 e0       	ldi	r24, 0x06	; 6
    2218:	90 e0       	ldi	r25, 0x00	; 0
    221a:	90 93 9a 05 	sts	0x059A, r25
    221e:	80 93 99 05 	sts	0x0599, r24
    2222:	4d c0       	rjmp	.+154    	; 0x22be <__stack+0xbf>
    2224:	10 92 9a 05 	sts	0x059A, r1
    2228:	10 92 99 05 	sts	0x0599, r1
    222c:	10 92 c4 02 	sts	0x02C4, r1
    2230:	18 86       	std	Y+8, r1	; 0x08
    2232:	1f 82       	std	Y+7, r1	; 0x07
    2234:	0e c0       	rjmp	.+28     	; 0x2252 <__stack+0x53>
    2236:	9e 01       	movw	r18, r28
    2238:	28 5c       	subi	r18, 0xC8	; 200
    223a:	3f 4f       	sbci	r19, 0xFF	; 255
    223c:	8f 81       	ldd	r24, Y+7	; 0x07
    223e:	98 85       	ldd	r25, Y+8	; 0x08
    2240:	82 0f       	add	r24, r18
    2242:	93 1f       	adc	r25, r19
    2244:	fc 01       	movw	r30, r24
    2246:	10 82       	st	Z, r1
    2248:	8f 81       	ldd	r24, Y+7	; 0x07
    224a:	98 85       	ldd	r25, Y+8	; 0x08
    224c:	01 96       	adiw	r24, 0x01	; 1
    224e:	98 87       	std	Y+8, r25	; 0x08
    2250:	8f 83       	std	Y+7, r24	; 0x07
    2252:	2f 81       	ldd	r18, Y+7	; 0x07
    2254:	38 85       	ldd	r19, Y+8	; 0x08
    2256:	41 e0       	ldi	r20, 0x01	; 1
    2258:	89 81       	ldd	r24, Y+1	; 0x01
    225a:	9a 81       	ldd	r25, Y+2	; 0x02
    225c:	82 17       	cp	r24, r18
    225e:	93 07       	cpc	r25, r19
    2260:	08 f4       	brcc	.+2      	; 0x2264 <__stack+0x65>
    2262:	40 e0       	ldi	r20, 0x00	; 0
    2264:	44 23       	and	r20, r20
    2266:	39 f7       	brne	.-50     	; 0x2236 <__stack+0x37>
    2268:	2a c0       	rjmp	.+84     	; 0x22be <__stack+0xbf>
    226a:	10 92 9a 05 	sts	0x059A, r1
    226e:	10 92 99 05 	sts	0x0599, r1
    2272:	10 92 c4 02 	sts	0x02C4, r1
    2276:	1a 86       	std	Y+10, r1	; 0x0a
    2278:	19 86       	std	Y+9, r1	; 0x09
    227a:	0e c0       	rjmp	.+28     	; 0x2298 <__stack+0x99>
    227c:	9e 01       	movw	r18, r28
    227e:	28 5c       	subi	r18, 0xC8	; 200
    2280:	3f 4f       	sbci	r19, 0xFF	; 255
    2282:	89 85       	ldd	r24, Y+9	; 0x09
    2284:	9a 85       	ldd	r25, Y+10	; 0x0a
    2286:	82 0f       	add	r24, r18
    2288:	93 1f       	adc	r25, r19
    228a:	fc 01       	movw	r30, r24
    228c:	10 82       	st	Z, r1
    228e:	89 85       	ldd	r24, Y+9	; 0x09
    2290:	9a 85       	ldd	r25, Y+10	; 0x0a
    2292:	01 96       	adiw	r24, 0x01	; 1
    2294:	9a 87       	std	Y+10, r25	; 0x0a
    2296:	89 87       	std	Y+9, r24	; 0x09
    2298:	29 85       	ldd	r18, Y+9	; 0x09
    229a:	3a 85       	ldd	r19, Y+10	; 0x0a
    229c:	41 e0       	ldi	r20, 0x01	; 1
    229e:	89 81       	ldd	r24, Y+1	; 0x01
    22a0:	9a 81       	ldd	r25, Y+2	; 0x02
    22a2:	82 17       	cp	r24, r18
    22a4:	93 07       	cpc	r25, r19
    22a6:	08 f4       	brcc	.+2      	; 0x22aa <__stack+0xab>
    22a8:	40 e0       	ldi	r20, 0x00	; 0
    22aa:	44 23       	and	r20, r20
    22ac:	39 f7       	brne	.-50     	; 0x227c <__stack+0x7d>
    22ae:	07 c0       	rjmp	.+14     	; 0x22be <__stack+0xbf>
    22b0:	10 92 9a 05 	sts	0x059A, r1
    22b4:	10 92 99 05 	sts	0x0599, r1
    22b8:	10 92 c4 02 	sts	0x02C4, r1
    22bc:	00 00       	nop
    22be:	90 91 c4 02 	lds	r25, 0x02C4
    22c2:	81 e0       	ldi	r24, 0x01	; 1
    22c4:	99 23       	and	r25, r25
    22c6:	09 f4       	brne	.+2      	; 0x22ca <__stack+0xcb>
    22c8:	80 e0       	ldi	r24, 0x00	; 0
    22ca:	88 23       	and	r24, r24
    22cc:	09 f0       	breq	.+2      	; 0x22d0 <__stack+0xd1>
    22ce:	9a cd       	rjmp	.-1228   	; 0x1e04 <_Z8SendWAVRv+0x26>
    22d0:	c1 5a       	subi	r28, 0xA1	; 161
    22d2:	df 4f       	sbci	r29, 0xFF	; 255
    22d4:	0f b6       	in	r0, 0x3f	; 63
    22d6:	f8 94       	cli
    22d8:	de bf       	out	0x3e, r29	; 62
    22da:	0f be       	out	0x3f, r0	; 63
    22dc:	cd bf       	out	0x3d, r28	; 61
    22de:	df 91       	pop	r29
    22e0:	cf 91       	pop	r28
    22e2:	08 95       	ret

000022e4 <_Z13printTimeDatehhh>:
    22e4:	cf 93       	push	r28
    22e6:	df 93       	push	r29
    22e8:	cd b7       	in	r28, 0x3d	; 61
    22ea:	de b7       	in	r29, 0x3e	; 62
    22ec:	eb 97       	sbiw	r28, 0x3b	; 59
    22ee:	0f b6       	in	r0, 0x3f	; 63
    22f0:	f8 94       	cli
    22f2:	de bf       	out	0x3e, r29	; 62
    22f4:	0f be       	out	0x3f, r0	; 63
    22f6:	cd bf       	out	0x3d, r28	; 61
    22f8:	89 af       	sts	0x79, r24
    22fa:	6a af       	sts	0x7a, r22
    22fc:	4b af       	sts	0x7b, r20
    22fe:	89 ad       	sts	0x69, r24
    2300:	88 23       	and	r24, r24
    2302:	51 f1       	breq	.+84     	; 0x2358 <_Z13printTimeDatehhh+0x74>
    2304:	8a ad       	sts	0x6a, r24
    2306:	88 23       	and	r24, r24
    2308:	89 f0       	breq	.+34     	; 0x232c <_Z13printTimeDatehhh+0x48>
    230a:	89 ec       	ldi	r24, 0xC9	; 201
    230c:	92 e0       	ldi	r25, 0x02	; 2
    230e:	0e 94 3b 07 	call	0xe76	; 0xe76 <_ZN6myTime7getTimeEv>
    2312:	9c 01       	movw	r18, r24
    2314:	ce 01       	movw	r24, r28
    2316:	01 96       	adiw	r24, 0x01	; 1
    2318:	b9 01       	movw	r22, r18
    231a:	0e 94 b8 23 	call	0x4770	; 0x4770 <strcpy>
    231e:	ce 01       	movw	r24, r28
    2320:	01 96       	adiw	r24, 0x01	; 1
    2322:	0e 94 ae 09 	call	0x135c	; 0x135c <_Z9PrintBonePc>
    2326:	8f e2       	ldi	r24, 0x2F	; 47
    2328:	0e 94 90 09 	call	0x1320	; 0x1320 <_Z13PutUartChBonec>
    232c:	8b ad       	sts	0x6b, r24
    232e:	88 23       	and	r24, r24
    2330:	e1 f1       	breq	.+120    	; 0x23aa <_Z13printTimeDatehhh+0xc6>
    2332:	89 ec       	ldi	r24, 0xC9	; 201
    2334:	92 e0       	ldi	r25, 0x02	; 2
    2336:	0e 94 c6 03 	call	0x78c	; 0x78c <_ZN6myDate7getDateEv>
    233a:	9c 01       	movw	r18, r24
    233c:	ce 01       	movw	r24, r28
    233e:	0c 96       	adiw	r24, 0x0c	; 12
    2340:	b9 01       	movw	r22, r18
    2342:	0e 94 b8 23 	call	0x4770	; 0x4770 <strcpy>
    2346:	ce 01       	movw	r24, r28
    2348:	0c 96       	adiw	r24, 0x0c	; 12
    234a:	0e 94 ae 09 	call	0x135c	; 0x135c <_Z9PrintBonePc>
    234e:	87 ea       	ldi	r24, 0xA7	; 167
    2350:	92 e0       	ldi	r25, 0x02	; 2
    2352:	0e 94 ae 09 	call	0x135c	; 0x135c <_Z9PrintBonePc>
    2356:	29 c0       	rjmp	.+82     	; 0x23aa <_Z13printTimeDatehhh+0xc6>
    2358:	8a ad       	sts	0x6a, r24
    235a:	88 23       	and	r24, r24
    235c:	89 f0       	breq	.+34     	; 0x2380 <_Z13printTimeDatehhh+0x9c>
    235e:	89 ec       	ldi	r24, 0xC9	; 201
    2360:	92 e0       	ldi	r25, 0x02	; 2
    2362:	0e 94 3b 07 	call	0xe76	; 0xe76 <_ZN6myTime7getTimeEv>
    2366:	9c 01       	movw	r18, r24
    2368:	ce 01       	movw	r24, r28
    236a:	4d 96       	adiw	r24, 0x1d	; 29
    236c:	b9 01       	movw	r22, r18
    236e:	0e 94 b8 23 	call	0x4770	; 0x4770 <strcpy>
    2372:	ce 01       	movw	r24, r28
    2374:	4d 96       	adiw	r24, 0x1d	; 29
    2376:	0e 94 f8 09 	call	0x13f0	; 0x13f0 <_Z9PrintWAVRPc>
    237a:	8f e2       	ldi	r24, 0x2F	; 47
    237c:	0e 94 da 09 	call	0x13b4	; 0x13b4 <_Z13PutUartChWAVRc>
    2380:	8b ad       	sts	0x6b, r24
    2382:	88 23       	and	r24, r24
    2384:	91 f0       	breq	.+36     	; 0x23aa <_Z13printTimeDatehhh+0xc6>
    2386:	89 ec       	ldi	r24, 0xC9	; 201
    2388:	92 e0       	ldi	r25, 0x02	; 2
    238a:	0e 94 c6 03 	call	0x78c	; 0x78c <_ZN6myDate7getDateEv>
    238e:	9c 01       	movw	r18, r24
    2390:	ce 01       	movw	r24, r28
    2392:	88 96       	adiw	r24, 0x28	; 40
    2394:	b9 01       	movw	r22, r18
    2396:	0e 94 b8 23 	call	0x4770	; 0x4770 <strcpy>
    239a:	ce 01       	movw	r24, r28
    239c:	88 96       	adiw	r24, 0x28	; 40
    239e:	0e 94 f8 09 	call	0x13f0	; 0x13f0 <_Z9PrintWAVRPc>
    23a2:	87 ea       	ldi	r24, 0xA7	; 167
    23a4:	92 e0       	ldi	r25, 0x02	; 2
    23a6:	0e 94 f8 09 	call	0x13f0	; 0x13f0 <_Z9PrintWAVRPc>
    23aa:	eb 96       	adiw	r28, 0x3b	; 59
    23ac:	0f b6       	in	r0, 0x3f	; 63
    23ae:	f8 94       	cli
    23b0:	de bf       	out	0x3e, r29	; 62
    23b2:	0f be       	out	0x3f, r0	; 63
    23b4:	cd bf       	out	0x3d, r28	; 61
    23b6:	df 91       	pop	r29
    23b8:	cf 91       	pop	r28
    23ba:	08 95       	ret

000023bc <_ZN8odometerC1Ev>:
    23bc:	cf 93       	push	r28
    23be:	df 93       	push	r29
    23c0:	0f 92       	push	r0
    23c2:	0f 92       	push	r0
    23c4:	cd b7       	in	r28, 0x3d	; 61
    23c6:	de b7       	in	r29, 0x3e	; 62
    23c8:	9a 83       	std	Y+2, r25	; 0x02
    23ca:	89 83       	std	Y+1, r24	; 0x01
    23cc:	29 81       	ldd	r18, Y+1	; 0x01
    23ce:	3a 81       	ldd	r19, Y+2	; 0x02
    23d0:	82 e3       	ldi	r24, 0x32	; 50
    23d2:	96 ef       	ldi	r25, 0xF6	; 246
    23d4:	a5 eb       	ldi	r26, 0xB5	; 181
    23d6:	ba e3       	ldi	r27, 0x3A	; 58
    23d8:	f9 01       	movw	r30, r18
    23da:	84 87       	std	Z+12, r24	; 0x0c
    23dc:	95 87       	std	Z+13, r25	; 0x0d
    23de:	a6 87       	std	Z+14, r26	; 0x0e
    23e0:	b7 87       	std	Z+15, r27	; 0x0f
    23e2:	89 81       	ldd	r24, Y+1	; 0x01
    23e4:	9a 81       	ldd	r25, Y+2	; 0x02
    23e6:	0e 94 fa 11 	call	0x23f4	; 0x23f4 <_ZN8odometer13resetOdometerEv>
    23ea:	0f 90       	pop	r0
    23ec:	0f 90       	pop	r0
    23ee:	df 91       	pop	r29
    23f0:	cf 91       	pop	r28
    23f2:	08 95       	ret

000023f4 <_ZN8odometer13resetOdometerEv>:
    23f4:	cf 93       	push	r28
    23f6:	df 93       	push	r29
    23f8:	00 d0       	rcall	.+0      	; 0x23fa <_ZN8odometer13resetOdometerEv+0x6>
    23fa:	0f 92       	push	r0
    23fc:	cd b7       	in	r28, 0x3d	; 61
    23fe:	de b7       	in	r29, 0x3e	; 62
    2400:	9c 83       	std	Y+4, r25	; 0x04
    2402:	8b 83       	std	Y+3, r24	; 0x03
    2404:	8b 81       	ldd	r24, Y+3	; 0x03
    2406:	9c 81       	ldd	r25, Y+4	; 0x04
    2408:	21 e0       	ldi	r18, 0x01	; 1
    240a:	fc 01       	movw	r30, r24
    240c:	20 ab       	sts	0x50, r18
    240e:	8b 81       	ldd	r24, Y+3	; 0x03
    2410:	9c 81       	ldd	r25, Y+4	; 0x04
    2412:	fc 01       	movw	r30, r24
    2414:	11 aa       	sts	0x91, r17
    2416:	2b 81       	ldd	r18, Y+3	; 0x03
    2418:	3c 81       	ldd	r19, Y+4	; 0x04
    241a:	80 e0       	ldi	r24, 0x00	; 0
    241c:	90 e0       	ldi	r25, 0x00	; 0
    241e:	dc 01       	movw	r26, r24
    2420:	f9 01       	movw	r30, r18
    2422:	80 83       	st	Z, r24
    2424:	91 83       	std	Z+1, r25	; 0x01
    2426:	a2 83       	std	Z+2, r26	; 0x02
    2428:	b3 83       	std	Z+3, r27	; 0x03
    242a:	2b 81       	ldd	r18, Y+3	; 0x03
    242c:	3c 81       	ldd	r19, Y+4	; 0x04
    242e:	80 e0       	ldi	r24, 0x00	; 0
    2430:	90 e0       	ldi	r25, 0x00	; 0
    2432:	dc 01       	movw	r26, r24
    2434:	f9 01       	movw	r30, r18
    2436:	84 83       	std	Z+4, r24	; 0x04
    2438:	95 83       	std	Z+5, r25	; 0x05
    243a:	a6 83       	std	Z+6, r26	; 0x06
    243c:	b7 83       	std	Z+7, r27	; 0x07
    243e:	2b 81       	ldd	r18, Y+3	; 0x03
    2440:	3c 81       	ldd	r19, Y+4	; 0x04
    2442:	80 e0       	ldi	r24, 0x00	; 0
    2444:	90 e0       	ldi	r25, 0x00	; 0
    2446:	dc 01       	movw	r26, r24
    2448:	f9 01       	movw	r30, r18
    244a:	80 87       	std	Z+8, r24	; 0x08
    244c:	91 87       	std	Z+9, r25	; 0x09
    244e:	a2 87       	std	Z+10, r26	; 0x0a
    2450:	b3 87       	std	Z+11, r27	; 0x0b
    2452:	2b 81       	ldd	r18, Y+3	; 0x03
    2454:	3c 81       	ldd	r19, Y+4	; 0x04
    2456:	80 e0       	ldi	r24, 0x00	; 0
    2458:	90 e0       	ldi	r25, 0x00	; 0
    245a:	dc 01       	movw	r26, r24
    245c:	f9 01       	movw	r30, r18
    245e:	80 8b       	std	Z+16, r24	; 0x10
    2460:	91 8b       	std	Z+17, r25	; 0x11
    2462:	a2 8b       	std	Z+18, r26	; 0x12
    2464:	b3 8b       	std	Z+19, r27	; 0x13
    2466:	8b 81       	ldd	r24, Y+3	; 0x03
    2468:	9c 81       	ldd	r25, Y+4	; 0x04
    246a:	fc 01       	movw	r30, r24
    246c:	17 a6       	lds	r17, 0xb7
    246e:	16 a6       	lds	r17, 0xb6
    2470:	8b 81       	ldd	r24, Y+3	; 0x03
    2472:	9c 81       	ldd	r25, Y+4	; 0x04
    2474:	fc 01       	movw	r30, r24
    2476:	15 8a       	std	Z+21, r1	; 0x15
    2478:	14 8a       	std	Z+20, r1	; 0x14
    247a:	8b 81       	ldd	r24, Y+3	; 0x03
    247c:	9c 81       	ldd	r25, Y+4	; 0x04
    247e:	fc 01       	movw	r30, r24
    2480:	17 8a       	std	Z+23, r1	; 0x17
    2482:	16 8a       	std	Z+22, r1	; 0x16
    2484:	8b 81       	ldd	r24, Y+3	; 0x03
    2486:	9c 81       	ldd	r25, Y+4	; 0x04
    2488:	fc 01       	movw	r30, r24
    248a:	11 8e       	std	Z+25, r1	; 0x19
    248c:	10 8e       	std	Z+24, r1	; 0x18
    248e:	1a 82       	std	Y+2, r1	; 0x02
    2490:	19 82       	std	Y+1, r1	; 0x01
    2492:	11 c0       	rjmp	.+34     	; 0x24b6 <_ZN8odometer13resetOdometerEv+0xc2>
    2494:	89 81       	ldd	r24, Y+1	; 0x01
    2496:	9a 81       	ldd	r25, Y+2	; 0x02
    2498:	2b 81       	ldd	r18, Y+3	; 0x03
    249a:	3c 81       	ldd	r19, Y+4	; 0x04
    249c:	0d 96       	adiw	r24, 0x0d	; 13
    249e:	88 0f       	add	r24, r24
    24a0:	99 1f       	adc	r25, r25
    24a2:	82 0f       	add	r24, r18
    24a4:	93 1f       	adc	r25, r19
    24a6:	fc 01       	movw	r30, r24
    24a8:	11 82       	std	Z+1, r1	; 0x01
    24aa:	10 82       	st	Z, r1
    24ac:	89 81       	ldd	r24, Y+1	; 0x01
    24ae:	9a 81       	ldd	r25, Y+2	; 0x02
    24b0:	01 96       	adiw	r24, 0x01	; 1
    24b2:	9a 83       	std	Y+2, r25	; 0x02
    24b4:	89 83       	std	Y+1, r24	; 0x01
    24b6:	89 81       	ldd	r24, Y+1	; 0x01
    24b8:	9a 81       	ldd	r25, Y+2	; 0x02
    24ba:	21 e0       	ldi	r18, 0x01	; 1
    24bc:	8a 30       	cpi	r24, 0x0A	; 10
    24be:	91 05       	cpc	r25, r1
    24c0:	0c f0       	brlt	.+2      	; 0x24c4 <_ZN8odometer13resetOdometerEv+0xd0>
    24c2:	20 e0       	ldi	r18, 0x00	; 0
    24c4:	22 23       	and	r18, r18
    24c6:	31 f7       	brne	.-52     	; 0x2494 <_ZN8odometer13resetOdometerEv+0xa0>
    24c8:	0f 90       	pop	r0
    24ca:	0f 90       	pop	r0
    24cc:	0f 90       	pop	r0
    24ce:	0f 90       	pop	r0
    24d0:	df 91       	pop	r29
    24d2:	cf 91       	pop	r28
    24d4:	08 95       	ret

000024d6 <_ZN8odometer20setNewOdometerWOtimeEd>:
    24d6:	cf 93       	push	r28
    24d8:	df 93       	push	r29
    24da:	00 d0       	rcall	.+0      	; 0x24dc <_ZN8odometer20setNewOdometerWOtimeEd+0x6>
    24dc:	00 d0       	rcall	.+0      	; 0x24de <_ZN8odometer20setNewOdometerWOtimeEd+0x8>
    24de:	cd b7       	in	r28, 0x3d	; 61
    24e0:	de b7       	in	r29, 0x3e	; 62
    24e2:	9a 83       	std	Y+2, r25	; 0x02
    24e4:	89 83       	std	Y+1, r24	; 0x01
    24e6:	4b 83       	std	Y+3, r20	; 0x03
    24e8:	5c 83       	std	Y+4, r21	; 0x04
    24ea:	6d 83       	std	Y+5, r22	; 0x05
    24ec:	7e 83       	std	Y+6, r23	; 0x06
    24ee:	29 81       	ldd	r18, Y+1	; 0x01
    24f0:	3a 81       	ldd	r19, Y+2	; 0x02
    24f2:	8b 81       	ldd	r24, Y+3	; 0x03
    24f4:	9c 81       	ldd	r25, Y+4	; 0x04
    24f6:	ad 81       	ldd	r26, Y+5	; 0x05
    24f8:	be 81       	ldd	r27, Y+6	; 0x06
    24fa:	f9 01       	movw	r30, r18
    24fc:	84 87       	std	Z+12, r24	; 0x0c
    24fe:	95 87       	std	Z+13, r25	; 0x0d
    2500:	a6 87       	std	Z+14, r26	; 0x0e
    2502:	b7 87       	std	Z+15, r27	; 0x0f
    2504:	89 81       	ldd	r24, Y+1	; 0x01
    2506:	9a 81       	ldd	r25, Y+2	; 0x02
    2508:	0e 94 fa 11 	call	0x23f4	; 0x23f4 <_ZN8odometer13resetOdometerEv>
    250c:	26 96       	adiw	r28, 0x06	; 6
    250e:	0f b6       	in	r0, 0x3f	; 63
    2510:	f8 94       	cli
    2512:	de bf       	out	0x3e, r29	; 62
    2514:	0f be       	out	0x3f, r0	; 63
    2516:	cd bf       	out	0x3d, r28	; 61
    2518:	df 91       	pop	r29
    251a:	cf 91       	pop	r28
    251c:	08 95       	ret

0000251e <_ZN8odometer19setNewOdometerWtimeEdjj>:
    251e:	0f 93       	push	r16
    2520:	1f 93       	push	r17
    2522:	cf 93       	push	r28
    2524:	df 93       	push	r29
    2526:	cd b7       	in	r28, 0x3d	; 61
    2528:	de b7       	in	r29, 0x3e	; 62
    252a:	2a 97       	sbiw	r28, 0x0a	; 10
    252c:	0f b6       	in	r0, 0x3f	; 63
    252e:	f8 94       	cli
    2530:	de bf       	out	0x3e, r29	; 62
    2532:	0f be       	out	0x3f, r0	; 63
    2534:	cd bf       	out	0x3d, r28	; 61
    2536:	9a 83       	std	Y+2, r25	; 0x02
    2538:	89 83       	std	Y+1, r24	; 0x01
    253a:	4b 83       	std	Y+3, r20	; 0x03
    253c:	5c 83       	std	Y+4, r21	; 0x04
    253e:	6d 83       	std	Y+5, r22	; 0x05
    2540:	7e 83       	std	Y+6, r23	; 0x06
    2542:	38 87       	std	Y+8, r19	; 0x08
    2544:	2f 83       	std	Y+7, r18	; 0x07
    2546:	1a 87       	std	Y+10, r17	; 0x0a
    2548:	09 87       	std	Y+9, r16	; 0x09
    254a:	29 81       	ldd	r18, Y+1	; 0x01
    254c:	3a 81       	ldd	r19, Y+2	; 0x02
    254e:	8b 81       	ldd	r24, Y+3	; 0x03
    2550:	9c 81       	ldd	r25, Y+4	; 0x04
    2552:	ad 81       	ldd	r26, Y+5	; 0x05
    2554:	be 81       	ldd	r27, Y+6	; 0x06
    2556:	f9 01       	movw	r30, r18
    2558:	84 87       	std	Z+12, r24	; 0x0c
    255a:	95 87       	std	Z+13, r25	; 0x0d
    255c:	a6 87       	std	Z+14, r26	; 0x0e
    255e:	b7 87       	std	Z+15, r27	; 0x0f
    2560:	89 81       	ldd	r24, Y+1	; 0x01
    2562:	9a 81       	ldd	r25, Y+2	; 0x02
    2564:	2f 81       	ldd	r18, Y+7	; 0x07
    2566:	38 85       	ldd	r19, Y+8	; 0x08
    2568:	fc 01       	movw	r30, r24
    256a:	35 8b       	std	Z+21, r19	; 0x15
    256c:	24 8b       	std	Z+20, r18	; 0x14
    256e:	89 81       	ldd	r24, Y+1	; 0x01
    2570:	9a 81       	ldd	r25, Y+2	; 0x02
    2572:	29 85       	ldd	r18, Y+9	; 0x09
    2574:	3a 85       	ldd	r19, Y+10	; 0x0a
    2576:	fc 01       	movw	r30, r24
    2578:	37 8b       	std	Z+23, r19	; 0x17
    257a:	26 8b       	std	Z+22, r18	; 0x16
    257c:	89 81       	ldd	r24, Y+1	; 0x01
    257e:	9a 81       	ldd	r25, Y+2	; 0x02
    2580:	0e 94 fa 11 	call	0x23f4	; 0x23f4 <_ZN8odometer13resetOdometerEv>
    2584:	2a 96       	adiw	r28, 0x0a	; 10
    2586:	0f b6       	in	r0, 0x3f	; 63
    2588:	f8 94       	cli
    258a:	de bf       	out	0x3e, r29	; 62
    258c:	0f be       	out	0x3f, r0	; 63
    258e:	cd bf       	out	0x3d, r28	; 61
    2590:	df 91       	pop	r29
    2592:	cf 91       	pop	r28
    2594:	1f 91       	pop	r17
    2596:	0f 91       	pop	r16
    2598:	08 95       	ret

0000259a <_ZN8odometer11setOdometerEddddjjjj>:
    259a:	8f 92       	push	r8
    259c:	9f 92       	push	r9
    259e:	af 92       	push	r10
    25a0:	bf 92       	push	r11
    25a2:	cf 92       	push	r12
    25a4:	df 92       	push	r13
    25a6:	ef 92       	push	r14
    25a8:	ff 92       	push	r15
    25aa:	0f 93       	push	r16
    25ac:	1f 93       	push	r17
    25ae:	cf 93       	push	r28
    25b0:	df 93       	push	r29
    25b2:	cd b7       	in	r28, 0x3d	; 61
    25b4:	de b7       	in	r29, 0x3e	; 62
    25b6:	62 97       	sbiw	r28, 0x12	; 18
    25b8:	0f b6       	in	r0, 0x3f	; 63
    25ba:	f8 94       	cli
    25bc:	de bf       	out	0x3e, r29	; 62
    25be:	0f be       	out	0x3f, r0	; 63
    25c0:	cd bf       	out	0x3d, r28	; 61
    25c2:	9a 83       	std	Y+2, r25	; 0x02
    25c4:	89 83       	std	Y+1, r24	; 0x01
    25c6:	4b 83       	std	Y+3, r20	; 0x03
    25c8:	5c 83       	std	Y+4, r21	; 0x04
    25ca:	6d 83       	std	Y+5, r22	; 0x05
    25cc:	7e 83       	std	Y+6, r23	; 0x06
    25ce:	0f 83       	std	Y+7, r16	; 0x07
    25d0:	18 87       	std	Y+8, r17	; 0x08
    25d2:	29 87       	std	Y+9, r18	; 0x09
    25d4:	3a 87       	std	Y+10, r19	; 0x0a
    25d6:	cb 86       	std	Y+11, r12	; 0x0b
    25d8:	dc 86       	std	Y+12, r13	; 0x0c
    25da:	ed 86       	std	Y+13, r14	; 0x0d
    25dc:	fe 86       	std	Y+14, r15	; 0x0e
    25de:	8f 86       	std	Y+15, r8	; 0x0f
    25e0:	98 8a       	std	Y+16, r9	; 0x10
    25e2:	a9 8a       	std	Y+17, r10	; 0x11
    25e4:	ba 8a       	std	Y+18, r11	; 0x12
    25e6:	29 81       	ldd	r18, Y+1	; 0x01
    25e8:	3a 81       	ldd	r19, Y+2	; 0x02
    25ea:	8b 81       	ldd	r24, Y+3	; 0x03
    25ec:	9c 81       	ldd	r25, Y+4	; 0x04
    25ee:	ad 81       	ldd	r26, Y+5	; 0x05
    25f0:	be 81       	ldd	r27, Y+6	; 0x06
    25f2:	f9 01       	movw	r30, r18
    25f4:	80 83       	st	Z, r24
    25f6:	91 83       	std	Z+1, r25	; 0x01
    25f8:	a2 83       	std	Z+2, r26	; 0x02
    25fa:	b3 83       	std	Z+3, r27	; 0x03
    25fc:	29 81       	ldd	r18, Y+1	; 0x01
    25fe:	3a 81       	ldd	r19, Y+2	; 0x02
    2600:	8f 81       	ldd	r24, Y+7	; 0x07
    2602:	98 85       	ldd	r25, Y+8	; 0x08
    2604:	a9 85       	ldd	r26, Y+9	; 0x09
    2606:	ba 85       	ldd	r27, Y+10	; 0x0a
    2608:	f9 01       	movw	r30, r18
    260a:	84 83       	std	Z+4, r24	; 0x04
    260c:	95 83       	std	Z+5, r25	; 0x05
    260e:	a6 83       	std	Z+6, r26	; 0x06
    2610:	b7 83       	std	Z+7, r27	; 0x07
    2612:	29 81       	ldd	r18, Y+1	; 0x01
    2614:	3a 81       	ldd	r19, Y+2	; 0x02
    2616:	8b 85       	ldd	r24, Y+11	; 0x0b
    2618:	9c 85       	ldd	r25, Y+12	; 0x0c
    261a:	ad 85       	ldd	r26, Y+13	; 0x0d
    261c:	be 85       	ldd	r27, Y+14	; 0x0e
    261e:	f9 01       	movw	r30, r18
    2620:	80 87       	std	Z+8, r24	; 0x08
    2622:	91 87       	std	Z+9, r25	; 0x09
    2624:	a2 87       	std	Z+10, r26	; 0x0a
    2626:	b3 87       	std	Z+11, r27	; 0x0b
    2628:	29 81       	ldd	r18, Y+1	; 0x01
    262a:	3a 81       	ldd	r19, Y+2	; 0x02
    262c:	8f 85       	ldd	r24, Y+15	; 0x0f
    262e:	98 89       	ldd	r25, Y+16	; 0x10
    2630:	a9 89       	ldd	r26, Y+17	; 0x11
    2632:	ba 89       	ldd	r27, Y+18	; 0x12
    2634:	f9 01       	movw	r30, r18
    2636:	84 87       	std	Z+12, r24	; 0x0c
    2638:	95 87       	std	Z+13, r25	; 0x0d
    263a:	a6 87       	std	Z+14, r26	; 0x0e
    263c:	b7 87       	std	Z+15, r27	; 0x0f
    263e:	89 81       	ldd	r24, Y+1	; 0x01
    2640:	9a 81       	ldd	r25, Y+2	; 0x02
    2642:	2a a1       	lds	r18, 0x4a
    2644:	3b a1       	lds	r19, 0x4b
    2646:	fc 01       	movw	r30, r24
    2648:	37 a7       	lds	r19, 0x77
    264a:	26 a7       	lds	r18, 0x76
    264c:	89 81       	ldd	r24, Y+1	; 0x01
    264e:	9a 81       	ldd	r25, Y+2	; 0x02
    2650:	2c a1       	lds	r18, 0x4c
    2652:	3d a1       	lds	r19, 0x4d
    2654:	fc 01       	movw	r30, r24
    2656:	31 8f       	std	Z+25, r19	; 0x19
    2658:	20 8f       	std	Z+24, r18	; 0x18
    265a:	89 81       	ldd	r24, Y+1	; 0x01
    265c:	9a 81       	ldd	r25, Y+2	; 0x02
    265e:	2e a1       	lds	r18, 0x4e
    2660:	3f a1       	lds	r19, 0x4f
    2662:	fc 01       	movw	r30, r24
    2664:	35 8b       	std	Z+21, r19	; 0x15
    2666:	24 8b       	std	Z+20, r18	; 0x14
    2668:	89 81       	ldd	r24, Y+1	; 0x01
    266a:	9a 81       	ldd	r25, Y+2	; 0x02
    266c:	28 a5       	lds	r18, 0x68
    266e:	39 a5       	lds	r19, 0x69
    2670:	fc 01       	movw	r30, r24
    2672:	37 8b       	std	Z+23, r19	; 0x17
    2674:	26 8b       	std	Z+22, r18	; 0x16
    2676:	89 81       	ldd	r24, Y+1	; 0x01
    2678:	9a 81       	ldd	r25, Y+2	; 0x02
    267a:	21 e0       	ldi	r18, 0x01	; 1
    267c:	fc 01       	movw	r30, r24
    267e:	20 ab       	sts	0x50, r18
    2680:	62 96       	adiw	r28, 0x12	; 18
    2682:	0f b6       	in	r0, 0x3f	; 63
    2684:	f8 94       	cli
    2686:	de bf       	out	0x3e, r29	; 62
    2688:	0f be       	out	0x3f, r0	; 63
    268a:	cd bf       	out	0x3d, r28	; 61
    268c:	df 91       	pop	r29
    268e:	cf 91       	pop	r28
    2690:	1f 91       	pop	r17
    2692:	0f 91       	pop	r16
    2694:	ff 90       	pop	r15
    2696:	ef 90       	pop	r14
    2698:	df 90       	pop	r13
    269a:	cf 90       	pop	r12
    269c:	bf 90       	pop	r11
    269e:	af 90       	pop	r10
    26a0:	9f 90       	pop	r9
    26a2:	8f 90       	pop	r8
    26a4:	08 95       	ret

000026a6 <_ZN8odometer17addSpeedDataPointEj>:
    26a6:	cf 93       	push	r28
    26a8:	df 93       	push	r29
    26aa:	cd b7       	in	r28, 0x3d	; 61
    26ac:	de b7       	in	r29, 0x3e	; 62
    26ae:	28 97       	sbiw	r28, 0x08	; 8
    26b0:	0f b6       	in	r0, 0x3f	; 63
    26b2:	f8 94       	cli
    26b4:	de bf       	out	0x3e, r29	; 62
    26b6:	0f be       	out	0x3f, r0	; 63
    26b8:	cd bf       	out	0x3d, r28	; 61
    26ba:	9e 83       	std	Y+6, r25	; 0x06
    26bc:	8d 83       	std	Y+5, r24	; 0x05
    26be:	78 87       	std	Y+8, r23	; 0x08
    26c0:	6f 83       	std	Y+7, r22	; 0x07
    26c2:	8d 81       	ldd	r24, Y+5	; 0x05
    26c4:	9e 81       	ldd	r25, Y+6	; 0x06
    26c6:	fc 01       	movw	r30, r24
    26c8:	80 a9       	sts	0x40, r24
    26ca:	88 23       	and	r24, r24
    26cc:	31 f4       	brne	.+12     	; 0x26da <_ZN8odometer17addSpeedDataPointEj+0x34>
    26ce:	8d 81       	ldd	r24, Y+5	; 0x05
    26d0:	9e 81       	ldd	r25, Y+6	; 0x06
    26d2:	fc 01       	movw	r30, r24
    26d4:	81 a9       	sts	0x41, r24
    26d6:	88 23       	and	r24, r24
    26d8:	41 f1       	breq	.+80     	; 0x272a <_ZN8odometer17addSpeedDataPointEj+0x84>
    26da:	1a 82       	std	Y+2, r1	; 0x02
    26dc:	19 82       	std	Y+1, r1	; 0x01
    26de:	13 c0       	rjmp	.+38     	; 0x2706 <_ZN8odometer17addSpeedDataPointEj+0x60>
    26e0:	89 81       	ldd	r24, Y+1	; 0x01
    26e2:	9a 81       	ldd	r25, Y+2	; 0x02
    26e4:	2d 81       	ldd	r18, Y+5	; 0x05
    26e6:	3e 81       	ldd	r19, Y+6	; 0x06
    26e8:	0d 96       	adiw	r24, 0x0d	; 13
    26ea:	88 0f       	add	r24, r24
    26ec:	99 1f       	adc	r25, r25
    26ee:	82 0f       	add	r24, r18
    26f0:	93 1f       	adc	r25, r19
    26f2:	2f 81       	ldd	r18, Y+7	; 0x07
    26f4:	38 85       	ldd	r19, Y+8	; 0x08
    26f6:	fc 01       	movw	r30, r24
    26f8:	31 83       	std	Z+1, r19	; 0x01
    26fa:	20 83       	st	Z, r18
    26fc:	89 81       	ldd	r24, Y+1	; 0x01
    26fe:	9a 81       	ldd	r25, Y+2	; 0x02
    2700:	01 96       	adiw	r24, 0x01	; 1
    2702:	9a 83       	std	Y+2, r25	; 0x02
    2704:	89 83       	std	Y+1, r24	; 0x01
    2706:	89 81       	ldd	r24, Y+1	; 0x01
    2708:	9a 81       	ldd	r25, Y+2	; 0x02
    270a:	21 e0       	ldi	r18, 0x01	; 1
    270c:	8a 30       	cpi	r24, 0x0A	; 10
    270e:	91 05       	cpc	r25, r1
    2710:	0c f0       	brlt	.+2      	; 0x2714 <_ZN8odometer17addSpeedDataPointEj+0x6e>
    2712:	20 e0       	ldi	r18, 0x00	; 0
    2714:	22 23       	and	r18, r18
    2716:	21 f7       	brne	.-56     	; 0x26e0 <_ZN8odometer17addSpeedDataPointEj+0x3a>
    2718:	8d 81       	ldd	r24, Y+5	; 0x05
    271a:	9e 81       	ldd	r25, Y+6	; 0x06
    271c:	fc 01       	movw	r30, r24
    271e:	10 aa       	sts	0x90, r17
    2720:	8d 81       	ldd	r24, Y+5	; 0x05
    2722:	9e 81       	ldd	r25, Y+6	; 0x06
    2724:	fc 01       	movw	r30, r24
    2726:	11 aa       	sts	0x91, r17
    2728:	33 c0       	rjmp	.+102    	; 0x2790 <_ZN8odometer17addSpeedDataPointEj+0xea>
    272a:	1c 82       	std	Y+4, r1	; 0x04
    272c:	1b 82       	std	Y+3, r1	; 0x03
    272e:	20 c0       	rjmp	.+64     	; 0x2770 <_ZN8odometer17addSpeedDataPointEj+0xca>
    2730:	8b 81       	ldd	r24, Y+3	; 0x03
    2732:	9c 81       	ldd	r25, Y+4	; 0x04
    2734:	2b 81       	ldd	r18, Y+3	; 0x03
    2736:	3c 81       	ldd	r19, Y+4	; 0x04
    2738:	2f 5f       	subi	r18, 0xFF	; 255
    273a:	3f 4f       	sbci	r19, 0xFF	; 255
    273c:	4d 81       	ldd	r20, Y+5	; 0x05
    273e:	5e 81       	ldd	r21, Y+6	; 0x06
    2740:	23 5f       	subi	r18, 0xF3	; 243
    2742:	3f 4f       	sbci	r19, 0xFF	; 255
    2744:	22 0f       	add	r18, r18
    2746:	33 1f       	adc	r19, r19
    2748:	24 0f       	add	r18, r20
    274a:	35 1f       	adc	r19, r21
    274c:	f9 01       	movw	r30, r18
    274e:	20 81       	ld	r18, Z
    2750:	31 81       	ldd	r19, Z+1	; 0x01
    2752:	4d 81       	ldd	r20, Y+5	; 0x05
    2754:	5e 81       	ldd	r21, Y+6	; 0x06
    2756:	0d 96       	adiw	r24, 0x0d	; 13
    2758:	88 0f       	add	r24, r24
    275a:	99 1f       	adc	r25, r25
    275c:	84 0f       	add	r24, r20
    275e:	95 1f       	adc	r25, r21
    2760:	fc 01       	movw	r30, r24
    2762:	31 83       	std	Z+1, r19	; 0x01
    2764:	20 83       	st	Z, r18
    2766:	8b 81       	ldd	r24, Y+3	; 0x03
    2768:	9c 81       	ldd	r25, Y+4	; 0x04
    276a:	01 96       	adiw	r24, 0x01	; 1
    276c:	9c 83       	std	Y+4, r25	; 0x04
    276e:	8b 83       	std	Y+3, r24	; 0x03
    2770:	8b 81       	ldd	r24, Y+3	; 0x03
    2772:	9c 81       	ldd	r25, Y+4	; 0x04
    2774:	21 e0       	ldi	r18, 0x01	; 1
    2776:	89 30       	cpi	r24, 0x09	; 9
    2778:	91 05       	cpc	r25, r1
    277a:	0c f0       	brlt	.+2      	; 0x277e <_ZN8odometer17addSpeedDataPointEj+0xd8>
    277c:	20 e0       	ldi	r18, 0x00	; 0
    277e:	22 23       	and	r18, r18
    2780:	b9 f6       	brne	.-82     	; 0x2730 <_ZN8odometer17addSpeedDataPointEj+0x8a>
    2782:	8d 81       	ldd	r24, Y+5	; 0x05
    2784:	9e 81       	ldd	r25, Y+6	; 0x06
    2786:	2f 81       	ldd	r18, Y+7	; 0x07
    2788:	38 85       	ldd	r19, Y+8	; 0x08
    278a:	fc 01       	movw	r30, r24
    278c:	35 a7       	lds	r19, 0x75
    278e:	24 a7       	lds	r18, 0x74
    2790:	8d 81       	ldd	r24, Y+5	; 0x05
    2792:	9e 81       	ldd	r25, Y+6	; 0x06
    2794:	fc 01       	movw	r30, r24
    2796:	86 a5       	lds	r24, 0x66
    2798:	97 a5       	lds	r25, 0x67
    279a:	9c 01       	movw	r18, r24
    279c:	2f 5f       	subi	r18, 0xFF	; 255
    279e:	3f 4f       	sbci	r19, 0xFF	; 255
    27a0:	8d 81       	ldd	r24, Y+5	; 0x05
    27a2:	9e 81       	ldd	r25, Y+6	; 0x06
    27a4:	fc 01       	movw	r30, r24
    27a6:	37 a7       	lds	r19, 0x77
    27a8:	26 a7       	lds	r18, 0x76
    27aa:	8d 81       	ldd	r24, Y+5	; 0x05
    27ac:	9e 81       	ldd	r25, Y+6	; 0x06
    27ae:	fc 01       	movw	r30, r24
    27b0:	84 81       	ldd	r24, Z+4	; 0x04
    27b2:	95 81       	ldd	r25, Z+5	; 0x05
    27b4:	a6 81       	ldd	r26, Z+6	; 0x06
    27b6:	b7 81       	ldd	r27, Z+7	; 0x07
    27b8:	2d 81       	ldd	r18, Y+5	; 0x05
    27ba:	3e 81       	ldd	r19, Y+6	; 0x06
    27bc:	f9 01       	movw	r30, r18
    27be:	24 85       	ldd	r18, Z+12	; 0x0c
    27c0:	35 85       	ldd	r19, Z+13	; 0x0d
    27c2:	46 85       	ldd	r20, Z+14	; 0x0e
    27c4:	57 85       	ldd	r21, Z+15	; 0x0f
    27c6:	bc 01       	movw	r22, r24
    27c8:	cd 01       	movw	r24, r26
    27ca:	0e 94 9e 21 	call	0x433c	; 0x433c <__addsf3>
    27ce:	dc 01       	movw	r26, r24
    27d0:	cb 01       	movw	r24, r22
    27d2:	2d 81       	ldd	r18, Y+5	; 0x05
    27d4:	3e 81       	ldd	r19, Y+6	; 0x06
    27d6:	f9 01       	movw	r30, r18
    27d8:	84 83       	std	Z+4, r24	; 0x04
    27da:	95 83       	std	Z+5, r25	; 0x05
    27dc:	a6 83       	std	Z+6, r26	; 0x06
    27de:	b7 83       	std	Z+7, r27	; 0x07
    27e0:	8d 81       	ldd	r24, Y+5	; 0x05
    27e2:	9e 81       	ldd	r25, Y+6	; 0x06
    27e4:	0e 94 5d 14 	call	0x28ba	; 0x28ba <_ZN8odometer12updateSpeedsEv>
    27e8:	28 96       	adiw	r28, 0x08	; 8
    27ea:	0f b6       	in	r0, 0x3f	; 63
    27ec:	f8 94       	cli
    27ee:	de bf       	out	0x3e, r29	; 62
    27f0:	0f be       	out	0x3f, r0	; 63
    27f2:	cd bf       	out	0x3d, r28	; 61
    27f4:	df 91       	pop	r29
    27f6:	cf 91       	pop	r28
    27f8:	08 95       	ret

000027fa <_ZN8odometer16resetSpeedPointsEv>:
    27fa:	cf 93       	push	r28
    27fc:	df 93       	push	r29
    27fe:	00 d0       	rcall	.+0      	; 0x2800 <_ZN8odometer16resetSpeedPointsEv+0x6>
    2800:	0f 92       	push	r0
    2802:	cd b7       	in	r28, 0x3d	; 61
    2804:	de b7       	in	r29, 0x3e	; 62
    2806:	9c 83       	std	Y+4, r25	; 0x04
    2808:	8b 83       	std	Y+3, r24	; 0x03
    280a:	8b 81       	ldd	r24, Y+3	; 0x03
    280c:	9c 81       	ldd	r25, Y+4	; 0x04
    280e:	21 e0       	ldi	r18, 0x01	; 1
    2810:	fc 01       	movw	r30, r24
    2812:	21 ab       	sts	0x51, r18
    2814:	2b 81       	ldd	r18, Y+3	; 0x03
    2816:	3c 81       	ldd	r19, Y+4	; 0x04
    2818:	80 e0       	ldi	r24, 0x00	; 0
    281a:	90 e0       	ldi	r25, 0x00	; 0
    281c:	dc 01       	movw	r26, r24
    281e:	f9 01       	movw	r30, r18
    2820:	80 87       	std	Z+8, r24	; 0x08
    2822:	91 87       	std	Z+9, r25	; 0x09
    2824:	a2 87       	std	Z+10, r26	; 0x0a
    2826:	b3 87       	std	Z+11, r27	; 0x0b
    2828:	1a 82       	std	Y+2, r1	; 0x02
    282a:	19 82       	std	Y+1, r1	; 0x01
    282c:	11 c0       	rjmp	.+34     	; 0x2850 <_ZN8odometer16resetSpeedPointsEv+0x56>
    282e:	89 81       	ldd	r24, Y+1	; 0x01
    2830:	9a 81       	ldd	r25, Y+2	; 0x02
    2832:	2b 81       	ldd	r18, Y+3	; 0x03
    2834:	3c 81       	ldd	r19, Y+4	; 0x04
    2836:	0d 96       	adiw	r24, 0x0d	; 13
    2838:	88 0f       	add	r24, r24
    283a:	99 1f       	adc	r25, r25
    283c:	82 0f       	add	r24, r18
    283e:	93 1f       	adc	r25, r19
    2840:	fc 01       	movw	r30, r24
    2842:	11 82       	std	Z+1, r1	; 0x01
    2844:	10 82       	st	Z, r1
    2846:	89 81       	ldd	r24, Y+1	; 0x01
    2848:	9a 81       	ldd	r25, Y+2	; 0x02
    284a:	01 96       	adiw	r24, 0x01	; 1
    284c:	9a 83       	std	Y+2, r25	; 0x02
    284e:	89 83       	std	Y+1, r24	; 0x01
    2850:	89 81       	ldd	r24, Y+1	; 0x01
    2852:	9a 81       	ldd	r25, Y+2	; 0x02
    2854:	21 e0       	ldi	r18, 0x01	; 1
    2856:	8a 30       	cpi	r24, 0x0A	; 10
    2858:	91 05       	cpc	r25, r1
    285a:	0c f0       	brlt	.+2      	; 0x285e <_ZN8odometer16resetSpeedPointsEv+0x64>
    285c:	20 e0       	ldi	r18, 0x00	; 0
    285e:	22 23       	and	r18, r18
    2860:	31 f7       	brne	.-52     	; 0x282e <_ZN8odometer16resetSpeedPointsEv+0x34>
    2862:	0f 90       	pop	r0
    2864:	0f 90       	pop	r0
    2866:	0f 90       	pop	r0
    2868:	0f 90       	pop	r0
    286a:	df 91       	pop	r29
    286c:	cf 91       	pop	r28
    286e:	08 95       	ret

00002870 <_ZN8odometer12setWheelSizeEd>:
    2870:	cf 93       	push	r28
    2872:	df 93       	push	r29
    2874:	00 d0       	rcall	.+0      	; 0x2876 <_ZN8odometer12setWheelSizeEd+0x6>
    2876:	00 d0       	rcall	.+0      	; 0x2878 <_ZN8odometer12setWheelSizeEd+0x8>
    2878:	cd b7       	in	r28, 0x3d	; 61
    287a:	de b7       	in	r29, 0x3e	; 62
    287c:	9a 83       	std	Y+2, r25	; 0x02
    287e:	89 83       	std	Y+1, r24	; 0x01
    2880:	4b 83       	std	Y+3, r20	; 0x03
    2882:	5c 83       	std	Y+4, r21	; 0x04
    2884:	6d 83       	std	Y+5, r22	; 0x05
    2886:	7e 83       	std	Y+6, r23	; 0x06
    2888:	89 81       	ldd	r24, Y+1	; 0x01
    288a:	9a 81       	ldd	r25, Y+2	; 0x02
    288c:	21 e0       	ldi	r18, 0x01	; 1
    288e:	fc 01       	movw	r30, r24
    2890:	20 ab       	sts	0x50, r18
    2892:	29 81       	ldd	r18, Y+1	; 0x01
    2894:	3a 81       	ldd	r19, Y+2	; 0x02
    2896:	8b 81       	ldd	r24, Y+3	; 0x03
    2898:	9c 81       	ldd	r25, Y+4	; 0x04
    289a:	ad 81       	ldd	r26, Y+5	; 0x05
    289c:	be 81       	ldd	r27, Y+6	; 0x06
    289e:	f9 01       	movw	r30, r18
    28a0:	84 87       	std	Z+12, r24	; 0x0c
    28a2:	95 87       	std	Z+13, r25	; 0x0d
    28a4:	a6 87       	std	Z+14, r26	; 0x0e
    28a6:	b7 87       	std	Z+15, r27	; 0x0f
    28a8:	26 96       	adiw	r28, 0x06	; 6
    28aa:	0f b6       	in	r0, 0x3f	; 63
    28ac:	f8 94       	cli
    28ae:	de bf       	out	0x3e, r29	; 62
    28b0:	0f be       	out	0x3f, r0	; 63
    28b2:	cd bf       	out	0x3d, r28	; 61
    28b4:	df 91       	pop	r29
    28b6:	cf 91       	pop	r28
    28b8:	08 95       	ret

000028ba <_ZN8odometer12updateSpeedsEv>:
    28ba:	af 92       	push	r10
    28bc:	bf 92       	push	r11
    28be:	cf 92       	push	r12
    28c0:	df 92       	push	r13
    28c2:	ef 92       	push	r14
    28c4:	ff 92       	push	r15
    28c6:	0f 93       	push	r16
    28c8:	1f 93       	push	r17
    28ca:	cf 93       	push	r28
    28cc:	df 93       	push	r29
    28ce:	00 d0       	rcall	.+0      	; 0x28d0 <_ZN8odometer12updateSpeedsEv+0x16>
    28d0:	00 d0       	rcall	.+0      	; 0x28d2 <_ZN8odometer12updateSpeedsEv+0x18>
    28d2:	cd b7       	in	r28, 0x3d	; 61
    28d4:	de b7       	in	r29, 0x3e	; 62
    28d6:	9e 83       	std	Y+6, r25	; 0x06
    28d8:	8d 83       	std	Y+5, r24	; 0x05
    28da:	1c 82       	std	Y+4, r1	; 0x04
    28dc:	1b 82       	std	Y+3, r1	; 0x03
    28de:	17 c0       	rjmp	.+46     	; 0x290e <_ZN8odometer12updateSpeedsEv+0x54>
    28e0:	8b 81       	ldd	r24, Y+3	; 0x03
    28e2:	9c 81       	ldd	r25, Y+4	; 0x04
    28e4:	2d 81       	ldd	r18, Y+5	; 0x05
    28e6:	3e 81       	ldd	r19, Y+6	; 0x06
    28e8:	0d 96       	adiw	r24, 0x0d	; 13
    28ea:	88 0f       	add	r24, r24
    28ec:	99 1f       	adc	r25, r25
    28ee:	82 0f       	add	r24, r18
    28f0:	93 1f       	adc	r25, r19
    28f2:	fc 01       	movw	r30, r24
    28f4:	80 81       	ld	r24, Z
    28f6:	91 81       	ldd	r25, Z+1	; 0x01
    28f8:	29 81       	ldd	r18, Y+1	; 0x01
    28fa:	3a 81       	ldd	r19, Y+2	; 0x02
    28fc:	82 0f       	add	r24, r18
    28fe:	93 1f       	adc	r25, r19
    2900:	9a 83       	std	Y+2, r25	; 0x02
    2902:	89 83       	std	Y+1, r24	; 0x01
    2904:	8b 81       	ldd	r24, Y+3	; 0x03
    2906:	9c 81       	ldd	r25, Y+4	; 0x04
    2908:	01 96       	adiw	r24, 0x01	; 1
    290a:	9c 83       	std	Y+4, r25	; 0x04
    290c:	8b 83       	std	Y+3, r24	; 0x03
    290e:	8b 81       	ldd	r24, Y+3	; 0x03
    2910:	9c 81       	ldd	r25, Y+4	; 0x04
    2912:	21 e0       	ldi	r18, 0x01	; 1
    2914:	8a 30       	cpi	r24, 0x0A	; 10
    2916:	91 05       	cpc	r25, r1
    2918:	0c f0       	brlt	.+2      	; 0x291c <_ZN8odometer12updateSpeedsEv+0x62>
    291a:	20 e0       	ldi	r18, 0x00	; 0
    291c:	22 23       	and	r18, r18
    291e:	01 f7       	brne	.-64     	; 0x28e0 <_ZN8odometer12updateSpeedsEv+0x26>
    2920:	8d 81       	ldd	r24, Y+5	; 0x05
    2922:	9e 81       	ldd	r25, Y+6	; 0x06
    2924:	fc 01       	movw	r30, r24
    2926:	84 85       	ldd	r24, Z+12	; 0x0c
    2928:	95 85       	ldd	r25, Z+13	; 0x0d
    292a:	a6 85       	ldd	r26, Z+14	; 0x0e
    292c:	b7 85       	ldd	r27, Z+15	; 0x0f
    292e:	bc 01       	movw	r22, r24
    2930:	cd 01       	movw	r24, r26
    2932:	20 e0       	ldi	r18, 0x00	; 0
    2934:	30 ea       	ldi	r19, 0xA0	; 160
    2936:	4c e0       	ldi	r20, 0x0C	; 12
    2938:	57 e4       	ldi	r21, 0x47	; 71
    293a:	0e 94 f8 22 	call	0x45f0	; 0x45f0 <__mulsf3>
    293e:	dc 01       	movw	r26, r24
    2940:	cb 01       	movw	r24, r22
    2942:	7c 01       	movw	r14, r24
    2944:	8d 01       	movw	r16, r26
    2946:	89 81       	ldd	r24, Y+1	; 0x01
    2948:	9a 81       	ldd	r25, Y+2	; 0x02
    294a:	cc 01       	movw	r24, r24
    294c:	a0 e0       	ldi	r26, 0x00	; 0
    294e:	b0 e0       	ldi	r27, 0x00	; 0
    2950:	bc 01       	movw	r22, r24
    2952:	cd 01       	movw	r24, r26
    2954:	0e 94 6a 22 	call	0x44d4	; 0x44d4 <__floatunsisf>
    2958:	dc 01       	movw	r26, r24
    295a:	cb 01       	movw	r24, r22
    295c:	bc 01       	movw	r22, r24
    295e:	cd 01       	movw	r24, r26
    2960:	2d eb       	ldi	r18, 0xBD	; 189
    2962:	37 e3       	ldi	r19, 0x37	; 55
    2964:	46 e0       	ldi	r20, 0x06	; 6
    2966:	58 e3       	ldi	r21, 0x38	; 56
    2968:	0e 94 f8 22 	call	0x45f0	; 0x45f0 <__mulsf3>
    296c:	dc 01       	movw	r26, r24
    296e:	cb 01       	movw	r24, r22
    2970:	9c 01       	movw	r18, r24
    2972:	ad 01       	movw	r20, r26
    2974:	c8 01       	movw	r24, r16
    2976:	b7 01       	movw	r22, r14
    2978:	0e 94 02 22 	call	0x4404	; 0x4404 <__divsf3>
    297c:	dc 01       	movw	r26, r24
    297e:	cb 01       	movw	r24, r22
    2980:	2d 81       	ldd	r18, Y+5	; 0x05
    2982:	3e 81       	ldd	r19, Y+6	; 0x06
    2984:	f9 01       	movw	r30, r18
    2986:	80 87       	std	Z+8, r24	; 0x08
    2988:	91 87       	std	Z+9, r25	; 0x09
    298a:	a2 87       	std	Z+10, r26	; 0x0a
    298c:	b3 87       	std	Z+11, r27	; 0x0b
    298e:	8d 81       	ldd	r24, Y+5	; 0x05
    2990:	9e 81       	ldd	r25, Y+6	; 0x06
    2992:	fc 01       	movw	r30, r24
    2994:	26 a5       	lds	r18, 0x66
    2996:	37 a5       	lds	r19, 0x67
    2998:	8d 81       	ldd	r24, Y+5	; 0x05
    299a:	9e 81       	ldd	r25, Y+6	; 0x06
    299c:	fc 01       	movw	r30, r24
    299e:	46 a5       	lds	r20, 0x66
    29a0:	57 a5       	lds	r21, 0x67
    29a2:	81 e0       	ldi	r24, 0x01	; 1
    29a4:	90 e0       	ldi	r25, 0x00	; 0
    29a6:	ba 01       	movw	r22, r20
    29a8:	0e 94 5b 23 	call	0x46b6	; 0x46b6 <__udivmodhi4>
    29ac:	ab 01       	movw	r20, r22
    29ae:	ca 01       	movw	r24, r20
    29b0:	a9 01       	movw	r20, r18
    29b2:	48 1b       	sub	r20, r24
    29b4:	59 0b       	sbc	r21, r25
    29b6:	ca 01       	movw	r24, r20
    29b8:	cc 01       	movw	r24, r24
    29ba:	a0 e0       	ldi	r26, 0x00	; 0
    29bc:	b0 e0       	ldi	r27, 0x00	; 0
    29be:	bc 01       	movw	r22, r24
    29c0:	cd 01       	movw	r24, r26
    29c2:	0e 94 6a 22 	call	0x44d4	; 0x44d4 <__floatunsisf>
    29c6:	dc 01       	movw	r26, r24
    29c8:	cb 01       	movw	r24, r22
    29ca:	2d 81       	ldd	r18, Y+5	; 0x05
    29cc:	3e 81       	ldd	r19, Y+6	; 0x06
    29ce:	f9 01       	movw	r30, r18
    29d0:	80 8b       	std	Z+16, r24	; 0x10
    29d2:	91 8b       	std	Z+17, r25	; 0x11
    29d4:	a2 8b       	std	Z+18, r26	; 0x12
    29d6:	b3 8b       	std	Z+19, r27	; 0x13
    29d8:	8d 81       	ldd	r24, Y+5	; 0x05
    29da:	9e 81       	ldd	r25, Y+6	; 0x06
    29dc:	fc 01       	movw	r30, r24
    29de:	80 81       	ld	r24, Z
    29e0:	91 81       	ldd	r25, Z+1	; 0x01
    29e2:	a2 81       	ldd	r26, Z+2	; 0x02
    29e4:	b3 81       	ldd	r27, Z+3	; 0x03
    29e6:	2d 81       	ldd	r18, Y+5	; 0x05
    29e8:	3e 81       	ldd	r19, Y+6	; 0x06
    29ea:	f9 01       	movw	r30, r18
    29ec:	20 89       	ldd	r18, Z+16	; 0x10
    29ee:	31 89       	ldd	r19, Z+17	; 0x11
    29f0:	42 89       	ldd	r20, Z+18	; 0x12
    29f2:	53 89       	ldd	r21, Z+19	; 0x13
    29f4:	bc 01       	movw	r22, r24
    29f6:	cd 01       	movw	r24, r26
    29f8:	0e 94 f8 22 	call	0x45f0	; 0x45f0 <__mulsf3>
    29fc:	dc 01       	movw	r26, r24
    29fe:	cb 01       	movw	r24, r22
    2a00:	7c 01       	movw	r14, r24
    2a02:	8d 01       	movw	r16, r26
    2a04:	8d 81       	ldd	r24, Y+5	; 0x05
    2a06:	9e 81       	ldd	r25, Y+6	; 0x06
    2a08:	fc 01       	movw	r30, r24
    2a0a:	a0 84       	ldd	r10, Z+8	; 0x08
    2a0c:	b1 84       	ldd	r11, Z+9	; 0x09
    2a0e:	c2 84       	ldd	r12, Z+10	; 0x0a
    2a10:	d3 84       	ldd	r13, Z+11	; 0x0b
    2a12:	8d 81       	ldd	r24, Y+5	; 0x05
    2a14:	9e 81       	ldd	r25, Y+6	; 0x06
    2a16:	fc 01       	movw	r30, r24
    2a18:	86 a5       	lds	r24, 0x66
    2a1a:	97 a5       	lds	r25, 0x67
    2a1c:	cc 01       	movw	r24, r24
    2a1e:	a0 e0       	ldi	r26, 0x00	; 0
    2a20:	b0 e0       	ldi	r27, 0x00	; 0
    2a22:	bc 01       	movw	r22, r24
    2a24:	cd 01       	movw	r24, r26
    2a26:	0e 94 6a 22 	call	0x44d4	; 0x44d4 <__floatunsisf>
    2a2a:	9b 01       	movw	r18, r22
    2a2c:	ac 01       	movw	r20, r24
    2a2e:	c6 01       	movw	r24, r12
    2a30:	b5 01       	movw	r22, r10
    2a32:	0e 94 02 22 	call	0x4404	; 0x4404 <__divsf3>
    2a36:	dc 01       	movw	r26, r24
    2a38:	cb 01       	movw	r24, r22
    2a3a:	9c 01       	movw	r18, r24
    2a3c:	ad 01       	movw	r20, r26
    2a3e:	c8 01       	movw	r24, r16
    2a40:	b7 01       	movw	r22, r14
    2a42:	0e 94 9e 21 	call	0x433c	; 0x433c <__addsf3>
    2a46:	dc 01       	movw	r26, r24
    2a48:	cb 01       	movw	r24, r22
    2a4a:	2d 81       	ldd	r18, Y+5	; 0x05
    2a4c:	3e 81       	ldd	r19, Y+6	; 0x06
    2a4e:	f9 01       	movw	r30, r18
    2a50:	80 83       	st	Z, r24
    2a52:	91 83       	std	Z+1, r25	; 0x01
    2a54:	a2 83       	std	Z+2, r26	; 0x02
    2a56:	b3 83       	std	Z+3, r27	; 0x03
    2a58:	26 96       	adiw	r28, 0x06	; 6
    2a5a:	0f b6       	in	r0, 0x3f	; 63
    2a5c:	f8 94       	cli
    2a5e:	de bf       	out	0x3e, r29	; 62
    2a60:	0f be       	out	0x3f, r0	; 63
    2a62:	cd bf       	out	0x3d, r28	; 61
    2a64:	df 91       	pop	r29
    2a66:	cf 91       	pop	r28
    2a68:	1f 91       	pop	r17
    2a6a:	0f 91       	pop	r16
    2a6c:	ff 90       	pop	r15
    2a6e:	ef 90       	pop	r14
    2a70:	df 90       	pop	r13
    2a72:	cf 90       	pop	r12
    2a74:	bf 90       	pop	r11
    2a76:	af 90       	pop	r10
    2a78:	08 95       	ret

00002a7a <_ZN8odometer15getCurrentSpeedEv>:
    2a7a:	cf 93       	push	r28
    2a7c:	df 93       	push	r29
    2a7e:	0f 92       	push	r0
    2a80:	0f 92       	push	r0
    2a82:	cd b7       	in	r28, 0x3d	; 61
    2a84:	de b7       	in	r29, 0x3e	; 62
    2a86:	9a 83       	std	Y+2, r25	; 0x02
    2a88:	89 83       	std	Y+1, r24	; 0x01
    2a8a:	89 81       	ldd	r24, Y+1	; 0x01
    2a8c:	9a 81       	ldd	r25, Y+2	; 0x02
    2a8e:	fc 01       	movw	r30, r24
    2a90:	80 85       	ldd	r24, Z+8	; 0x08
    2a92:	91 85       	ldd	r25, Z+9	; 0x09
    2a94:	a2 85       	ldd	r26, Z+10	; 0x0a
    2a96:	b3 85       	ldd	r27, Z+11	; 0x0b
    2a98:	bc 01       	movw	r22, r24
    2a9a:	cd 01       	movw	r24, r26
    2a9c:	0f 90       	pop	r0
    2a9e:	0f 90       	pop	r0
    2aa0:	df 91       	pop	r29
    2aa2:	cf 91       	pop	r28
    2aa4:	08 95       	ret

00002aa6 <_ZN8odometer15getAverageSpeedEv>:
    2aa6:	cf 93       	push	r28
    2aa8:	df 93       	push	r29
    2aaa:	0f 92       	push	r0
    2aac:	0f 92       	push	r0
    2aae:	cd b7       	in	r28, 0x3d	; 61
    2ab0:	de b7       	in	r29, 0x3e	; 62
    2ab2:	9a 83       	std	Y+2, r25	; 0x02
    2ab4:	89 83       	std	Y+1, r24	; 0x01
    2ab6:	89 81       	ldd	r24, Y+1	; 0x01
    2ab8:	9a 81       	ldd	r25, Y+2	; 0x02
    2aba:	fc 01       	movw	r30, r24
    2abc:	80 81       	ld	r24, Z
    2abe:	91 81       	ldd	r25, Z+1	; 0x01
    2ac0:	a2 81       	ldd	r26, Z+2	; 0x02
    2ac2:	b3 81       	ldd	r27, Z+3	; 0x03
    2ac4:	bc 01       	movw	r22, r24
    2ac6:	cd 01       	movw	r24, r26
    2ac8:	0f 90       	pop	r0
    2aca:	0f 90       	pop	r0
    2acc:	df 91       	pop	r29
    2ace:	cf 91       	pop	r28
    2ad0:	08 95       	ret

00002ad2 <_ZN8odometer11getDistanceEv>:
    2ad2:	cf 93       	push	r28
    2ad4:	df 93       	push	r29
    2ad6:	0f 92       	push	r0
    2ad8:	0f 92       	push	r0
    2ada:	cd b7       	in	r28, 0x3d	; 61
    2adc:	de b7       	in	r29, 0x3e	; 62
    2ade:	9a 83       	std	Y+2, r25	; 0x02
    2ae0:	89 83       	std	Y+1, r24	; 0x01
    2ae2:	89 81       	ldd	r24, Y+1	; 0x01
    2ae4:	9a 81       	ldd	r25, Y+2	; 0x02
    2ae6:	fc 01       	movw	r30, r24
    2ae8:	84 81       	ldd	r24, Z+4	; 0x04
    2aea:	95 81       	ldd	r25, Z+5	; 0x05
    2aec:	a6 81       	ldd	r26, Z+6	; 0x06
    2aee:	b7 81       	ldd	r27, Z+7	; 0x07
    2af0:	bc 01       	movw	r22, r24
    2af2:	cd 01       	movw	r24, r26
    2af4:	0f 90       	pop	r0
    2af6:	0f 90       	pop	r0
    2af8:	df 91       	pop	r29
    2afa:	cf 91       	pop	r28
    2afc:	08 95       	ret

00002afe <_ZN8odometer12getWheelSizeEv>:
    2afe:	cf 93       	push	r28
    2b00:	df 93       	push	r29
    2b02:	0f 92       	push	r0
    2b04:	0f 92       	push	r0
    2b06:	cd b7       	in	r28, 0x3d	; 61
    2b08:	de b7       	in	r29, 0x3e	; 62
    2b0a:	9a 83       	std	Y+2, r25	; 0x02
    2b0c:	89 83       	std	Y+1, r24	; 0x01
    2b0e:	89 81       	ldd	r24, Y+1	; 0x01
    2b10:	9a 81       	ldd	r25, Y+2	; 0x02
    2b12:	fc 01       	movw	r30, r24
    2b14:	84 85       	ldd	r24, Z+12	; 0x0c
    2b16:	95 85       	ldd	r25, Z+13	; 0x0d
    2b18:	a6 85       	ldd	r26, Z+14	; 0x0e
    2b1a:	b7 85       	ldd	r27, Z+15	; 0x0f
    2b1c:	bc 01       	movw	r22, r24
    2b1e:	cd 01       	movw	r24, r26
    2b20:	0f 90       	pop	r0
    2b22:	0f 90       	pop	r0
    2b24:	df 91       	pop	r29
    2b26:	cf 91       	pop	r28
    2b28:	08 95       	ret

00002b2a <_ZN8odometer14getSpeedPointsEv>:
    2b2a:	cf 93       	push	r28
    2b2c:	df 93       	push	r29
    2b2e:	0f 92       	push	r0
    2b30:	0f 92       	push	r0
    2b32:	cd b7       	in	r28, 0x3d	; 61
    2b34:	de b7       	in	r29, 0x3e	; 62
    2b36:	9a 83       	std	Y+2, r25	; 0x02
    2b38:	89 83       	std	Y+1, r24	; 0x01
    2b3a:	89 81       	ldd	r24, Y+1	; 0x01
    2b3c:	9a 81       	ldd	r25, Y+2	; 0x02
    2b3e:	fc 01       	movw	r30, r24
    2b40:	86 a5       	lds	r24, 0x66
    2b42:	97 a5       	lds	r25, 0x67
    2b44:	0f 90       	pop	r0
    2b46:	0f 90       	pop	r0
    2b48:	df 91       	pop	r29
    2b4a:	cf 91       	pop	r28
    2b4c:	08 95       	ret

00002b4e <_ZN8odometer12getTotalTimeEjj>:
    2b4e:	cf 93       	push	r28
    2b50:	df 93       	push	r29
    2b52:	00 d0       	rcall	.+0      	; 0x2b54 <_ZN8odometer12getTotalTimeEjj+0x6>
    2b54:	00 d0       	rcall	.+0      	; 0x2b56 <_ZN8odometer12getTotalTimeEjj+0x8>
    2b56:	cd b7       	in	r28, 0x3d	; 61
    2b58:	de b7       	in	r29, 0x3e	; 62
    2b5a:	9a 83       	std	Y+2, r25	; 0x02
    2b5c:	89 83       	std	Y+1, r24	; 0x01
    2b5e:	7c 83       	std	Y+4, r23	; 0x04
    2b60:	6b 83       	std	Y+3, r22	; 0x03
    2b62:	5e 83       	std	Y+6, r21	; 0x06
    2b64:	4d 83       	std	Y+5, r20	; 0x05
    2b66:	89 81       	ldd	r24, Y+1	; 0x01
    2b68:	9a 81       	ldd	r25, Y+2	; 0x02
    2b6a:	fc 01       	movw	r30, r24
    2b6c:	80 8d       	ldd	r24, Z+24	; 0x18
    2b6e:	91 8d       	ldd	r25, Z+25	; 0x19
    2b70:	26 96       	adiw	r28, 0x06	; 6
    2b72:	0f b6       	in	r0, 0x3f	; 63
    2b74:	f8 94       	cli
    2b76:	de bf       	out	0x3e, r29	; 62
    2b78:	0f be       	out	0x3f, r0	; 63
    2b7a:	cd bf       	out	0x3d, r28	; 61
    2b7c:	df 91       	pop	r29
    2b7e:	cf 91       	pop	r28
    2b80:	08 95       	ret

00002b82 <_ZN12heartMonitorC1Ev>:
    2b82:	cf 93       	push	r28
    2b84:	df 93       	push	r29
    2b86:	0f 92       	push	r0
    2b88:	0f 92       	push	r0
    2b8a:	cd b7       	in	r28, 0x3d	; 61
    2b8c:	de b7       	in	r29, 0x3e	; 62
    2b8e:	9a 83       	std	Y+2, r25	; 0x02
    2b90:	89 83       	std	Y+1, r24	; 0x01
    2b92:	89 81       	ldd	r24, Y+1	; 0x01
    2b94:	9a 81       	ldd	r25, Y+2	; 0x02
    2b96:	0e 94 d2 15 	call	0x2ba4	; 0x2ba4 <_ZN12heartMonitor11hardResetHREv>
    2b9a:	0f 90       	pop	r0
    2b9c:	0f 90       	pop	r0
    2b9e:	df 91       	pop	r29
    2ba0:	cf 91       	pop	r28
    2ba2:	08 95       	ret

00002ba4 <_ZN12heartMonitor11hardResetHREv>:
    2ba4:	cf 93       	push	r28
    2ba6:	df 93       	push	r29
    2ba8:	0f 92       	push	r0
    2baa:	0f 92       	push	r0
    2bac:	cd b7       	in	r28, 0x3d	; 61
    2bae:	de b7       	in	r29, 0x3e	; 62
    2bb0:	9a 83       	std	Y+2, r25	; 0x02
    2bb2:	89 83       	std	Y+1, r24	; 0x01
    2bb4:	29 81       	ldd	r18, Y+1	; 0x01
    2bb6:	3a 81       	ldd	r19, Y+2	; 0x02
    2bb8:	80 e0       	ldi	r24, 0x00	; 0
    2bba:	90 e0       	ldi	r25, 0x00	; 0
    2bbc:	dc 01       	movw	r26, r24
    2bbe:	f9 01       	movw	r30, r18
    2bc0:	84 83       	std	Z+4, r24	; 0x04
    2bc2:	95 83       	std	Z+5, r25	; 0x05
    2bc4:	a6 83       	std	Z+6, r26	; 0x06
    2bc6:	b7 83       	std	Z+7, r27	; 0x07
    2bc8:	89 81       	ldd	r24, Y+1	; 0x01
    2bca:	9a 81       	ldd	r25, Y+2	; 0x02
    2bcc:	fc 01       	movw	r30, r24
    2bce:	15 86       	std	Z+13, r1	; 0x0d
    2bd0:	14 86       	std	Z+12, r1	; 0x0c
    2bd2:	29 81       	ldd	r18, Y+1	; 0x01
    2bd4:	3a 81       	ldd	r19, Y+2	; 0x02
    2bd6:	80 e0       	ldi	r24, 0x00	; 0
    2bd8:	90 e0       	ldi	r25, 0x00	; 0
    2bda:	dc 01       	movw	r26, r24
    2bdc:	f9 01       	movw	r30, r18
    2bde:	80 83       	st	Z, r24
    2be0:	91 83       	std	Z+1, r25	; 0x01
    2be2:	a2 83       	std	Z+2, r26	; 0x02
    2be4:	b3 83       	std	Z+3, r27	; 0x03
    2be6:	89 81       	ldd	r24, Y+1	; 0x01
    2be8:	9a 81       	ldd	r25, Y+2	; 0x02
    2bea:	fc 01       	movw	r30, r24
    2bec:	84 85       	ldd	r24, Z+12	; 0x0c
    2bee:	95 85       	ldd	r25, Z+13	; 0x0d
    2bf0:	01 97       	sbiw	r24, 0x01	; 1
    2bf2:	29 81       	ldd	r18, Y+1	; 0x01
    2bf4:	3a 81       	ldd	r19, Y+2	; 0x02
    2bf6:	f9 01       	movw	r30, r18
    2bf8:	24 85       	ldd	r18, Z+12	; 0x0c
    2bfa:	35 85       	ldd	r19, Z+13	; 0x0d
    2bfc:	b9 01       	movw	r22, r18
    2bfe:	0e 94 5b 23 	call	0x46b6	; 0x46b6 <__udivmodhi4>
    2c02:	9b 01       	movw	r18, r22
    2c04:	c9 01       	movw	r24, r18
    2c06:	cc 01       	movw	r24, r24
    2c08:	a0 e0       	ldi	r26, 0x00	; 0
    2c0a:	b0 e0       	ldi	r27, 0x00	; 0
    2c0c:	bc 01       	movw	r22, r24
    2c0e:	cd 01       	movw	r24, r26
    2c10:	0e 94 6a 22 	call	0x44d4	; 0x44d4 <__floatunsisf>
    2c14:	dc 01       	movw	r26, r24
    2c16:	cb 01       	movw	r24, r22
    2c18:	29 81       	ldd	r18, Y+1	; 0x01
    2c1a:	3a 81       	ldd	r19, Y+2	; 0x02
    2c1c:	f9 01       	movw	r30, r18
    2c1e:	80 87       	std	Z+8, r24	; 0x08
    2c20:	91 87       	std	Z+9, r25	; 0x09
    2c22:	a2 87       	std	Z+10, r26	; 0x0a
    2c24:	b3 87       	std	Z+11, r27	; 0x0b
    2c26:	0f 90       	pop	r0
    2c28:	0f 90       	pop	r0
    2c2a:	df 91       	pop	r29
    2c2c:	cf 91       	pop	r28
    2c2e:	08 95       	ret

00002c30 <_ZN12heartMonitor11softResetHREv>:
    2c30:	cf 93       	push	r28
    2c32:	df 93       	push	r29
    2c34:	0f 92       	push	r0
    2c36:	0f 92       	push	r0
    2c38:	cd b7       	in	r28, 0x3d	; 61
    2c3a:	de b7       	in	r29, 0x3e	; 62
    2c3c:	9a 83       	std	Y+2, r25	; 0x02
    2c3e:	89 83       	std	Y+1, r24	; 0x01
    2c40:	29 81       	ldd	r18, Y+1	; 0x01
    2c42:	3a 81       	ldd	r19, Y+2	; 0x02
    2c44:	80 e0       	ldi	r24, 0x00	; 0
    2c46:	90 e0       	ldi	r25, 0x00	; 0
    2c48:	dc 01       	movw	r26, r24
    2c4a:	f9 01       	movw	r30, r18
    2c4c:	84 83       	std	Z+4, r24	; 0x04
    2c4e:	95 83       	std	Z+5, r25	; 0x05
    2c50:	a6 83       	std	Z+6, r26	; 0x06
    2c52:	b7 83       	std	Z+7, r27	; 0x07
    2c54:	89 81       	ldd	r24, Y+1	; 0x01
    2c56:	9a 81       	ldd	r25, Y+2	; 0x02
    2c58:	fc 01       	movw	r30, r24
    2c5a:	84 85       	ldd	r24, Z+12	; 0x0c
    2c5c:	95 85       	ldd	r25, Z+13	; 0x0d
    2c5e:	01 97       	sbiw	r24, 0x01	; 1
    2c60:	29 81       	ldd	r18, Y+1	; 0x01
    2c62:	3a 81       	ldd	r19, Y+2	; 0x02
    2c64:	f9 01       	movw	r30, r18
    2c66:	24 85       	ldd	r18, Z+12	; 0x0c
    2c68:	35 85       	ldd	r19, Z+13	; 0x0d
    2c6a:	b9 01       	movw	r22, r18
    2c6c:	0e 94 5b 23 	call	0x46b6	; 0x46b6 <__udivmodhi4>
    2c70:	9b 01       	movw	r18, r22
    2c72:	c9 01       	movw	r24, r18
    2c74:	cc 01       	movw	r24, r24
    2c76:	a0 e0       	ldi	r26, 0x00	; 0
    2c78:	b0 e0       	ldi	r27, 0x00	; 0
    2c7a:	bc 01       	movw	r22, r24
    2c7c:	cd 01       	movw	r24, r26
    2c7e:	0e 94 6a 22 	call	0x44d4	; 0x44d4 <__floatunsisf>
    2c82:	dc 01       	movw	r26, r24
    2c84:	cb 01       	movw	r24, r22
    2c86:	29 81       	ldd	r18, Y+1	; 0x01
    2c88:	3a 81       	ldd	r19, Y+2	; 0x02
    2c8a:	f9 01       	movw	r30, r18
    2c8c:	80 87       	std	Z+8, r24	; 0x08
    2c8e:	91 87       	std	Z+9, r25	; 0x09
    2c90:	a2 87       	std	Z+10, r26	; 0x0a
    2c92:	b3 87       	std	Z+11, r27	; 0x0b
    2c94:	0f 90       	pop	r0
    2c96:	0f 90       	pop	r0
    2c98:	df 91       	pop	r29
    2c9a:	cf 91       	pop	r28
    2c9c:	08 95       	ret

00002c9e <_ZN12heartMonitor15setHeartMonitorEdj>:
    2c9e:	cf 93       	push	r28
    2ca0:	df 93       	push	r29
    2ca2:	cd b7       	in	r28, 0x3d	; 61
    2ca4:	de b7       	in	r29, 0x3e	; 62
    2ca6:	28 97       	sbiw	r28, 0x08	; 8
    2ca8:	0f b6       	in	r0, 0x3f	; 63
    2caa:	f8 94       	cli
    2cac:	de bf       	out	0x3e, r29	; 62
    2cae:	0f be       	out	0x3f, r0	; 63
    2cb0:	cd bf       	out	0x3d, r28	; 61
    2cb2:	9a 83       	std	Y+2, r25	; 0x02
    2cb4:	89 83       	std	Y+1, r24	; 0x01
    2cb6:	4b 83       	std	Y+3, r20	; 0x03
    2cb8:	5c 83       	std	Y+4, r21	; 0x04
    2cba:	6d 83       	std	Y+5, r22	; 0x05
    2cbc:	7e 83       	std	Y+6, r23	; 0x06
    2cbe:	38 87       	std	Y+8, r19	; 0x08
    2cc0:	2f 83       	std	Y+7, r18	; 0x07
    2cc2:	29 81       	ldd	r18, Y+1	; 0x01
    2cc4:	3a 81       	ldd	r19, Y+2	; 0x02
    2cc6:	8b 81       	ldd	r24, Y+3	; 0x03
    2cc8:	9c 81       	ldd	r25, Y+4	; 0x04
    2cca:	ad 81       	ldd	r26, Y+5	; 0x05
    2ccc:	be 81       	ldd	r27, Y+6	; 0x06
    2cce:	f9 01       	movw	r30, r18
    2cd0:	80 83       	st	Z, r24
    2cd2:	91 83       	std	Z+1, r25	; 0x01
    2cd4:	a2 83       	std	Z+2, r26	; 0x02
    2cd6:	b3 83       	std	Z+3, r27	; 0x03
    2cd8:	89 81       	ldd	r24, Y+1	; 0x01
    2cda:	9a 81       	ldd	r25, Y+2	; 0x02
    2cdc:	2f 81       	ldd	r18, Y+7	; 0x07
    2cde:	38 85       	ldd	r19, Y+8	; 0x08
    2ce0:	fc 01       	movw	r30, r24
    2ce2:	35 87       	std	Z+13, r19	; 0x0d
    2ce4:	24 87       	std	Z+12, r18	; 0x0c
    2ce6:	89 81       	ldd	r24, Y+1	; 0x01
    2ce8:	9a 81       	ldd	r25, Y+2	; 0x02
    2cea:	0e 94 18 16 	call	0x2c30	; 0x2c30 <_ZN12heartMonitor11softResetHREv>
    2cee:	28 96       	adiw	r28, 0x08	; 8
    2cf0:	0f b6       	in	r0, 0x3f	; 63
    2cf2:	f8 94       	cli
    2cf4:	de bf       	out	0x3e, r29	; 62
    2cf6:	0f be       	out	0x3f, r0	; 63
    2cf8:	cd bf       	out	0x3d, r28	; 61
    2cfa:	df 91       	pop	r29
    2cfc:	cf 91       	pop	r28
    2cfe:	08 95       	ret

00002d00 <_ZN12heartMonitor8setAveHREd>:
    2d00:	cf 93       	push	r28
    2d02:	df 93       	push	r29
    2d04:	00 d0       	rcall	.+0      	; 0x2d06 <_ZN12heartMonitor8setAveHREd+0x6>
    2d06:	00 d0       	rcall	.+0      	; 0x2d08 <_ZN12heartMonitor8setAveHREd+0x8>
    2d08:	cd b7       	in	r28, 0x3d	; 61
    2d0a:	de b7       	in	r29, 0x3e	; 62
    2d0c:	9a 83       	std	Y+2, r25	; 0x02
    2d0e:	89 83       	std	Y+1, r24	; 0x01
    2d10:	4b 83       	std	Y+3, r20	; 0x03
    2d12:	5c 83       	std	Y+4, r21	; 0x04
    2d14:	6d 83       	std	Y+5, r22	; 0x05
    2d16:	7e 83       	std	Y+6, r23	; 0x06
    2d18:	29 81       	ldd	r18, Y+1	; 0x01
    2d1a:	3a 81       	ldd	r19, Y+2	; 0x02
    2d1c:	8b 81       	ldd	r24, Y+3	; 0x03
    2d1e:	9c 81       	ldd	r25, Y+4	; 0x04
    2d20:	ad 81       	ldd	r26, Y+5	; 0x05
    2d22:	be 81       	ldd	r27, Y+6	; 0x06
    2d24:	f9 01       	movw	r30, r18
    2d26:	80 83       	st	Z, r24
    2d28:	91 83       	std	Z+1, r25	; 0x01
    2d2a:	a2 83       	std	Z+2, r26	; 0x02
    2d2c:	b3 83       	std	Z+3, r27	; 0x03
    2d2e:	26 96       	adiw	r28, 0x06	; 6
    2d30:	0f b6       	in	r0, 0x3f	; 63
    2d32:	f8 94       	cli
    2d34:	de bf       	out	0x3e, r29	; 62
    2d36:	0f be       	out	0x3f, r0	; 63
    2d38:	cd bf       	out	0x3d, r28	; 61
    2d3a:	df 91       	pop	r29
    2d3c:	cf 91       	pop	r28
    2d3e:	08 95       	ret

00002d40 <_ZN12heartMonitor14setNumReadingsEj>:
    2d40:	cf 93       	push	r28
    2d42:	df 93       	push	r29
    2d44:	00 d0       	rcall	.+0      	; 0x2d46 <_ZN12heartMonitor14setNumReadingsEj+0x6>
    2d46:	0f 92       	push	r0
    2d48:	cd b7       	in	r28, 0x3d	; 61
    2d4a:	de b7       	in	r29, 0x3e	; 62
    2d4c:	9a 83       	std	Y+2, r25	; 0x02
    2d4e:	89 83       	std	Y+1, r24	; 0x01
    2d50:	7c 83       	std	Y+4, r23	; 0x04
    2d52:	6b 83       	std	Y+3, r22	; 0x03
    2d54:	89 81       	ldd	r24, Y+1	; 0x01
    2d56:	9a 81       	ldd	r25, Y+2	; 0x02
    2d58:	2b 81       	ldd	r18, Y+3	; 0x03
    2d5a:	3c 81       	ldd	r19, Y+4	; 0x04
    2d5c:	fc 01       	movw	r30, r24
    2d5e:	35 87       	std	Z+13, r19	; 0x0d
    2d60:	24 87       	std	Z+12, r18	; 0x0c
    2d62:	0f 90       	pop	r0
    2d64:	0f 90       	pop	r0
    2d66:	0f 90       	pop	r0
    2d68:	0f 90       	pop	r0
    2d6a:	df 91       	pop	r29
    2d6c:	cf 91       	pop	r28
    2d6e:	08 95       	ret

00002d70 <_ZN12heartMonitor12getCurrentHREv>:
    2d70:	cf 93       	push	r28
    2d72:	df 93       	push	r29
    2d74:	0f 92       	push	r0
    2d76:	0f 92       	push	r0
    2d78:	cd b7       	in	r28, 0x3d	; 61
    2d7a:	de b7       	in	r29, 0x3e	; 62
    2d7c:	9a 83       	std	Y+2, r25	; 0x02
    2d7e:	89 83       	std	Y+1, r24	; 0x01
    2d80:	89 81       	ldd	r24, Y+1	; 0x01
    2d82:	9a 81       	ldd	r25, Y+2	; 0x02
    2d84:	fc 01       	movw	r30, r24
    2d86:	84 81       	ldd	r24, Z+4	; 0x04
    2d88:	95 81       	ldd	r25, Z+5	; 0x05
    2d8a:	a6 81       	ldd	r26, Z+6	; 0x06
    2d8c:	b7 81       	ldd	r27, Z+7	; 0x07
    2d8e:	bc 01       	movw	r22, r24
    2d90:	cd 01       	movw	r24, r26
    2d92:	0f 90       	pop	r0
    2d94:	0f 90       	pop	r0
    2d96:	df 91       	pop	r29
    2d98:	cf 91       	pop	r28
    2d9a:	08 95       	ret

00002d9c <_ZN12heartMonitor8getAveHREv>:
    2d9c:	cf 93       	push	r28
    2d9e:	df 93       	push	r29
    2da0:	0f 92       	push	r0
    2da2:	0f 92       	push	r0
    2da4:	cd b7       	in	r28, 0x3d	; 61
    2da6:	de b7       	in	r29, 0x3e	; 62
    2da8:	9a 83       	std	Y+2, r25	; 0x02
    2daa:	89 83       	std	Y+1, r24	; 0x01
    2dac:	89 81       	ldd	r24, Y+1	; 0x01
    2dae:	9a 81       	ldd	r25, Y+2	; 0x02
    2db0:	fc 01       	movw	r30, r24
    2db2:	80 81       	ld	r24, Z
    2db4:	91 81       	ldd	r25, Z+1	; 0x01
    2db6:	a2 81       	ldd	r26, Z+2	; 0x02
    2db8:	b3 81       	ldd	r27, Z+3	; 0x03
    2dba:	bc 01       	movw	r22, r24
    2dbc:	cd 01       	movw	r24, r26
    2dbe:	0f 90       	pop	r0
    2dc0:	0f 90       	pop	r0
    2dc2:	df 91       	pop	r29
    2dc4:	cf 91       	pop	r28
    2dc6:	08 95       	ret

00002dc8 <_ZN12heartMonitor14getNumReadingsEv>:
    2dc8:	cf 93       	push	r28
    2dca:	df 93       	push	r29
    2dcc:	0f 92       	push	r0
    2dce:	0f 92       	push	r0
    2dd0:	cd b7       	in	r28, 0x3d	; 61
    2dd2:	de b7       	in	r29, 0x3e	; 62
    2dd4:	9a 83       	std	Y+2, r25	; 0x02
    2dd6:	89 83       	std	Y+1, r24	; 0x01
    2dd8:	89 81       	ldd	r24, Y+1	; 0x01
    2dda:	9a 81       	ldd	r25, Y+2	; 0x02
    2ddc:	fc 01       	movw	r30, r24
    2dde:	84 85       	ldd	r24, Z+12	; 0x0c
    2de0:	95 85       	ldd	r25, Z+13	; 0x0d
    2de2:	0f 90       	pop	r0
    2de4:	0f 90       	pop	r0
    2de6:	df 91       	pop	r29
    2de8:	cf 91       	pop	r28
    2dea:	08 95       	ret

00002dec <_ZN12heartMonitor11calculateHREPji>:
    2dec:	cf 93       	push	r28
    2dee:	df 93       	push	r29
    2df0:	cd b7       	in	r28, 0x3d	; 61
    2df2:	de b7       	in	r29, 0x3e	; 62
    2df4:	a9 97       	sbiw	r28, 0x29	; 41
    2df6:	0f b6       	in	r0, 0x3f	; 63
    2df8:	f8 94       	cli
    2dfa:	de bf       	out	0x3e, r29	; 62
    2dfc:	0f be       	out	0x3f, r0	; 63
    2dfe:	cd bf       	out	0x3d, r28	; 61
    2e00:	9d a3       	lds	r25, 0x5d
    2e02:	8c a3       	lds	r24, 0x5c
    2e04:	7f a3       	lds	r23, 0x5f
    2e06:	6e a3       	lds	r22, 0x5e
    2e08:	59 a7       	lds	r21, 0x79
    2e0a:	48 a7       	lds	r20, 0x78
    2e0c:	1a 8a       	std	Y+18, r1	; 0x12
    2e0e:	19 8a       	std	Y+17, r1	; 0x11
    2e10:	1c 8a       	std	Y+20, r1	; 0x14
    2e12:	1b 8a       	std	Y+19, r1	; 0x13
    2e14:	1d 8a       	std	Y+21, r1	; 0x15
    2e16:	1e 8a       	std	Y+22, r1	; 0x16
    2e18:	1a 82       	std	Y+2, r1	; 0x02
    2e1a:	19 82       	std	Y+1, r1	; 0x01
    2e1c:	68 c0       	rjmp	.+208    	; 0x2eee <_ZN12heartMonitor11calculateHREPji+0x102>
    2e1e:	89 81       	ldd	r24, Y+1	; 0x01
    2e20:	9a 81       	ldd	r25, Y+2	; 0x02
    2e22:	88 0f       	add	r24, r24
    2e24:	99 1f       	adc	r25, r25
    2e26:	2e a1       	lds	r18, 0x4e
    2e28:	3f a1       	lds	r19, 0x4f
    2e2a:	82 0f       	add	r24, r18
    2e2c:	93 1f       	adc	r25, r19
    2e2e:	fc 01       	movw	r30, r24
    2e30:	20 81       	ld	r18, Z
    2e32:	31 81       	ldd	r19, Z+1	; 0x01
    2e34:	89 89       	ldd	r24, Y+17	; 0x11
    2e36:	9a 89       	ldd	r25, Y+18	; 0x12
    2e38:	41 e0       	ldi	r20, 0x01	; 1
    2e3a:	82 17       	cp	r24, r18
    2e3c:	93 07       	cpc	r25, r19
    2e3e:	08 f0       	brcs	.+2      	; 0x2e42 <_ZN12heartMonitor11calculateHREPji+0x56>
    2e40:	40 e0       	ldi	r20, 0x00	; 0
    2e42:	44 23       	and	r20, r20
    2e44:	79 f0       	breq	.+30     	; 0x2e64 <_ZN12heartMonitor11calculateHREPji+0x78>
    2e46:	89 81       	ldd	r24, Y+1	; 0x01
    2e48:	9a 81       	ldd	r25, Y+2	; 0x02
    2e4a:	88 0f       	add	r24, r24
    2e4c:	99 1f       	adc	r25, r25
    2e4e:	2e a1       	lds	r18, 0x4e
    2e50:	3f a1       	lds	r19, 0x4f
    2e52:	82 0f       	add	r24, r18
    2e54:	93 1f       	adc	r25, r19
    2e56:	fc 01       	movw	r30, r24
    2e58:	80 81       	ld	r24, Z
    2e5a:	91 81       	ldd	r25, Z+1	; 0x01
    2e5c:	9a 8b       	std	Y+18, r25	; 0x12
    2e5e:	89 8b       	std	Y+17, r24	; 0x11
    2e60:	89 81       	ldd	r24, Y+1	; 0x01
    2e62:	8d 8b       	std	Y+21, r24	; 0x15
    2e64:	88 a5       	lds	r24, 0x68
    2e66:	99 a5       	lds	r25, 0x69
    2e68:	99 23       	and	r25, r25
    2e6a:	0c f4       	brge	.+2      	; 0x2e6e <_ZN12heartMonitor11calculateHREPji+0x82>
    2e6c:	01 96       	adiw	r24, 0x01	; 1
    2e6e:	95 95       	asr	r25
    2e70:	87 95       	ror	r24
    2e72:	9c 01       	movw	r18, r24
    2e74:	89 81       	ldd	r24, Y+1	; 0x01
    2e76:	9a 81       	ldd	r25, Y+2	; 0x02
    2e78:	82 0f       	add	r24, r18
    2e7a:	93 1f       	adc	r25, r19
    2e7c:	88 0f       	add	r24, r24
    2e7e:	99 1f       	adc	r25, r25
    2e80:	2e a1       	lds	r18, 0x4e
    2e82:	3f a1       	lds	r19, 0x4f
    2e84:	82 0f       	add	r24, r18
    2e86:	93 1f       	adc	r25, r19
    2e88:	fc 01       	movw	r30, r24
    2e8a:	20 81       	ld	r18, Z
    2e8c:	31 81       	ldd	r19, Z+1	; 0x01
    2e8e:	8b 89       	ldd	r24, Y+19	; 0x13
    2e90:	9c 89       	ldd	r25, Y+20	; 0x14
    2e92:	41 e0       	ldi	r20, 0x01	; 1
    2e94:	82 17       	cp	r24, r18
    2e96:	93 07       	cpc	r25, r19
    2e98:	08 f0       	brcs	.+2      	; 0x2e9c <_ZN12heartMonitor11calculateHREPji+0xb0>
    2e9a:	40 e0       	ldi	r20, 0x00	; 0
    2e9c:	44 23       	and	r20, r20
    2e9e:	11 f1       	breq	.+68     	; 0x2ee4 <_ZN12heartMonitor11calculateHREPji+0xf8>
    2ea0:	88 a5       	lds	r24, 0x68
    2ea2:	99 a5       	lds	r25, 0x69
    2ea4:	99 23       	and	r25, r25
    2ea6:	0c f4       	brge	.+2      	; 0x2eaa <_ZN12heartMonitor11calculateHREPji+0xbe>
    2ea8:	01 96       	adiw	r24, 0x01	; 1
    2eaa:	95 95       	asr	r25
    2eac:	87 95       	ror	r24
    2eae:	9c 01       	movw	r18, r24
    2eb0:	89 81       	ldd	r24, Y+1	; 0x01
    2eb2:	9a 81       	ldd	r25, Y+2	; 0x02
    2eb4:	82 0f       	add	r24, r18
    2eb6:	93 1f       	adc	r25, r19
    2eb8:	88 0f       	add	r24, r24
    2eba:	99 1f       	adc	r25, r25
    2ebc:	2e a1       	lds	r18, 0x4e
    2ebe:	3f a1       	lds	r19, 0x4f
    2ec0:	82 0f       	add	r24, r18
    2ec2:	93 1f       	adc	r25, r19
    2ec4:	fc 01       	movw	r30, r24
    2ec6:	80 81       	ld	r24, Z
    2ec8:	91 81       	ldd	r25, Z+1	; 0x01
    2eca:	9c 8b       	std	Y+20, r25	; 0x14
    2ecc:	8b 8b       	std	Y+19, r24	; 0x13
    2ece:	88 a5       	lds	r24, 0x68
    2ed0:	99 a5       	lds	r25, 0x69
    2ed2:	99 23       	and	r25, r25
    2ed4:	0c f4       	brge	.+2      	; 0x2ed8 <_ZN12heartMonitor11calculateHREPji+0xec>
    2ed6:	01 96       	adiw	r24, 0x01	; 1
    2ed8:	95 95       	asr	r25
    2eda:	87 95       	ror	r24
    2edc:	98 2f       	mov	r25, r24
    2ede:	89 81       	ldd	r24, Y+1	; 0x01
    2ee0:	89 0f       	add	r24, r25
    2ee2:	8e 8b       	std	Y+22, r24	; 0x16
    2ee4:	89 81       	ldd	r24, Y+1	; 0x01
    2ee6:	9a 81       	ldd	r25, Y+2	; 0x02
    2ee8:	01 96       	adiw	r24, 0x01	; 1
    2eea:	9a 83       	std	Y+2, r25	; 0x02
    2eec:	89 83       	std	Y+1, r24	; 0x01
    2eee:	88 a5       	lds	r24, 0x68
    2ef0:	99 a5       	lds	r25, 0x69
    2ef2:	99 23       	and	r25, r25
    2ef4:	0c f4       	brge	.+2      	; 0x2ef8 <_ZN12heartMonitor11calculateHREPji+0x10c>
    2ef6:	01 96       	adiw	r24, 0x01	; 1
    2ef8:	95 95       	asr	r25
    2efa:	87 95       	ror	r24
    2efc:	9c 01       	movw	r18, r24
    2efe:	41 e0       	ldi	r20, 0x01	; 1
    2f00:	89 81       	ldd	r24, Y+1	; 0x01
    2f02:	9a 81       	ldd	r25, Y+2	; 0x02
    2f04:	82 17       	cp	r24, r18
    2f06:	93 07       	cpc	r25, r19
    2f08:	0c f0       	brlt	.+2      	; 0x2f0c <_ZN12heartMonitor11calculateHREPji+0x120>
    2f0a:	40 e0       	ldi	r20, 0x00	; 0
    2f0c:	44 23       	and	r20, r20
    2f0e:	09 f0       	breq	.+2      	; 0x2f12 <_ZN12heartMonitor11calculateHREPji+0x126>
    2f10:	86 cf       	rjmp	.-244    	; 0x2e1e <_ZN12heartMonitor11calculateHREPji+0x32>
    2f12:	29 89       	ldd	r18, Y+17	; 0x11
    2f14:	3a 89       	ldd	r19, Y+18	; 0x12
    2f16:	8b 89       	ldd	r24, Y+19	; 0x13
    2f18:	9c 89       	ldd	r25, Y+20	; 0x14
    2f1a:	28 17       	cp	r18, r24
    2f1c:	39 07       	cpc	r19, r25
    2f1e:	18 f0       	brcs	.+6      	; 0x2f26 <_ZN12heartMonitor11calculateHREPji+0x13a>
    2f20:	89 89       	ldd	r24, Y+17	; 0x11
    2f22:	9a 89       	ldd	r25, Y+18	; 0x12
    2f24:	02 c0       	rjmp	.+4      	; 0x2f2a <_ZN12heartMonitor11calculateHREPji+0x13e>
    2f26:	8b 89       	ldd	r24, Y+19	; 0x13
    2f28:	9c 89       	ldd	r25, Y+20	; 0x14
    2f2a:	98 8b       	std	Y+16, r25	; 0x10
    2f2c:	8f 87       	std	Y+15, r24	; 0x0f
    2f2e:	29 89       	ldd	r18, Y+17	; 0x11
    2f30:	3a 89       	ldd	r19, Y+18	; 0x12
    2f32:	8b 89       	ldd	r24, Y+19	; 0x13
    2f34:	9c 89       	ldd	r25, Y+20	; 0x14
    2f36:	28 17       	cp	r18, r24
    2f38:	39 07       	cpc	r19, r25
    2f3a:	10 f0       	brcs	.+4      	; 0x2f40 <_ZN12heartMonitor11calculateHREPji+0x154>
    2f3c:	8d 89       	ldd	r24, Y+21	; 0x15
    2f3e:	01 c0       	rjmp	.+2      	; 0x2f42 <_ZN12heartMonitor11calculateHREPji+0x156>
    2f40:	8e 89       	ldd	r24, Y+22	; 0x16
    2f42:	8d 8b       	std	Y+21, r24	; 0x15
    2f44:	18 8e       	std	Y+24, r1	; 0x18
    2f46:	1f 8a       	std	Y+23, r1	; 0x17
    2f48:	1a 8e       	std	Y+26, r1	; 0x1a
    2f4a:	19 8e       	std	Y+25, r1	; 0x19
    2f4c:	1b 8e       	std	Y+27, r1	; 0x1b
    2f4e:	1c 8e       	std	Y+28, r1	; 0x1c
    2f50:	1d 8e       	std	Y+29, r1	; 0x1d
    2f52:	1f 8e       	std	Y+31, r1	; 0x1f
    2f54:	1e 8e       	std	Y+30, r1	; 0x1e
    2f56:	8d 89       	ldd	r24, Y+21	; 0x15
    2f58:	28 2f       	mov	r18, r24
    2f5a:	30 e0       	ldi	r19, 0x00	; 0
    2f5c:	88 a5       	lds	r24, 0x68
    2f5e:	99 a5       	lds	r25, 0x69
    2f60:	99 23       	and	r25, r25
    2f62:	0c f4       	brge	.+2      	; 0x2f66 <_ZN12heartMonitor11calculateHREPji+0x17a>
    2f64:	01 96       	adiw	r24, 0x01	; 1
    2f66:	95 95       	asr	r25
    2f68:	87 95       	ror	r24
    2f6a:	41 e0       	ldi	r20, 0x01	; 1
    2f6c:	28 17       	cp	r18, r24
    2f6e:	39 07       	cpc	r19, r25
    2f70:	0c f0       	brlt	.+2      	; 0x2f74 <_ZN12heartMonitor11calculateHREPji+0x188>
    2f72:	40 e0       	ldi	r20, 0x00	; 0
    2f74:	44 23       	and	r20, r20
    2f76:	09 f4       	brne	.+2      	; 0x2f7a <_ZN12heartMonitor11calculateHREPji+0x18e>
    2f78:	e3 c0       	rjmp	.+454    	; 0x3140 <_ZN12heartMonitor11calculateHREPji+0x354>
    2f7a:	8d 89       	ldd	r24, Y+21	; 0x15
    2f7c:	88 2f       	mov	r24, r24
    2f7e:	90 e0       	ldi	r25, 0x00	; 0
    2f80:	0f 96       	adiw	r24, 0x0f	; 15
    2f82:	9f 8f       	std	Y+31, r25	; 0x1f
    2f84:	8e 8f       	std	Y+30, r24	; 0x1e
    2f86:	8e 8d       	ldd	r24, Y+30	; 0x1e
    2f88:	9f 8d       	ldd	r25, Y+31	; 0x1f
    2f8a:	9c 83       	std	Y+4, r25	; 0x04
    2f8c:	8b 83       	std	Y+3, r24	; 0x03
    2f8e:	cb c0       	rjmp	.+406    	; 0x3126 <_ZN12heartMonitor11calculateHREPji+0x33a>
    2f90:	8b 81       	ldd	r24, Y+3	; 0x03
    2f92:	9c 81       	ldd	r25, Y+4	; 0x04
    2f94:	88 0f       	add	r24, r24
    2f96:	99 1f       	adc	r25, r25
    2f98:	2e a1       	lds	r18, 0x4e
    2f9a:	3f a1       	lds	r19, 0x4f
    2f9c:	82 0f       	add	r24, r18
    2f9e:	93 1f       	adc	r25, r19
    2fa0:	fc 01       	movw	r30, r24
    2fa2:	80 81       	ld	r24, Z
    2fa4:	91 81       	ldd	r25, Z+1	; 0x01
    2fa6:	98 8f       	std	Y+24, r25	; 0x18
    2fa8:	8f 8b       	std	Y+23, r24	; 0x17
    2faa:	8b 81       	ldd	r24, Y+3	; 0x03
    2fac:	9c 81       	ldd	r25, Y+4	; 0x04
    2fae:	9e 83       	std	Y+6, r25	; 0x06
    2fb0:	8d 83       	std	Y+5, r24	; 0x05
    2fb2:	2a c0       	rjmp	.+84     	; 0x3008 <_ZN12heartMonitor11calculateHREPji+0x21c>
    2fb4:	8d 81       	ldd	r24, Y+5	; 0x05
    2fb6:	9e 81       	ldd	r25, Y+6	; 0x06
    2fb8:	88 0f       	add	r24, r24
    2fba:	99 1f       	adc	r25, r25
    2fbc:	2e a1       	lds	r18, 0x4e
    2fbe:	3f a1       	lds	r19, 0x4f
    2fc0:	82 0f       	add	r24, r18
    2fc2:	93 1f       	adc	r25, r19
    2fc4:	fc 01       	movw	r30, r24
    2fc6:	20 81       	ld	r18, Z
    2fc8:	31 81       	ldd	r19, Z+1	; 0x01
    2fca:	8f 89       	ldd	r24, Y+23	; 0x17
    2fcc:	98 8d       	ldd	r25, Y+24	; 0x18
    2fce:	41 e0       	ldi	r20, 0x01	; 1
    2fd0:	28 17       	cp	r18, r24
    2fd2:	39 07       	cpc	r19, r25
    2fd4:	08 f4       	brcc	.+2      	; 0x2fd8 <_ZN12heartMonitor11calculateHREPji+0x1ec>
    2fd6:	40 e0       	ldi	r20, 0x00	; 0
    2fd8:	44 23       	and	r20, r20
    2fda:	89 f0       	breq	.+34     	; 0x2ffe <_ZN12heartMonitor11calculateHREPji+0x212>
    2fdc:	8d 81       	ldd	r24, Y+5	; 0x05
    2fde:	9e 81       	ldd	r25, Y+6	; 0x06
    2fe0:	88 0f       	add	r24, r24
    2fe2:	99 1f       	adc	r25, r25
    2fe4:	2e a1       	lds	r18, 0x4e
    2fe6:	3f a1       	lds	r19, 0x4f
    2fe8:	82 0f       	add	r24, r18
    2fea:	93 1f       	adc	r25, r19
    2fec:	2f 89       	ldd	r18, Y+23	; 0x17
    2fee:	38 8d       	ldd	r19, Y+24	; 0x18
    2ff0:	fc 01       	movw	r30, r24
    2ff2:	31 83       	std	Z+1, r19	; 0x01
    2ff4:	20 83       	st	Z, r18
    2ff6:	8d 81       	ldd	r24, Y+5	; 0x05
    2ff8:	9e 81       	ldd	r25, Y+6	; 0x06
    2ffa:	9a 8f       	std	Y+26, r25	; 0x1a
    2ffc:	89 8f       	std	Y+25, r24	; 0x19
    2ffe:	8d 81       	ldd	r24, Y+5	; 0x05
    3000:	9e 81       	ldd	r25, Y+6	; 0x06
    3002:	01 96       	adiw	r24, 0x01	; 1
    3004:	9e 83       	std	Y+6, r25	; 0x06
    3006:	8d 83       	std	Y+5, r24	; 0x05
    3008:	8b 81       	ldd	r24, Y+3	; 0x03
    300a:	9c 81       	ldd	r25, Y+4	; 0x04
    300c:	9c 01       	movw	r18, r24
    300e:	22 5e       	subi	r18, 0xE2	; 226
    3010:	3f 4f       	sbci	r19, 0xFF	; 255
    3012:	41 e0       	ldi	r20, 0x01	; 1
    3014:	8d 81       	ldd	r24, Y+5	; 0x05
    3016:	9e 81       	ldd	r25, Y+6	; 0x06
    3018:	82 17       	cp	r24, r18
    301a:	93 07       	cpc	r25, r19
    301c:	0c f0       	brlt	.+2      	; 0x3020 <_ZN12heartMonitor11calculateHREPji+0x234>
    301e:	40 e0       	ldi	r20, 0x00	; 0
    3020:	44 23       	and	r20, r20
    3022:	41 f6       	brne	.-112    	; 0x2fb4 <_ZN12heartMonitor11calculateHREPji+0x1c8>
    3024:	89 8d       	ldd	r24, Y+25	; 0x19
    3026:	9a 8d       	ldd	r25, Y+26	; 0x1a
    3028:	0f 97       	sbiw	r24, 0x0f	; 15
    302a:	98 87       	std	Y+8, r25	; 0x08
    302c:	8f 83       	std	Y+7, r24	; 0x07
    302e:	55 c0       	rjmp	.+170    	; 0x30da <_ZN12heartMonitor11calculateHREPji+0x2ee>
    3030:	89 8d       	ldd	r24, Y+25	; 0x19
    3032:	9a 8d       	ldd	r25, Y+26	; 0x1a
    3034:	2f 81       	ldd	r18, Y+7	; 0x07
    3036:	38 85       	ldd	r19, Y+8	; 0x08
    3038:	28 17       	cp	r18, r24
    303a:	39 07       	cpc	r19, r25
    303c:	dc f4       	brge	.+54     	; 0x3074 <_ZN12heartMonitor11calculateHREPji+0x288>
    303e:	89 8d       	ldd	r24, Y+25	; 0x19
    3040:	9a 8d       	ldd	r25, Y+26	; 0x1a
    3042:	88 0f       	add	r24, r24
    3044:	99 1f       	adc	r25, r25
    3046:	2e a1       	lds	r18, 0x4e
    3048:	3f a1       	lds	r19, 0x4f
    304a:	82 0f       	add	r24, r18
    304c:	93 1f       	adc	r25, r19
    304e:	fc 01       	movw	r30, r24
    3050:	20 81       	ld	r18, Z
    3052:	31 81       	ldd	r19, Z+1	; 0x01
    3054:	8f 81       	ldd	r24, Y+7	; 0x07
    3056:	98 85       	ldd	r25, Y+8	; 0x08
    3058:	88 0f       	add	r24, r24
    305a:	99 1f       	adc	r25, r25
    305c:	4e a1       	lds	r20, 0x4e
    305e:	5f a1       	lds	r21, 0x4f
    3060:	84 0f       	add	r24, r20
    3062:	95 1f       	adc	r25, r21
    3064:	fc 01       	movw	r30, r24
    3066:	80 81       	ld	r24, Z
    3068:	91 81       	ldd	r25, Z+1	; 0x01
    306a:	28 17       	cp	r18, r24
    306c:	39 07       	cpc	r19, r25
    306e:	10 f4       	brcc	.+4      	; 0x3074 <_ZN12heartMonitor11calculateHREPji+0x288>
    3070:	81 e0       	ldi	r24, 0x01	; 1
    3072:	01 c0       	rjmp	.+2      	; 0x3076 <_ZN12heartMonitor11calculateHREPji+0x28a>
    3074:	80 e0       	ldi	r24, 0x00	; 0
    3076:	88 23       	and	r24, r24
    3078:	19 f0       	breq	.+6      	; 0x3080 <_ZN12heartMonitor11calculateHREPji+0x294>
    307a:	8c 8d       	ldd	r24, Y+28	; 0x1c
    307c:	8f 5f       	subi	r24, 0xFF	; 255
    307e:	8c 8f       	std	Y+28, r24	; 0x1c
    3080:	89 8d       	ldd	r24, Y+25	; 0x19
    3082:	9a 8d       	ldd	r25, Y+26	; 0x1a
    3084:	2f 81       	ldd	r18, Y+7	; 0x07
    3086:	38 85       	ldd	r19, Y+8	; 0x08
    3088:	28 17       	cp	r18, r24
    308a:	39 07       	cpc	r19, r25
    308c:	dc f0       	brlt	.+54     	; 0x30c4 <_ZN12heartMonitor11calculateHREPji+0x2d8>
    308e:	89 8d       	ldd	r24, Y+25	; 0x19
    3090:	9a 8d       	ldd	r25, Y+26	; 0x1a
    3092:	88 0f       	add	r24, r24
    3094:	99 1f       	adc	r25, r25
    3096:	2e a1       	lds	r18, 0x4e
    3098:	3f a1       	lds	r19, 0x4f
    309a:	82 0f       	add	r24, r18
    309c:	93 1f       	adc	r25, r19
    309e:	fc 01       	movw	r30, r24
    30a0:	20 81       	ld	r18, Z
    30a2:	31 81       	ldd	r19, Z+1	; 0x01
    30a4:	8f 81       	ldd	r24, Y+7	; 0x07
    30a6:	98 85       	ldd	r25, Y+8	; 0x08
    30a8:	88 0f       	add	r24, r24
    30aa:	99 1f       	adc	r25, r25
    30ac:	4e a1       	lds	r20, 0x4e
    30ae:	5f a1       	lds	r21, 0x4f
    30b0:	84 0f       	add	r24, r20
    30b2:	95 1f       	adc	r25, r21
    30b4:	fc 01       	movw	r30, r24
    30b6:	80 81       	ld	r24, Z
    30b8:	91 81       	ldd	r25, Z+1	; 0x01
    30ba:	28 17       	cp	r18, r24
    30bc:	39 07       	cpc	r19, r25
    30be:	10 f0       	brcs	.+4      	; 0x30c4 <_ZN12heartMonitor11calculateHREPji+0x2d8>
    30c0:	81 e0       	ldi	r24, 0x01	; 1
    30c2:	01 c0       	rjmp	.+2      	; 0x30c6 <_ZN12heartMonitor11calculateHREPji+0x2da>
    30c4:	80 e0       	ldi	r24, 0x00	; 0
    30c6:	88 23       	and	r24, r24
    30c8:	19 f0       	breq	.+6      	; 0x30d0 <_ZN12heartMonitor11calculateHREPji+0x2e4>
    30ca:	8b 8d       	ldd	r24, Y+27	; 0x1b
    30cc:	8f 5f       	subi	r24, 0xFF	; 255
    30ce:	8b 8f       	std	Y+27, r24	; 0x1b
    30d0:	8f 81       	ldd	r24, Y+7	; 0x07
    30d2:	98 85       	ldd	r25, Y+8	; 0x08
    30d4:	01 96       	adiw	r24, 0x01	; 1
    30d6:	98 87       	std	Y+8, r25	; 0x08
    30d8:	8f 83       	std	Y+7, r24	; 0x07
    30da:	89 8d       	ldd	r24, Y+25	; 0x19
    30dc:	9a 8d       	ldd	r25, Y+26	; 0x1a
    30de:	9c 01       	movw	r18, r24
    30e0:	21 5f       	subi	r18, 0xF1	; 241
    30e2:	3f 4f       	sbci	r19, 0xFF	; 255
    30e4:	41 e0       	ldi	r20, 0x01	; 1
    30e6:	8f 81       	ldd	r24, Y+7	; 0x07
    30e8:	98 85       	ldd	r25, Y+8	; 0x08
    30ea:	28 17       	cp	r18, r24
    30ec:	39 07       	cpc	r19, r25
    30ee:	0c f4       	brge	.+2      	; 0x30f2 <_ZN12heartMonitor11calculateHREPji+0x306>
    30f0:	40 e0       	ldi	r20, 0x00	; 0
    30f2:	44 23       	and	r20, r20
    30f4:	09 f0       	breq	.+2      	; 0x30f8 <_ZN12heartMonitor11calculateHREPji+0x30c>
    30f6:	9c cf       	rjmp	.-200    	; 0x3030 <_ZN12heartMonitor11calculateHREPji+0x244>
    30f8:	8b 8d       	ldd	r24, Y+27	; 0x1b
    30fa:	8b 30       	cpi	r24, 0x0B	; 11
    30fc:	28 f0       	brcs	.+10     	; 0x3108 <_ZN12heartMonitor11calculateHREPji+0x31c>
    30fe:	8c 8d       	ldd	r24, Y+28	; 0x1c
    3100:	8b 30       	cpi	r24, 0x0B	; 11
    3102:	10 f0       	brcs	.+4      	; 0x3108 <_ZN12heartMonitor11calculateHREPji+0x31c>
    3104:	81 e0       	ldi	r24, 0x01	; 1
    3106:	01 c0       	rjmp	.+2      	; 0x310a <_ZN12heartMonitor11calculateHREPji+0x31e>
    3108:	80 e0       	ldi	r24, 0x00	; 0
    310a:	88 23       	and	r24, r24
    310c:	21 f0       	breq	.+8      	; 0x3116 <_ZN12heartMonitor11calculateHREPji+0x32a>
    310e:	81 e0       	ldi	r24, 0x01	; 1
    3110:	8d 8f       	std	Y+29, r24	; 0x1d
    3112:	00 00       	nop
    3114:	0c c1       	rjmp	.+536    	; 0x332e <_ZN12heartMonitor11calculateHREPji+0x542>
    3116:	1c 8e       	std	Y+28, r1	; 0x1c
    3118:	1b 8e       	std	Y+27, r1	; 0x1b
    311a:	1d 8e       	std	Y+29, r1	; 0x1d
    311c:	8b 81       	ldd	r24, Y+3	; 0x03
    311e:	9c 81       	ldd	r25, Y+4	; 0x04
    3120:	05 96       	adiw	r24, 0x05	; 5
    3122:	9c 83       	std	Y+4, r25	; 0x04
    3124:	8b 83       	std	Y+3, r24	; 0x03
    3126:	41 e0       	ldi	r20, 0x01	; 1
    3128:	2b 81       	ldd	r18, Y+3	; 0x03
    312a:	3c 81       	ldd	r19, Y+4	; 0x04
    312c:	88 a5       	lds	r24, 0x68
    312e:	99 a5       	lds	r25, 0x69
    3130:	28 17       	cp	r18, r24
    3132:	39 07       	cpc	r19, r25
    3134:	0c f0       	brlt	.+2      	; 0x3138 <_ZN12heartMonitor11calculateHREPji+0x34c>
    3136:	40 e0       	ldi	r20, 0x00	; 0
    3138:	44 23       	and	r20, r20
    313a:	09 f0       	breq	.+2      	; 0x313e <_ZN12heartMonitor11calculateHREPji+0x352>
    313c:	29 cf       	rjmp	.-430    	; 0x2f90 <_ZN12heartMonitor11calculateHREPji+0x1a4>
    313e:	f7 c0       	rjmp	.+494    	; 0x332e <_ZN12heartMonitor11calculateHREPji+0x542>
    3140:	8d 89       	ldd	r24, Y+21	; 0x15
    3142:	28 2f       	mov	r18, r24
    3144:	30 e0       	ldi	r19, 0x00	; 0
    3146:	88 a5       	lds	r24, 0x68
    3148:	99 a5       	lds	r25, 0x69
    314a:	99 23       	and	r25, r25
    314c:	0c f4       	brge	.+2      	; 0x3150 <_ZN12heartMonitor11calculateHREPji+0x364>
    314e:	01 96       	adiw	r24, 0x01	; 1
    3150:	95 95       	asr	r25
    3152:	87 95       	ror	r24
    3154:	28 17       	cp	r18, r24
    3156:	39 07       	cpc	r19, r25
    3158:	2c f0       	brlt	.+10     	; 0x3164 <_ZN12heartMonitor11calculateHREPji+0x378>
    315a:	8d 8d       	ldd	r24, Y+29	; 0x1d
    315c:	88 23       	and	r24, r24
    315e:	11 f4       	brne	.+4      	; 0x3164 <_ZN12heartMonitor11calculateHREPji+0x378>
    3160:	81 e0       	ldi	r24, 0x01	; 1
    3162:	01 c0       	rjmp	.+2      	; 0x3166 <_ZN12heartMonitor11calculateHREPji+0x37a>
    3164:	80 e0       	ldi	r24, 0x00	; 0
    3166:	88 23       	and	r24, r24
    3168:	09 f4       	brne	.+2      	; 0x316c <_ZN12heartMonitor11calculateHREPji+0x380>
    316a:	e1 c0       	rjmp	.+450    	; 0x332e <_ZN12heartMonitor11calculateHREPji+0x542>
    316c:	8d 89       	ldd	r24, Y+21	; 0x15
    316e:	88 2f       	mov	r24, r24
    3170:	90 e0       	ldi	r25, 0x00	; 0
    3172:	0f 97       	sbiw	r24, 0x0f	; 15
    3174:	9f 8f       	std	Y+31, r25	; 0x1f
    3176:	8e 8f       	std	Y+30, r24	; 0x1e
    3178:	1c 8e       	std	Y+28, r1	; 0x1c
    317a:	1b 8e       	std	Y+27, r1	; 0x1b
    317c:	8e 8d       	ldd	r24, Y+30	; 0x1e
    317e:	9f 8d       	ldd	r25, Y+31	; 0x1f
    3180:	9a 87       	std	Y+10, r25	; 0x0a
    3182:	89 87       	std	Y+9, r24	; 0x09
    3184:	ca c0       	rjmp	.+404    	; 0x331a <_ZN12heartMonitor11calculateHREPji+0x52e>
    3186:	89 85       	ldd	r24, Y+9	; 0x09
    3188:	9a 85       	ldd	r25, Y+10	; 0x0a
    318a:	88 0f       	add	r24, r24
    318c:	99 1f       	adc	r25, r25
    318e:	2e a1       	lds	r18, 0x4e
    3190:	3f a1       	lds	r19, 0x4f
    3192:	82 0f       	add	r24, r18
    3194:	93 1f       	adc	r25, r19
    3196:	fc 01       	movw	r30, r24
    3198:	80 81       	ld	r24, Z
    319a:	91 81       	ldd	r25, Z+1	; 0x01
    319c:	98 8f       	std	Y+24, r25	; 0x18
    319e:	8f 8b       	std	Y+23, r24	; 0x17
    31a0:	89 85       	ldd	r24, Y+9	; 0x09
    31a2:	9a 85       	ldd	r25, Y+10	; 0x0a
    31a4:	9c 87       	std	Y+12, r25	; 0x0c
    31a6:	8b 87       	std	Y+11, r24	; 0x0b
    31a8:	2a c0       	rjmp	.+84     	; 0x31fe <_ZN12heartMonitor11calculateHREPji+0x412>
    31aa:	8b 85       	ldd	r24, Y+11	; 0x0b
    31ac:	9c 85       	ldd	r25, Y+12	; 0x0c
    31ae:	88 0f       	add	r24, r24
    31b0:	99 1f       	adc	r25, r25
    31b2:	2e a1       	lds	r18, 0x4e
    31b4:	3f a1       	lds	r19, 0x4f
    31b6:	82 0f       	add	r24, r18
    31b8:	93 1f       	adc	r25, r19
    31ba:	fc 01       	movw	r30, r24
    31bc:	20 81       	ld	r18, Z
    31be:	31 81       	ldd	r19, Z+1	; 0x01
    31c0:	8f 89       	ldd	r24, Y+23	; 0x17
    31c2:	98 8d       	ldd	r25, Y+24	; 0x18
    31c4:	41 e0       	ldi	r20, 0x01	; 1
    31c6:	28 17       	cp	r18, r24
    31c8:	39 07       	cpc	r19, r25
    31ca:	08 f4       	brcc	.+2      	; 0x31ce <_ZN12heartMonitor11calculateHREPji+0x3e2>
    31cc:	40 e0       	ldi	r20, 0x00	; 0
    31ce:	44 23       	and	r20, r20
    31d0:	89 f0       	breq	.+34     	; 0x31f4 <_ZN12heartMonitor11calculateHREPji+0x408>
    31d2:	8b 85       	ldd	r24, Y+11	; 0x0b
    31d4:	9c 85       	ldd	r25, Y+12	; 0x0c
    31d6:	88 0f       	add	r24, r24
    31d8:	99 1f       	adc	r25, r25
    31da:	2e a1       	lds	r18, 0x4e
    31dc:	3f a1       	lds	r19, 0x4f
    31de:	82 0f       	add	r24, r18
    31e0:	93 1f       	adc	r25, r19
    31e2:	fc 01       	movw	r30, r24
    31e4:	80 81       	ld	r24, Z
    31e6:	91 81       	ldd	r25, Z+1	; 0x01
    31e8:	98 8f       	std	Y+24, r25	; 0x18
    31ea:	8f 8b       	std	Y+23, r24	; 0x17
    31ec:	8b 85       	ldd	r24, Y+11	; 0x0b
    31ee:	9c 85       	ldd	r25, Y+12	; 0x0c
    31f0:	9a 8f       	std	Y+26, r25	; 0x1a
    31f2:	89 8f       	std	Y+25, r24	; 0x19
    31f4:	8b 85       	ldd	r24, Y+11	; 0x0b
    31f6:	9c 85       	ldd	r25, Y+12	; 0x0c
    31f8:	01 97       	sbiw	r24, 0x01	; 1
    31fa:	9c 87       	std	Y+12, r25	; 0x0c
    31fc:	8b 87       	std	Y+11, r24	; 0x0b
    31fe:	89 85       	ldd	r24, Y+9	; 0x09
    3200:	9a 85       	ldd	r25, Y+10	; 0x0a
    3202:	9c 01       	movw	r18, r24
    3204:	2e 51       	subi	r18, 0x1E	; 30
    3206:	30 40       	sbci	r19, 0x00	; 0
    3208:	41 e0       	ldi	r20, 0x01	; 1
    320a:	8b 85       	ldd	r24, Y+11	; 0x0b
    320c:	9c 85       	ldd	r25, Y+12	; 0x0c
    320e:	28 17       	cp	r18, r24
    3210:	39 07       	cpc	r19, r25
    3212:	0c f0       	brlt	.+2      	; 0x3216 <_ZN12heartMonitor11calculateHREPji+0x42a>
    3214:	40 e0       	ldi	r20, 0x00	; 0
    3216:	44 23       	and	r20, r20
    3218:	41 f6       	brne	.-112    	; 0x31aa <_ZN12heartMonitor11calculateHREPji+0x3be>
    321a:	89 8d       	ldd	r24, Y+25	; 0x19
    321c:	9a 8d       	ldd	r25, Y+26	; 0x1a
    321e:	0f 96       	adiw	r24, 0x0f	; 15
    3220:	9e 87       	std	Y+14, r25	; 0x0e
    3222:	8d 87       	std	Y+13, r24	; 0x0d
    3224:	55 c0       	rjmp	.+170    	; 0x32d0 <_ZN12heartMonitor11calculateHREPji+0x4e4>
    3226:	89 8d       	ldd	r24, Y+25	; 0x19
    3228:	9a 8d       	ldd	r25, Y+26	; 0x1a
    322a:	2d 85       	ldd	r18, Y+13	; 0x0d
    322c:	3e 85       	ldd	r19, Y+14	; 0x0e
    322e:	28 17       	cp	r18, r24
    3230:	39 07       	cpc	r19, r25
    3232:	dc f0       	brlt	.+54     	; 0x326a <_ZN12heartMonitor11calculateHREPji+0x47e>
    3234:	89 8d       	ldd	r24, Y+25	; 0x19
    3236:	9a 8d       	ldd	r25, Y+26	; 0x1a
    3238:	88 0f       	add	r24, r24
    323a:	99 1f       	adc	r25, r25
    323c:	2e a1       	lds	r18, 0x4e
    323e:	3f a1       	lds	r19, 0x4f
    3240:	82 0f       	add	r24, r18
    3242:	93 1f       	adc	r25, r19
    3244:	fc 01       	movw	r30, r24
    3246:	20 81       	ld	r18, Z
    3248:	31 81       	ldd	r19, Z+1	; 0x01
    324a:	8d 85       	ldd	r24, Y+13	; 0x0d
    324c:	9e 85       	ldd	r25, Y+14	; 0x0e
    324e:	88 0f       	add	r24, r24
    3250:	99 1f       	adc	r25, r25
    3252:	4e a1       	lds	r20, 0x4e
    3254:	5f a1       	lds	r21, 0x4f
    3256:	84 0f       	add	r24, r20
    3258:	95 1f       	adc	r25, r21
    325a:	fc 01       	movw	r30, r24
    325c:	80 81       	ld	r24, Z
    325e:	91 81       	ldd	r25, Z+1	; 0x01
    3260:	28 17       	cp	r18, r24
    3262:	39 07       	cpc	r19, r25
    3264:	10 f0       	brcs	.+4      	; 0x326a <_ZN12heartMonitor11calculateHREPji+0x47e>
    3266:	81 e0       	ldi	r24, 0x01	; 1
    3268:	01 c0       	rjmp	.+2      	; 0x326c <_ZN12heartMonitor11calculateHREPji+0x480>
    326a:	80 e0       	ldi	r24, 0x00	; 0
    326c:	88 23       	and	r24, r24
    326e:	19 f0       	breq	.+6      	; 0x3276 <_ZN12heartMonitor11calculateHREPji+0x48a>
    3270:	8c 8d       	ldd	r24, Y+28	; 0x1c
    3272:	8f 5f       	subi	r24, 0xFF	; 255
    3274:	8c 8f       	std	Y+28, r24	; 0x1c
    3276:	89 8d       	ldd	r24, Y+25	; 0x19
    3278:	9a 8d       	ldd	r25, Y+26	; 0x1a
    327a:	2d 85       	ldd	r18, Y+13	; 0x0d
    327c:	3e 85       	ldd	r19, Y+14	; 0x0e
    327e:	28 17       	cp	r18, r24
    3280:	39 07       	cpc	r19, r25
    3282:	dc f4       	brge	.+54     	; 0x32ba <_ZN12heartMonitor11calculateHREPji+0x4ce>
    3284:	89 8d       	ldd	r24, Y+25	; 0x19
    3286:	9a 8d       	ldd	r25, Y+26	; 0x1a
    3288:	88 0f       	add	r24, r24
    328a:	99 1f       	adc	r25, r25
    328c:	2e a1       	lds	r18, 0x4e
    328e:	3f a1       	lds	r19, 0x4f
    3290:	82 0f       	add	r24, r18
    3292:	93 1f       	adc	r25, r19
    3294:	fc 01       	movw	r30, r24
    3296:	20 81       	ld	r18, Z
    3298:	31 81       	ldd	r19, Z+1	; 0x01
    329a:	8d 85       	ldd	r24, Y+13	; 0x0d
    329c:	9e 85       	ldd	r25, Y+14	; 0x0e
    329e:	88 0f       	add	r24, r24
    32a0:	99 1f       	adc	r25, r25
    32a2:	4e a1       	lds	r20, 0x4e
    32a4:	5f a1       	lds	r21, 0x4f
    32a6:	84 0f       	add	r24, r20
    32a8:	95 1f       	adc	r25, r21
    32aa:	fc 01       	movw	r30, r24
    32ac:	80 81       	ld	r24, Z
    32ae:	91 81       	ldd	r25, Z+1	; 0x01
    32b0:	82 17       	cp	r24, r18
    32b2:	93 07       	cpc	r25, r19
    32b4:	10 f0       	brcs	.+4      	; 0x32ba <_ZN12heartMonitor11calculateHREPji+0x4ce>
    32b6:	81 e0       	ldi	r24, 0x01	; 1
    32b8:	01 c0       	rjmp	.+2      	; 0x32bc <_ZN12heartMonitor11calculateHREPji+0x4d0>
    32ba:	80 e0       	ldi	r24, 0x00	; 0
    32bc:	88 23       	and	r24, r24
    32be:	19 f0       	breq	.+6      	; 0x32c6 <_ZN12heartMonitor11calculateHREPji+0x4da>
    32c0:	8b 8d       	ldd	r24, Y+27	; 0x1b
    32c2:	8f 5f       	subi	r24, 0xFF	; 255
    32c4:	8b 8f       	std	Y+27, r24	; 0x1b
    32c6:	8d 85       	ldd	r24, Y+13	; 0x0d
    32c8:	9e 85       	ldd	r25, Y+14	; 0x0e
    32ca:	01 97       	sbiw	r24, 0x01	; 1
    32cc:	9e 87       	std	Y+14, r25	; 0x0e
    32ce:	8d 87       	std	Y+13, r24	; 0x0d
    32d0:	89 8d       	ldd	r24, Y+25	; 0x19
    32d2:	9a 8d       	ldd	r25, Y+26	; 0x1a
    32d4:	9c 01       	movw	r18, r24
    32d6:	2f 50       	subi	r18, 0x0F	; 15
    32d8:	30 40       	sbci	r19, 0x00	; 0
    32da:	41 e0       	ldi	r20, 0x01	; 1
    32dc:	8d 85       	ldd	r24, Y+13	; 0x0d
    32de:	9e 85       	ldd	r25, Y+14	; 0x0e
    32e0:	28 17       	cp	r18, r24
    32e2:	39 07       	cpc	r19, r25
    32e4:	0c f0       	brlt	.+2      	; 0x32e8 <_ZN12heartMonitor11calculateHREPji+0x4fc>
    32e6:	40 e0       	ldi	r20, 0x00	; 0
    32e8:	44 23       	and	r20, r20
    32ea:	09 f0       	breq	.+2      	; 0x32ee <_ZN12heartMonitor11calculateHREPji+0x502>
    32ec:	9c cf       	rjmp	.-200    	; 0x3226 <_ZN12heartMonitor11calculateHREPji+0x43a>
    32ee:	8b 8d       	ldd	r24, Y+27	; 0x1b
    32f0:	8b 30       	cpi	r24, 0x0B	; 11
    32f2:	28 f0       	brcs	.+10     	; 0x32fe <_ZN12heartMonitor11calculateHREPji+0x512>
    32f4:	8c 8d       	ldd	r24, Y+28	; 0x1c
    32f6:	8b 30       	cpi	r24, 0x0B	; 11
    32f8:	10 f0       	brcs	.+4      	; 0x32fe <_ZN12heartMonitor11calculateHREPji+0x512>
    32fa:	81 e0       	ldi	r24, 0x01	; 1
    32fc:	01 c0       	rjmp	.+2      	; 0x3300 <_ZN12heartMonitor11calculateHREPji+0x514>
    32fe:	80 e0       	ldi	r24, 0x00	; 0
    3300:	88 23       	and	r24, r24
    3302:	19 f0       	breq	.+6      	; 0x330a <_ZN12heartMonitor11calculateHREPji+0x51e>
    3304:	81 e0       	ldi	r24, 0x01	; 1
    3306:	8d 8f       	std	Y+29, r24	; 0x1d
    3308:	12 c0       	rjmp	.+36     	; 0x332e <_ZN12heartMonitor11calculateHREPji+0x542>
    330a:	1c 8e       	std	Y+28, r1	; 0x1c
    330c:	1b 8e       	std	Y+27, r1	; 0x1b
    330e:	1d 8e       	std	Y+29, r1	; 0x1d
    3310:	89 85       	ldd	r24, Y+9	; 0x09
    3312:	9a 85       	ldd	r25, Y+10	; 0x0a
    3314:	05 97       	sbiw	r24, 0x05	; 5
    3316:	9a 87       	std	Y+10, r25	; 0x0a
    3318:	89 87       	std	Y+9, r24	; 0x09
    331a:	21 e0       	ldi	r18, 0x01	; 1
    331c:	89 85       	ldd	r24, Y+9	; 0x09
    331e:	9a 85       	ldd	r25, Y+10	; 0x0a
    3320:	18 16       	cp	r1, r24
    3322:	19 06       	cpc	r1, r25
    3324:	0c f0       	brlt	.+2      	; 0x3328 <_ZN12heartMonitor11calculateHREPji+0x53c>
    3326:	20 e0       	ldi	r18, 0x00	; 0
    3328:	22 23       	and	r18, r18
    332a:	09 f0       	breq	.+2      	; 0x332e <_ZN12heartMonitor11calculateHREPji+0x542>
    332c:	2c cf       	rjmp	.-424    	; 0x3186 <_ZN12heartMonitor11calculateHREPji+0x39a>
    332e:	9d 8d       	ldd	r25, Y+29	; 0x1d
    3330:	81 e0       	ldi	r24, 0x01	; 1
    3332:	99 23       	and	r25, r25
    3334:	09 f4       	brne	.+2      	; 0x3338 <_ZN12heartMonitor11calculateHREPji+0x54c>
    3336:	80 e0       	ldi	r24, 0x00	; 0
    3338:	88 23       	and	r24, r24
    333a:	09 f4       	brne	.+2      	; 0x333e <_ZN12heartMonitor11calculateHREPji+0x552>
    333c:	47 c0       	rjmp	.+142    	; 0x33cc <_ZN12heartMonitor11calculateHREPji+0x5e0>
    333e:	8d 89       	ldd	r24, Y+21	; 0x15
    3340:	28 2f       	mov	r18, r24
    3342:	30 e0       	ldi	r19, 0x00	; 0
    3344:	89 8d       	ldd	r24, Y+25	; 0x19
    3346:	9a 8d       	ldd	r25, Y+26	; 0x1a
    3348:	a9 01       	movw	r20, r18
    334a:	48 1b       	sub	r20, r24
    334c:	59 0b       	sbc	r21, r25
    334e:	ca 01       	movw	r24, r20
    3350:	99 23       	and	r25, r25
    3352:	1c f4       	brge	.+6      	; 0x335a <_ZN12heartMonitor11calculateHREPji+0x56e>
    3354:	90 95       	com	r25
    3356:	81 95       	neg	r24
    3358:	9f 4f       	sbci	r25, 0xFF	; 255
    335a:	aa 27       	eor	r26, r26
    335c:	97 fd       	sbrc	r25, 7
    335e:	a0 95       	com	r26
    3360:	ba 2f       	mov	r27, r26
    3362:	bc 01       	movw	r22, r24
    3364:	cd 01       	movw	r24, r26
    3366:	0e 94 6c 22 	call	0x44d8	; 0x44d8 <__floatsisf>
    336a:	dc 01       	movw	r26, r24
    336c:	cb 01       	movw	r24, r22
    336e:	bc 01       	movw	r22, r24
    3370:	cd 01       	movw	r24, r26
    3372:	2f e6       	ldi	r18, 0x6F	; 111
    3374:	32 e1       	ldi	r19, 0x12	; 18
    3376:	43 e0       	ldi	r20, 0x03	; 3
    3378:	5c e3       	ldi	r21, 0x3C	; 60
    337a:	0e 94 f8 22 	call	0x45f0	; 0x45f0 <__mulsf3>
    337e:	dc 01       	movw	r26, r24
    3380:	cb 01       	movw	r24, r22
    3382:	88 a3       	lds	r24, 0x58
    3384:	99 a3       	lds	r25, 0x59
    3386:	aa a3       	lds	r26, 0x5a
    3388:	bb a3       	lds	r27, 0x5b
    338a:	28 a1       	lds	r18, 0x48
    338c:	39 a1       	lds	r19, 0x49
    338e:	4a a1       	lds	r20, 0x4a
    3390:	5b a1       	lds	r21, 0x4b
    3392:	60 e0       	ldi	r22, 0x00	; 0
    3394:	70 e0       	ldi	r23, 0x00	; 0
    3396:	80 e7       	ldi	r24, 0x70	; 112
    3398:	92 e4       	ldi	r25, 0x42	; 66
    339a:	0e 94 02 22 	call	0x4404	; 0x4404 <__divsf3>
    339e:	dc 01       	movw	r26, r24
    33a0:	cb 01       	movw	r24, r22
    33a2:	2c a1       	lds	r18, 0x4c
    33a4:	3d a1       	lds	r19, 0x4d
    33a6:	f9 01       	movw	r30, r18
    33a8:	84 83       	std	Z+4, r24	; 0x04
    33aa:	95 83       	std	Z+5, r25	; 0x05
    33ac:	a6 83       	std	Z+6, r26	; 0x06
    33ae:	b7 83       	std	Z+7, r27	; 0x07
    33b0:	8c a1       	lds	r24, 0x4c
    33b2:	9d a1       	lds	r25, 0x4d
    33b4:	fc 01       	movw	r30, r24
    33b6:	84 85       	ldd	r24, Z+12	; 0x0c
    33b8:	95 85       	ldd	r25, Z+13	; 0x0d
    33ba:	9c 01       	movw	r18, r24
    33bc:	2f 5f       	subi	r18, 0xFF	; 255
    33be:	3f 4f       	sbci	r19, 0xFF	; 255
    33c0:	8c a1       	lds	r24, 0x4c
    33c2:	9d a1       	lds	r25, 0x4d
    33c4:	fc 01       	movw	r30, r24
    33c6:	35 87       	std	Z+13, r19	; 0x0d
    33c8:	24 87       	std	Z+12, r18	; 0x0c
    33ca:	22 c0       	rjmp	.+68     	; 0x3410 <_ZN12heartMonitor11calculateHREPji+0x624>
    33cc:	80 91 97 05 	lds	r24, 0x0597
    33d0:	90 91 98 05 	lds	r25, 0x0598
    33d4:	01 96       	adiw	r24, 0x01	; 1
    33d6:	90 93 98 05 	sts	0x0598, r25
    33da:	80 93 97 05 	sts	0x0597, r24
    33de:	80 91 97 05 	lds	r24, 0x0597
    33e2:	90 91 98 05 	lds	r25, 0x0598
    33e6:	21 e0       	ldi	r18, 0x01	; 1
    33e8:	84 30       	cpi	r24, 0x04	; 4
    33ea:	91 05       	cpc	r25, r1
    33ec:	08 f4       	brcc	.+2      	; 0x33f0 <_ZN12heartMonitor11calculateHREPji+0x604>
    33ee:	20 e0       	ldi	r18, 0x00	; 0
    33f0:	22 23       	and	r18, r18
    33f2:	71 f0       	breq	.+28     	; 0x3410 <_ZN12heartMonitor11calculateHREPji+0x624>
    33f4:	2c a1       	lds	r18, 0x4c
    33f6:	3d a1       	lds	r19, 0x4d
    33f8:	80 e0       	ldi	r24, 0x00	; 0
    33fa:	90 e0       	ldi	r25, 0x00	; 0
    33fc:	dc 01       	movw	r26, r24
    33fe:	f9 01       	movw	r30, r18
    3400:	84 83       	std	Z+4, r24	; 0x04
    3402:	95 83       	std	Z+5, r25	; 0x05
    3404:	a6 83       	std	Z+6, r26	; 0x06
    3406:	b7 83       	std	Z+7, r27	; 0x07
    3408:	10 92 98 05 	sts	0x0598, r1
    340c:	10 92 97 05 	sts	0x0597, r1
    3410:	a9 96       	adiw	r28, 0x29	; 41
    3412:	0f b6       	in	r0, 0x3f	; 63
    3414:	f8 94       	cli
    3416:	de bf       	out	0x3e, r29	; 62
    3418:	0f be       	out	0x3f, r0	; 63
    341a:	cd bf       	out	0x3d, r28	; 61
    341c:	df 91       	pop	r29
    341e:	cf 91       	pop	r28
    3420:	08 95       	ret

00003422 <_ZN4tripC1Ev>:
    3422:	cf 93       	push	r28
    3424:	df 93       	push	r29
    3426:	0f 92       	push	r0
    3428:	0f 92       	push	r0
    342a:	cd b7       	in	r28, 0x3d	; 61
    342c:	de b7       	in	r29, 0x3e	; 62
    342e:	9a 83       	std	Y+2, r25	; 0x02
    3430:	89 83       	std	Y+1, r24	; 0x01
    3432:	89 81       	ldd	r24, Y+1	; 0x01
    3434:	9a 81       	ldd	r25, Y+2	; 0x02
    3436:	0e 94 de 11 	call	0x23bc	; 0x23bc <_ZN8odometerC1Ev>
    343a:	89 81       	ldd	r24, Y+1	; 0x01
    343c:	9a 81       	ldd	r25, Y+2	; 0x02
    343e:	c2 96       	adiw	r24, 0x32	; 50
    3440:	0e 94 c1 15 	call	0x2b82	; 0x2b82 <_ZN12heartMonitorC1Ev>
    3444:	0f 90       	pop	r0
    3446:	0f 90       	pop	r0
    3448:	df 91       	pop	r29
    344a:	cf 91       	pop	r28
    344c:	08 95       	ret

0000344e <_ZN4trip9resetTripEv>:
    344e:	cf 93       	push	r28
    3450:	df 93       	push	r29
    3452:	0f 92       	push	r0
    3454:	0f 92       	push	r0
    3456:	cd b7       	in	r28, 0x3d	; 61
    3458:	de b7       	in	r29, 0x3e	; 62
    345a:	9a 83       	std	Y+2, r25	; 0x02
    345c:	89 83       	std	Y+1, r24	; 0x01
    345e:	89 81       	ldd	r24, Y+1	; 0x01
    3460:	9a 81       	ldd	r25, Y+2	; 0x02
    3462:	0e 94 fa 11 	call	0x23f4	; 0x23f4 <_ZN8odometer13resetOdometerEv>
    3466:	89 81       	ldd	r24, Y+1	; 0x01
    3468:	9a 81       	ldd	r25, Y+2	; 0x02
    346a:	c2 96       	adiw	r24, 0x32	; 50
    346c:	0e 94 d2 15 	call	0x2ba4	; 0x2ba4 <_ZN12heartMonitor11hardResetHREv>
    3470:	0f 90       	pop	r0
    3472:	0f 90       	pop	r0
    3474:	df 91       	pop	r29
    3476:	cf 91       	pop	r28
    3478:	08 95       	ret

0000347a <_ZN4trip13setTripWOTimeEd>:
    347a:	cf 93       	push	r28
    347c:	df 93       	push	r29
    347e:	00 d0       	rcall	.+0      	; 0x3480 <_ZN4trip13setTripWOTimeEd+0x6>
    3480:	00 d0       	rcall	.+0      	; 0x3482 <_ZN4trip13setTripWOTimeEd+0x8>
    3482:	cd b7       	in	r28, 0x3d	; 61
    3484:	de b7       	in	r29, 0x3e	; 62
    3486:	9a 83       	std	Y+2, r25	; 0x02
    3488:	89 83       	std	Y+1, r24	; 0x01
    348a:	4b 83       	std	Y+3, r20	; 0x03
    348c:	5c 83       	std	Y+4, r21	; 0x04
    348e:	6d 83       	std	Y+5, r22	; 0x05
    3490:	7e 83       	std	Y+6, r23	; 0x06
    3492:	89 81       	ldd	r24, Y+1	; 0x01
    3494:	9a 81       	ldd	r25, Y+2	; 0x02
    3496:	2b 81       	ldd	r18, Y+3	; 0x03
    3498:	3c 81       	ldd	r19, Y+4	; 0x04
    349a:	4d 81       	ldd	r20, Y+5	; 0x05
    349c:	5e 81       	ldd	r21, Y+6	; 0x06
    349e:	ba 01       	movw	r22, r20
    34a0:	a9 01       	movw	r20, r18
    34a2:	0e 94 6b 12 	call	0x24d6	; 0x24d6 <_ZN8odometer20setNewOdometerWOtimeEd>
    34a6:	26 96       	adiw	r28, 0x06	; 6
    34a8:	0f b6       	in	r0, 0x3f	; 63
    34aa:	f8 94       	cli
    34ac:	de bf       	out	0x3e, r29	; 62
    34ae:	0f be       	out	0x3f, r0	; 63
    34b0:	cd bf       	out	0x3d, r28	; 61
    34b2:	df 91       	pop	r29
    34b4:	cf 91       	pop	r28
    34b6:	08 95       	ret

000034b8 <_ZN4trip12setTripWTimeEdjj>:
    34b8:	0f 93       	push	r16
    34ba:	1f 93       	push	r17
    34bc:	cf 93       	push	r28
    34be:	df 93       	push	r29
    34c0:	cd b7       	in	r28, 0x3d	; 61
    34c2:	de b7       	in	r29, 0x3e	; 62
    34c4:	2a 97       	sbiw	r28, 0x0a	; 10
    34c6:	0f b6       	in	r0, 0x3f	; 63
    34c8:	f8 94       	cli
    34ca:	de bf       	out	0x3e, r29	; 62
    34cc:	0f be       	out	0x3f, r0	; 63
    34ce:	cd bf       	out	0x3d, r28	; 61
    34d0:	9a 83       	std	Y+2, r25	; 0x02
    34d2:	89 83       	std	Y+1, r24	; 0x01
    34d4:	4b 83       	std	Y+3, r20	; 0x03
    34d6:	5c 83       	std	Y+4, r21	; 0x04
    34d8:	6d 83       	std	Y+5, r22	; 0x05
    34da:	7e 83       	std	Y+6, r23	; 0x06
    34dc:	38 87       	std	Y+8, r19	; 0x08
    34de:	2f 83       	std	Y+7, r18	; 0x07
    34e0:	1a 87       	std	Y+10, r17	; 0x0a
    34e2:	09 87       	std	Y+9, r16	; 0x09
    34e4:	89 81       	ldd	r24, Y+1	; 0x01
    34e6:	9a 81       	ldd	r25, Y+2	; 0x02
    34e8:	2b 81       	ldd	r18, Y+3	; 0x03
    34ea:	3c 81       	ldd	r19, Y+4	; 0x04
    34ec:	4d 81       	ldd	r20, Y+5	; 0x05
    34ee:	5e 81       	ldd	r21, Y+6	; 0x06
    34f0:	af 81       	ldd	r26, Y+7	; 0x07
    34f2:	b8 85       	ldd	r27, Y+8	; 0x08
    34f4:	e9 85       	ldd	r30, Y+9	; 0x09
    34f6:	fa 85       	ldd	r31, Y+10	; 0x0a
    34f8:	ba 01       	movw	r22, r20
    34fa:	a9 01       	movw	r20, r18
    34fc:	9d 01       	movw	r18, r26
    34fe:	8f 01       	movw	r16, r30
    3500:	0e 94 8f 12 	call	0x251e	; 0x251e <_ZN8odometer19setNewOdometerWtimeEdjj>
    3504:	2a 96       	adiw	r28, 0x0a	; 10
    3506:	0f b6       	in	r0, 0x3f	; 63
    3508:	f8 94       	cli
    350a:	de bf       	out	0x3e, r29	; 62
    350c:	0f be       	out	0x3f, r0	; 63
    350e:	cd bf       	out	0x3d, r28	; 61
    3510:	df 91       	pop	r29
    3512:	cf 91       	pop	r28
    3514:	1f 91       	pop	r17
    3516:	0f 91       	pop	r16
    3518:	08 95       	ret

0000351a <__vector_25>:
    351a:	1f 92       	push	r1
    351c:	0f 92       	push	r0
    351e:	0f b6       	in	r0, 0x3f	; 63
    3520:	0f 92       	push	r0
    3522:	00 90 5b 00 	lds	r0, 0x005B
    3526:	0f 92       	push	r0
    3528:	11 24       	eor	r1, r1
    352a:	2f 93       	push	r18
    352c:	3f 93       	push	r19
    352e:	8f 93       	push	r24
    3530:	9f 93       	push	r25
    3532:	ef 93       	push	r30
    3534:	ff 93       	push	r31
    3536:	cf 93       	push	r28
    3538:	df 93       	push	r29
    353a:	cd b7       	in	r28, 0x3d	; 61
    353c:	de b7       	in	r29, 0x3e	; 62
    353e:	f8 94       	cli
    3540:	80 91 c8 02 	lds	r24, 0x02C8
    3544:	88 23       	and	r24, r24
    3546:	31 f0       	breq	.+12     	; 0x3554 <__vector_25+0x3a>
    3548:	10 92 c8 02 	sts	0x02C8, r1
    354c:	81 e0       	ldi	r24, 0x01	; 1
    354e:	80 93 c5 02 	sts	0x02C5, r24
    3552:	02 c0       	rjmp	.+4      	; 0x3558 <__vector_25+0x3e>
    3554:	10 92 c5 02 	sts	0x02C5, r1
    3558:	81 ec       	ldi	r24, 0xC1	; 193
    355a:	90 e0       	ldi	r25, 0x00	; 0
    355c:	21 ec       	ldi	r18, 0xC1	; 193
    355e:	30 e0       	ldi	r19, 0x00	; 0
    3560:	f9 01       	movw	r30, r18
    3562:	20 81       	ld	r18, Z
    3564:	2f 77       	andi	r18, 0x7F	; 127
    3566:	fc 01       	movw	r30, r24
    3568:	20 83       	st	Z, r18
    356a:	78 94       	sei
    356c:	df 91       	pop	r29
    356e:	cf 91       	pop	r28
    3570:	ff 91       	pop	r31
    3572:	ef 91       	pop	r30
    3574:	9f 91       	pop	r25
    3576:	8f 91       	pop	r24
    3578:	3f 91       	pop	r19
    357a:	2f 91       	pop	r18
    357c:	0f 90       	pop	r0
    357e:	00 92 5b 00 	sts	0x005B, r0
    3582:	0f 90       	pop	r0
    3584:	0f be       	out	0x3f, r0	; 63
    3586:	0f 90       	pop	r0
    3588:	1f 90       	pop	r1
    358a:	18 95       	reti

0000358c <__vector_36>:
    358c:	1f 92       	push	r1
    358e:	0f 92       	push	r0
    3590:	0f b6       	in	r0, 0x3f	; 63
    3592:	0f 92       	push	r0
    3594:	00 90 5b 00 	lds	r0, 0x005B
    3598:	0f 92       	push	r0
    359a:	11 24       	eor	r1, r1
    359c:	2f 93       	push	r18
    359e:	3f 93       	push	r19
    35a0:	8f 93       	push	r24
    35a2:	9f 93       	push	r25
    35a4:	ef 93       	push	r30
    35a6:	ff 93       	push	r31
    35a8:	cf 93       	push	r28
    35aa:	df 93       	push	r29
    35ac:	cd b7       	in	r28, 0x3d	; 61
    35ae:	de b7       	in	r29, 0x3e	; 62
    35b0:	f8 94       	cli
    35b2:	80 91 c7 02 	lds	r24, 0x02C7
    35b6:	88 23       	and	r24, r24
    35b8:	31 f0       	breq	.+12     	; 0x35c6 <__vector_36+0x3a>
    35ba:	10 92 c7 02 	sts	0x02C7, r1
    35be:	81 e0       	ldi	r24, 0x01	; 1
    35c0:	80 93 c3 02 	sts	0x02C3, r24
    35c4:	02 c0       	rjmp	.+4      	; 0x35ca <__vector_36+0x3e>
    35c6:	10 92 c3 02 	sts	0x02C3, r1
    35ca:	89 ec       	ldi	r24, 0xC9	; 201
    35cc:	90 e0       	ldi	r25, 0x00	; 0
    35ce:	29 ec       	ldi	r18, 0xC9	; 201
    35d0:	30 e0       	ldi	r19, 0x00	; 0
    35d2:	f9 01       	movw	r30, r18
    35d4:	20 81       	ld	r18, Z
    35d6:	2f 77       	andi	r18, 0x7F	; 127
    35d8:	fc 01       	movw	r30, r24
    35da:	20 83       	st	Z, r18
    35dc:	78 94       	sei
    35de:	df 91       	pop	r29
    35e0:	cf 91       	pop	r28
    35e2:	ff 91       	pop	r31
    35e4:	ef 91       	pop	r30
    35e6:	9f 91       	pop	r25
    35e8:	8f 91       	pop	r24
    35ea:	3f 91       	pop	r19
    35ec:	2f 91       	pop	r18
    35ee:	0f 90       	pop	r0
    35f0:	00 92 5b 00 	sts	0x005B, r0
    35f4:	0f 90       	pop	r0
    35f6:	0f be       	out	0x3f, r0	; 63
    35f8:	0f 90       	pop	r0
    35fa:	1f 90       	pop	r1
    35fc:	18 95       	reti

000035fe <__vector_1>:
    35fe:	1f 92       	push	r1
    3600:	0f 92       	push	r0
    3602:	0f b6       	in	r0, 0x3f	; 63
    3604:	0f 92       	push	r0
    3606:	00 90 5b 00 	lds	r0, 0x005B
    360a:	0f 92       	push	r0
    360c:	11 24       	eor	r1, r1
    360e:	2f 93       	push	r18
    3610:	3f 93       	push	r19
    3612:	4f 93       	push	r20
    3614:	5f 93       	push	r21
    3616:	6f 93       	push	r22
    3618:	7f 93       	push	r23
    361a:	8f 93       	push	r24
    361c:	9f 93       	push	r25
    361e:	af 93       	push	r26
    3620:	bf 93       	push	r27
    3622:	ef 93       	push	r30
    3624:	ff 93       	push	r31
    3626:	cf 93       	push	r28
    3628:	df 93       	push	r29
    362a:	0f 92       	push	r0
    362c:	cd b7       	in	r28, 0x3d	; 61
    362e:	de b7       	in	r29, 0x3e	; 62
    3630:	f8 94       	cli
    3632:	8b e0       	ldi	r24, 0x0B	; 11
    3634:	91 e0       	ldi	r25, 0x01	; 1
    3636:	2b e0       	ldi	r18, 0x0B	; 11
    3638:	31 e0       	ldi	r19, 0x01	; 1
    363a:	f9 01       	movw	r30, r18
    363c:	20 81       	ld	r18, Z
    363e:	28 60       	ori	r18, 0x08	; 8
    3640:	fc 01       	movw	r30, r24
    3642:	20 83       	st	Z, r18
    3644:	81 e0       	ldi	r24, 0x01	; 1
    3646:	80 93 c7 02 	sts	0x02C7, r24
    364a:	89 ec       	ldi	r24, 0xC9	; 201
    364c:	90 e0       	ldi	r25, 0x00	; 0
    364e:	29 ec       	ldi	r18, 0xC9	; 201
    3650:	30 e0       	ldi	r19, 0x00	; 0
    3652:	f9 01       	movw	r30, r18
    3654:	20 81       	ld	r18, Z
    3656:	20 68       	ori	r18, 0x80	; 128
    3658:	fc 01       	movw	r30, r24
    365a:	20 83       	st	Z, r18
    365c:	8d e3       	ldi	r24, 0x3D	; 61
    365e:	90 e0       	ldi	r25, 0x00	; 0
    3660:	2d e3       	ldi	r18, 0x3D	; 61
    3662:	30 e0       	ldi	r19, 0x00	; 0
    3664:	f9 01       	movw	r30, r18
    3666:	20 81       	ld	r18, Z
    3668:	2c 7f       	andi	r18, 0xFC	; 252
    366a:	fc 01       	movw	r30, r24
    366c:	20 83       	st	Z, r18
    366e:	8e ec       	ldi	r24, 0xCE	; 206
    3670:	90 e0       	ldi	r25, 0x00	; 0
    3672:	fc 01       	movw	r30, r24
    3674:	80 81       	ld	r24, Z
    3676:	89 83       	std	Y+1, r24	; 0x01
    3678:	88 e7       	ldi	r24, 0x78	; 120
    367a:	92 e0       	ldi	r25, 0x02	; 2
    367c:	0e 94 f8 09 	call	0x13f0	; 0x13f0 <_Z9PrintWAVRPc>
    3680:	8b e0       	ldi	r24, 0x0B	; 11
    3682:	91 e0       	ldi	r25, 0x01	; 1
    3684:	2b e0       	ldi	r18, 0x0B	; 11
    3686:	31 e0       	ldi	r19, 0x01	; 1
    3688:	f9 01       	movw	r30, r18
    368a:	20 81       	ld	r18, Z
    368c:	27 7f       	andi	r18, 0xF7	; 247
    368e:	fc 01       	movw	r30, r24
    3690:	20 83       	st	Z, r18
    3692:	78 94       	sei
    3694:	0f 90       	pop	r0
    3696:	df 91       	pop	r29
    3698:	cf 91       	pop	r28
    369a:	ff 91       	pop	r31
    369c:	ef 91       	pop	r30
    369e:	bf 91       	pop	r27
    36a0:	af 91       	pop	r26
    36a2:	9f 91       	pop	r25
    36a4:	8f 91       	pop	r24
    36a6:	7f 91       	pop	r23
    36a8:	6f 91       	pop	r22
    36aa:	5f 91       	pop	r21
    36ac:	4f 91       	pop	r20
    36ae:	3f 91       	pop	r19
    36b0:	2f 91       	pop	r18
    36b2:	0f 90       	pop	r0
    36b4:	00 92 5b 00 	sts	0x005B, r0
    36b8:	0f 90       	pop	r0
    36ba:	0f be       	out	0x3f, r0	; 63
    36bc:	0f 90       	pop	r0
    36be:	1f 90       	pop	r1
    36c0:	18 95       	reti

000036c2 <__vector_2>:
    36c2:	1f 92       	push	r1
    36c4:	0f 92       	push	r0
    36c6:	0f b6       	in	r0, 0x3f	; 63
    36c8:	0f 92       	push	r0
    36ca:	00 90 5b 00 	lds	r0, 0x005B
    36ce:	0f 92       	push	r0
    36d0:	11 24       	eor	r1, r1
    36d2:	2f 93       	push	r18
    36d4:	3f 93       	push	r19
    36d6:	4f 93       	push	r20
    36d8:	5f 93       	push	r21
    36da:	6f 93       	push	r22
    36dc:	7f 93       	push	r23
    36de:	8f 93       	push	r24
    36e0:	9f 93       	push	r25
    36e2:	af 93       	push	r26
    36e4:	bf 93       	push	r27
    36e6:	ef 93       	push	r30
    36e8:	ff 93       	push	r31
    36ea:	cf 93       	push	r28
    36ec:	df 93       	push	r29
    36ee:	0f 92       	push	r0
    36f0:	cd b7       	in	r28, 0x3d	; 61
    36f2:	de b7       	in	r29, 0x3e	; 62
    36f4:	f8 94       	cli
    36f6:	81 e0       	ldi	r24, 0x01	; 1
    36f8:	80 93 c8 02 	sts	0x02C8, r24
    36fc:	81 ec       	ldi	r24, 0xC1	; 193
    36fe:	90 e0       	ldi	r25, 0x00	; 0
    3700:	21 ec       	ldi	r18, 0xC1	; 193
    3702:	30 e0       	ldi	r19, 0x00	; 0
    3704:	f9 01       	movw	r30, r18
    3706:	20 81       	ld	r18, Z
    3708:	20 68       	ori	r18, 0x80	; 128
    370a:	fc 01       	movw	r30, r24
    370c:	20 83       	st	Z, r18
    370e:	8d e3       	ldi	r24, 0x3D	; 61
    3710:	90 e0       	ldi	r25, 0x00	; 0
    3712:	2d e3       	ldi	r18, 0x3D	; 61
    3714:	30 e0       	ldi	r19, 0x00	; 0
    3716:	f9 01       	movw	r30, r18
    3718:	20 81       	ld	r18, Z
    371a:	2c 7f       	andi	r18, 0xFC	; 252
    371c:	fc 01       	movw	r30, r24
    371e:	20 83       	st	Z, r18
    3720:	86 ec       	ldi	r24, 0xC6	; 198
    3722:	90 e0       	ldi	r25, 0x00	; 0
    3724:	fc 01       	movw	r30, r24
    3726:	80 81       	ld	r24, Z
    3728:	89 83       	std	Y+1, r24	; 0x01
    372a:	88 e7       	ldi	r24, 0x78	; 120
    372c:	92 e0       	ldi	r25, 0x02	; 2
    372e:	0e 94 ae 09 	call	0x135c	; 0x135c <_Z9PrintBonePc>
    3732:	78 94       	sei
    3734:	0f 90       	pop	r0
    3736:	df 91       	pop	r29
    3738:	cf 91       	pop	r28
    373a:	ff 91       	pop	r31
    373c:	ef 91       	pop	r30
    373e:	bf 91       	pop	r27
    3740:	af 91       	pop	r26
    3742:	9f 91       	pop	r25
    3744:	8f 91       	pop	r24
    3746:	7f 91       	pop	r23
    3748:	6f 91       	pop	r22
    374a:	5f 91       	pop	r21
    374c:	4f 91       	pop	r20
    374e:	3f 91       	pop	r19
    3750:	2f 91       	pop	r18
    3752:	0f 90       	pop	r0
    3754:	00 92 5b 00 	sts	0x005B, r0
    3758:	0f 90       	pop	r0
    375a:	0f be       	out	0x3f, r0	; 63
    375c:	0f 90       	pop	r0
    375e:	1f 90       	pop	r1
    3760:	18 95       	reti

00003762 <__vector_7>:
    3762:	1f 92       	push	r1
    3764:	0f 92       	push	r0
    3766:	0f b6       	in	r0, 0x3f	; 63
    3768:	0f 92       	push	r0
    376a:	00 90 5b 00 	lds	r0, 0x005B
    376e:	0f 92       	push	r0
    3770:	11 24       	eor	r1, r1
    3772:	2f 93       	push	r18
    3774:	3f 93       	push	r19
    3776:	4f 93       	push	r20
    3778:	5f 93       	push	r21
    377a:	6f 93       	push	r22
    377c:	7f 93       	push	r23
    377e:	8f 93       	push	r24
    3780:	9f 93       	push	r25
    3782:	af 93       	push	r26
    3784:	bf 93       	push	r27
    3786:	ef 93       	push	r30
    3788:	ff 93       	push	r31
    378a:	cf 93       	push	r28
    378c:	df 93       	push	r29
    378e:	0f 92       	push	r0
    3790:	0f 92       	push	r0
    3792:	cd b7       	in	r28, 0x3d	; 61
    3794:	de b7       	in	r29, 0x3e	; 62
    3796:	f8 94       	cli
    3798:	84 e8       	ldi	r24, 0x84	; 132
    379a:	90 e0       	ldi	r25, 0x00	; 0
    379c:	fc 01       	movw	r30, r24
    379e:	80 81       	ld	r24, Z
    37a0:	91 81       	ldd	r25, Z+1	; 0x01
    37a2:	9a 83       	std	Y+2, r25	; 0x02
    37a4:	89 83       	std	Y+1, r24	; 0x01
    37a6:	8b e0       	ldi	r24, 0x0B	; 11
    37a8:	91 e0       	ldi	r25, 0x01	; 1
    37aa:	2b e0       	ldi	r18, 0x0B	; 11
    37ac:	31 e0       	ldi	r19, 0x01	; 1
    37ae:	f9 01       	movw	r30, r18
    37b0:	20 81       	ld	r18, Z
    37b2:	20 64       	ori	r18, 0x40	; 64
    37b4:	fc 01       	movw	r30, r24
    37b6:	20 83       	st	Z, r18
    37b8:	88 ec       	ldi	r24, 0xC8	; 200
    37ba:	90 e0       	ldi	r25, 0x00	; 0
    37bc:	0e 94 61 09 	call	0x12c2	; 0x12c2 <_Z7Wait_msj>
    37c0:	80 91 33 03 	lds	r24, 0x0333
    37c4:	88 23       	and	r24, r24
    37c6:	39 f0       	breq	.+14     	; 0x37d6 <__vector_7+0x74>
    37c8:	10 92 33 03 	sts	0x0333, r1
    37cc:	81 ef       	ldi	r24, 0xF1	; 241
    37ce:	92 e0       	ldi	r25, 0x02	; 2
    37d0:	0e 94 fd 13 	call	0x27fa	; 0x27fa <_ZN8odometer16resetSpeedPointsEv>
    37d4:	0d c0       	rjmp	.+26     	; 0x37f0 <__vector_7+0x8e>
    37d6:	80 91 31 03 	lds	r24, 0x0331
    37da:	90 91 32 03 	lds	r25, 0x0332
    37de:	29 81       	ldd	r18, Y+1	; 0x01
    37e0:	3a 81       	ldd	r19, Y+2	; 0x02
    37e2:	28 1b       	sub	r18, r24
    37e4:	39 0b       	sbc	r19, r25
    37e6:	81 ef       	ldi	r24, 0xF1	; 241
    37e8:	92 e0       	ldi	r25, 0x02	; 2
    37ea:	b9 01       	movw	r22, r18
    37ec:	0e 94 53 13 	call	0x26a6	; 0x26a6 <_ZN8odometer17addSpeedDataPointEj>
    37f0:	10 92 32 03 	sts	0x0332, r1
    37f4:	10 92 31 03 	sts	0x0331, r1
    37f8:	8b e0       	ldi	r24, 0x0B	; 11
    37fa:	91 e0       	ldi	r25, 0x01	; 1
    37fc:	2b e0       	ldi	r18, 0x0B	; 11
    37fe:	31 e0       	ldi	r19, 0x01	; 1
    3800:	f9 01       	movw	r30, r18
    3802:	20 81       	ld	r18, Z
    3804:	2f 7b       	andi	r18, 0xBF	; 191
    3806:	fc 01       	movw	r30, r24
    3808:	20 83       	st	Z, r18
    380a:	84 e8       	ldi	r24, 0x84	; 132
    380c:	90 e0       	ldi	r25, 0x00	; 0
    380e:	fc 01       	movw	r30, r24
    3810:	11 82       	std	Z+1, r1	; 0x01
    3812:	10 82       	st	Z, r1
    3814:	78 94       	sei
    3816:	0f 90       	pop	r0
    3818:	0f 90       	pop	r0
    381a:	df 91       	pop	r29
    381c:	cf 91       	pop	r28
    381e:	ff 91       	pop	r31
    3820:	ef 91       	pop	r30
    3822:	bf 91       	pop	r27
    3824:	af 91       	pop	r26
    3826:	9f 91       	pop	r25
    3828:	8f 91       	pop	r24
    382a:	7f 91       	pop	r23
    382c:	6f 91       	pop	r22
    382e:	5f 91       	pop	r21
    3830:	4f 91       	pop	r20
    3832:	3f 91       	pop	r19
    3834:	2f 91       	pop	r18
    3836:	0f 90       	pop	r0
    3838:	00 92 5b 00 	sts	0x005B, r0
    383c:	0f 90       	pop	r0
    383e:	0f be       	out	0x3f, r0	; 63
    3840:	0f 90       	pop	r0
    3842:	1f 90       	pop	r1
    3844:	18 95       	reti

00003846 <__vector_8>:
    3846:	1f 92       	push	r1
    3848:	0f 92       	push	r0
    384a:	0f b6       	in	r0, 0x3f	; 63
    384c:	0f 92       	push	r0
    384e:	11 24       	eor	r1, r1
    3850:	8f 93       	push	r24
    3852:	cf 93       	push	r28
    3854:	df 93       	push	r29
    3856:	cd b7       	in	r28, 0x3d	; 61
    3858:	de b7       	in	r29, 0x3e	; 62
    385a:	f8 94       	cli
    385c:	80 91 bd 02 	lds	r24, 0x02BD
    3860:	88 23       	and	r24, r24
    3862:	19 f0       	breq	.+6      	; 0x386a <__vector_8+0x24>
    3864:	10 92 bd 02 	sts	0x02BD, r1
    3868:	03 c0       	rjmp	.+6      	; 0x3870 <__vector_8+0x2a>
    386a:	81 e0       	ldi	r24, 0x01	; 1
    386c:	80 93 bd 02 	sts	0x02BD, r24
    3870:	78 94       	sei
    3872:	df 91       	pop	r29
    3874:	cf 91       	pop	r28
    3876:	8f 91       	pop	r24
    3878:	0f 90       	pop	r0
    387a:	0f be       	out	0x3f, r0	; 63
    387c:	0f 90       	pop	r0
    387e:	1f 90       	pop	r1
    3880:	18 95       	reti

00003882 <__vector_21>:
    3882:	1f 92       	push	r1
    3884:	0f 92       	push	r0
    3886:	0f b6       	in	r0, 0x3f	; 63
    3888:	0f 92       	push	r0
    388a:	00 90 5b 00 	lds	r0, 0x005B
    388e:	0f 92       	push	r0
    3890:	11 24       	eor	r1, r1
    3892:	2f 93       	push	r18
    3894:	3f 93       	push	r19
    3896:	4f 93       	push	r20
    3898:	5f 93       	push	r21
    389a:	6f 93       	push	r22
    389c:	7f 93       	push	r23
    389e:	8f 93       	push	r24
    38a0:	9f 93       	push	r25
    38a2:	af 93       	push	r26
    38a4:	bf 93       	push	r27
    38a6:	ef 93       	push	r30
    38a8:	ff 93       	push	r31
    38aa:	cf 93       	push	r28
    38ac:	df 93       	push	r29
    38ae:	0f 92       	push	r0
    38b0:	0f 92       	push	r0
    38b2:	cd b7       	in	r28, 0x3d	; 61
    38b4:	de b7       	in	r29, 0x3e	; 62
    38b6:	f8 94       	cli
    38b8:	1a 82       	std	Y+2, r1	; 0x02
    38ba:	19 82       	std	Y+1, r1	; 0x01
    38bc:	0e 94 1c 21 	call	0x4238	; 0x4238 <_Z6GetADCv>
    38c0:	9a 83       	std	Y+2, r25	; 0x02
    38c2:	89 83       	std	Y+1, r24	; 0x01
    38c4:	80 91 95 05 	lds	r24, 0x0595
    38c8:	90 91 96 05 	lds	r25, 0x0596
    38cc:	49 81       	ldd	r20, Y+1	; 0x01
    38ce:	5a 81       	ldd	r21, Y+2	; 0x02
    38d0:	9c 01       	movw	r18, r24
    38d2:	22 0f       	add	r18, r18
    38d4:	33 1f       	adc	r19, r19
    38d6:	2b 5c       	subi	r18, 0xCB	; 203
    38d8:	3c 4f       	sbci	r19, 0xFC	; 252
    38da:	f9 01       	movw	r30, r18
    38dc:	51 83       	std	Z+1, r21	; 0x01
    38de:	40 83       	st	Z, r20
    38e0:	01 96       	adiw	r24, 0x01	; 1
    38e2:	90 93 96 05 	sts	0x0596, r25
    38e6:	80 93 95 05 	sts	0x0595, r24
    38ea:	80 91 95 05 	lds	r24, 0x0595
    38ee:	90 91 96 05 	lds	r25, 0x0596
    38f2:	21 e0       	ldi	r18, 0x01	; 1
    38f4:	f1 e0       	ldi	r31, 0x01	; 1
    38f6:	8c 32       	cpi	r24, 0x2C	; 44
    38f8:	9f 07       	cpc	r25, r31
    38fa:	08 f4       	brcc	.+2      	; 0x38fe <__vector_21+0x7c>
    38fc:	20 e0       	ldi	r18, 0x00	; 0
    38fe:	22 23       	and	r18, r18
    3900:	69 f0       	breq	.+26     	; 0x391c <__vector_21+0x9a>
    3902:	10 92 96 05 	sts	0x0596, r1
    3906:	10 92 95 05 	sts	0x0595, r1
    390a:	83 e2       	ldi	r24, 0x23	; 35
    390c:	93 e0       	ldi	r25, 0x03	; 3
    390e:	25 e3       	ldi	r18, 0x35	; 53
    3910:	33 e0       	ldi	r19, 0x03	; 3
    3912:	b9 01       	movw	r22, r18
    3914:	4c e2       	ldi	r20, 0x2C	; 44
    3916:	51 e0       	ldi	r21, 0x01	; 1
    3918:	0e 94 f6 16 	call	0x2dec	; 0x2dec <_ZN12heartMonitor11calculateHREPji>
    391c:	78 94       	sei
    391e:	0f 90       	pop	r0
    3920:	0f 90       	pop	r0
    3922:	df 91       	pop	r29
    3924:	cf 91       	pop	r28
    3926:	ff 91       	pop	r31
    3928:	ef 91       	pop	r30
    392a:	bf 91       	pop	r27
    392c:	af 91       	pop	r26
    392e:	9f 91       	pop	r25
    3930:	8f 91       	pop	r24
    3932:	7f 91       	pop	r23
    3934:	6f 91       	pop	r22
    3936:	5f 91       	pop	r21
    3938:	4f 91       	pop	r20
    393a:	3f 91       	pop	r19
    393c:	2f 91       	pop	r18
    393e:	0f 90       	pop	r0
    3940:	00 92 5b 00 	sts	0x005B, r0
    3944:	0f 90       	pop	r0
    3946:	0f be       	out	0x3f, r0	; 63
    3948:	0f 90       	pop	r0
    394a:	1f 90       	pop	r1
    394c:	18 95       	reti

0000394e <__vector_20>:
    394e:	1f 92       	push	r1
    3950:	0f 92       	push	r0
    3952:	0f b6       	in	r0, 0x3f	; 63
    3954:	0f 92       	push	r0
    3956:	00 90 5b 00 	lds	r0, 0x005B
    395a:	0f 92       	push	r0
    395c:	11 24       	eor	r1, r1
    395e:	2f 93       	push	r18
    3960:	3f 93       	push	r19
    3962:	4f 93       	push	r20
    3964:	5f 93       	push	r21
    3966:	6f 93       	push	r22
    3968:	7f 93       	push	r23
    396a:	8f 93       	push	r24
    396c:	9f 93       	push	r25
    396e:	af 93       	push	r26
    3970:	bf 93       	push	r27
    3972:	ef 93       	push	r30
    3974:	ff 93       	push	r31
    3976:	cf 93       	push	r28
    3978:	df 93       	push	r29
    397a:	cd b7       	in	r28, 0x3d	; 61
    397c:	de b7       	in	r29, 0x3e	; 62
    397e:	f8 94       	cli
    3980:	80 91 31 03 	lds	r24, 0x0331
    3984:	90 91 32 03 	lds	r25, 0x0332
    3988:	21 e0       	ldi	r18, 0x01	; 1
    398a:	85 30       	cpi	r24, 0x05	; 5
    398c:	91 05       	cpc	r25, r1
    398e:	08 f4       	brcc	.+2      	; 0x3992 <__vector_20+0x44>
    3990:	20 e0       	ldi	r18, 0x00	; 0
    3992:	01 96       	adiw	r24, 0x01	; 1
    3994:	90 93 32 03 	sts	0x0332, r25
    3998:	80 93 31 03 	sts	0x0331, r24
    399c:	22 23       	and	r18, r18
    399e:	31 f0       	breq	.+12     	; 0x39ac <__vector_20+0x5e>
    39a0:	80 91 33 03 	lds	r24, 0x0333
    39a4:	88 23       	and	r24, r24
    39a6:	11 f4       	brne	.+4      	; 0x39ac <__vector_20+0x5e>
    39a8:	81 e0       	ldi	r24, 0x01	; 1
    39aa:	01 c0       	rjmp	.+2      	; 0x39ae <__vector_20+0x60>
    39ac:	80 e0       	ldi	r24, 0x00	; 0
    39ae:	88 23       	and	r24, r24
    39b0:	39 f0       	breq	.+14     	; 0x39c0 <__vector_20+0x72>
    39b2:	81 e0       	ldi	r24, 0x01	; 1
    39b4:	80 93 33 03 	sts	0x0333, r24
    39b8:	81 ef       	ldi	r24, 0xF1	; 241
    39ba:	92 e0       	ldi	r25, 0x02	; 2
    39bc:	0e 94 fd 13 	call	0x27fa	; 0x27fa <_ZN8odometer16resetSpeedPointsEv>
    39c0:	78 94       	sei
    39c2:	df 91       	pop	r29
    39c4:	cf 91       	pop	r28
    39c6:	ff 91       	pop	r31
    39c8:	ef 91       	pop	r30
    39ca:	bf 91       	pop	r27
    39cc:	af 91       	pop	r26
    39ce:	9f 91       	pop	r25
    39d0:	8f 91       	pop	r24
    39d2:	7f 91       	pop	r23
    39d4:	6f 91       	pop	r22
    39d6:	5f 91       	pop	r21
    39d8:	4f 91       	pop	r20
    39da:	3f 91       	pop	r19
    39dc:	2f 91       	pop	r18
    39de:	0f 90       	pop	r0
    39e0:	00 92 5b 00 	sts	0x005B, r0
    39e4:	0f 90       	pop	r0
    39e6:	0f be       	out	0x3f, r0	; 63
    39e8:	0f 90       	pop	r0
    39ea:	1f 90       	pop	r1
    39ec:	18 95       	reti

000039ee <__vector_15>:
    39ee:	1f 92       	push	r1
    39f0:	0f 92       	push	r0
    39f2:	0f b6       	in	r0, 0x3f	; 63
    39f4:	0f 92       	push	r0
    39f6:	00 90 5b 00 	lds	r0, 0x005B
    39fa:	0f 92       	push	r0
    39fc:	11 24       	eor	r1, r1
    39fe:	2f 93       	push	r18
    3a00:	3f 93       	push	r19
    3a02:	4f 93       	push	r20
    3a04:	5f 93       	push	r21
    3a06:	6f 93       	push	r22
    3a08:	7f 93       	push	r23
    3a0a:	8f 93       	push	r24
    3a0c:	9f 93       	push	r25
    3a0e:	af 93       	push	r26
    3a10:	bf 93       	push	r27
    3a12:	ef 93       	push	r30
    3a14:	ff 93       	push	r31
    3a16:	cf 93       	push	r28
    3a18:	df 93       	push	r29
    3a1a:	cd b7       	in	r28, 0x3d	; 61
    3a1c:	de b7       	in	r29, 0x3e	; 62
    3a1e:	85 e2       	ldi	r24, 0x25	; 37
    3a20:	90 e0       	ldi	r25, 0x00	; 0
    3a22:	25 e2       	ldi	r18, 0x25	; 37
    3a24:	30 e0       	ldi	r19, 0x00	; 0
    3a26:	f9 01       	movw	r30, r18
    3a28:	30 81       	ld	r19, Z
    3a2a:	20 e2       	ldi	r18, 0x20	; 32
    3a2c:	23 27       	eor	r18, r19
    3a2e:	fc 01       	movw	r30, r24
    3a30:	20 83       	st	Z, r18
    3a32:	89 ec       	ldi	r24, 0xC9	; 201
    3a34:	92 e0       	ldi	r25, 0x02	; 2
    3a36:	61 e0       	ldi	r22, 0x01	; 1
    3a38:	70 e0       	ldi	r23, 0x00	; 0
    3a3a:	0e 94 b6 06 	call	0xd6c	; 0xd6c <_ZN6myTime10addSecondsEi>
    3a3e:	80 91 8d 05 	lds	r24, 0x058D
    3a42:	90 91 8e 05 	lds	r25, 0x058E
    3a46:	89 30       	cpi	r24, 0x09	; 9
    3a48:	91 05       	cpc	r25, r1
    3a4a:	54 f4       	brge	.+20     	; 0x3a60 <__vector_15+0x72>
    3a4c:	80 91 c3 02 	lds	r24, 0x02C3
    3a50:	88 23       	and	r24, r24
    3a52:	21 f4       	brne	.+8      	; 0x3a5c <__vector_15+0x6e>
    3a54:	80 91 c7 02 	lds	r24, 0x02C7
    3a58:	88 23       	and	r24, r24
    3a5a:	11 f0       	breq	.+4      	; 0x3a60 <__vector_15+0x72>
    3a5c:	81 e0       	ldi	r24, 0x01	; 1
    3a5e:	01 c0       	rjmp	.+2      	; 0x3a62 <__vector_15+0x74>
    3a60:	80 e0       	ldi	r24, 0x00	; 0
    3a62:	88 23       	and	r24, r24
    3a64:	51 f0       	breq	.+20     	; 0x3a7a <__vector_15+0x8c>
    3a66:	80 91 8d 05 	lds	r24, 0x058D
    3a6a:	90 91 8e 05 	lds	r25, 0x058E
    3a6e:	01 96       	adiw	r24, 0x01	; 1
    3a70:	90 93 8e 05 	sts	0x058E, r25
    3a74:	80 93 8d 05 	sts	0x058D, r24
    3a78:	3e c0       	rjmp	.+124    	; 0x3af6 <__vector_15+0x108>
    3a7a:	80 91 8d 05 	lds	r24, 0x058D
    3a7e:	90 91 8e 05 	lds	r25, 0x058E
    3a82:	89 30       	cpi	r24, 0x09	; 9
    3a84:	91 05       	cpc	r25, r1
    3a86:	54 f0       	brlt	.+20     	; 0x3a9c <__vector_15+0xae>
    3a88:	80 91 c3 02 	lds	r24, 0x02C3
    3a8c:	88 23       	and	r24, r24
    3a8e:	21 f4       	brne	.+8      	; 0x3a98 <__vector_15+0xaa>
    3a90:	80 91 c7 02 	lds	r24, 0x02C7
    3a94:	88 23       	and	r24, r24
    3a96:	11 f0       	breq	.+4      	; 0x3a9c <__vector_15+0xae>
    3a98:	81 e0       	ldi	r24, 0x01	; 1
    3a9a:	01 c0       	rjmp	.+2      	; 0x3a9e <__vector_15+0xb0>
    3a9c:	80 e0       	ldi	r24, 0x00	; 0
    3a9e:	88 23       	and	r24, r24
    3aa0:	91 f0       	breq	.+36     	; 0x3ac6 <__vector_15+0xd8>
    3aa2:	10 92 8e 05 	sts	0x058E, r1
    3aa6:	10 92 8d 05 	sts	0x058D, r1
    3aaa:	10 92 c3 02 	sts	0x02C3, r1
    3aae:	10 92 c7 02 	sts	0x02C7, r1
    3ab2:	8d e3       	ldi	r24, 0x3D	; 61
    3ab4:	90 e0       	ldi	r25, 0x00	; 0
    3ab6:	2d e3       	ldi	r18, 0x3D	; 61
    3ab8:	30 e0       	ldi	r19, 0x00	; 0
    3aba:	f9 01       	movw	r30, r18
    3abc:	20 81       	ld	r18, Z
    3abe:	23 60       	ori	r18, 0x03	; 3
    3ac0:	fc 01       	movw	r30, r24
    3ac2:	20 83       	st	Z, r18
    3ac4:	18 c0       	rjmp	.+48     	; 0x3af6 <__vector_15+0x108>
    3ac6:	80 91 c3 02 	lds	r24, 0x02C3
    3aca:	88 23       	and	r24, r24
    3acc:	69 f4       	brne	.+26     	; 0x3ae8 <__vector_15+0xfa>
    3ace:	80 91 c7 02 	lds	r24, 0x02C7
    3ad2:	88 23       	and	r24, r24
    3ad4:	49 f4       	brne	.+18     	; 0x3ae8 <__vector_15+0xfa>
    3ad6:	80 91 8d 05 	lds	r24, 0x058D
    3ada:	90 91 8e 05 	lds	r25, 0x058E
    3ade:	18 16       	cp	r1, r24
    3ae0:	19 06       	cpc	r1, r25
    3ae2:	14 f4       	brge	.+4      	; 0x3ae8 <__vector_15+0xfa>
    3ae4:	81 e0       	ldi	r24, 0x01	; 1
    3ae6:	01 c0       	rjmp	.+2      	; 0x3aea <__vector_15+0xfc>
    3ae8:	80 e0       	ldi	r24, 0x00	; 0
    3aea:	88 23       	and	r24, r24
    3aec:	21 f0       	breq	.+8      	; 0x3af6 <__vector_15+0x108>
    3aee:	10 92 8e 05 	sts	0x058E, r1
    3af2:	10 92 8d 05 	sts	0x058D, r1
    3af6:	80 91 8f 05 	lds	r24, 0x058F
    3afa:	90 91 90 05 	lds	r25, 0x0590
    3afe:	89 30       	cpi	r24, 0x09	; 9
    3b00:	91 05       	cpc	r25, r1
    3b02:	54 f4       	brge	.+20     	; 0x3b18 <__vector_15+0x12a>
    3b04:	80 91 c5 02 	lds	r24, 0x02C5
    3b08:	88 23       	and	r24, r24
    3b0a:	21 f4       	brne	.+8      	; 0x3b14 <__vector_15+0x126>
    3b0c:	80 91 c8 02 	lds	r24, 0x02C8
    3b10:	88 23       	and	r24, r24
    3b12:	11 f0       	breq	.+4      	; 0x3b18 <__vector_15+0x12a>
    3b14:	81 e0       	ldi	r24, 0x01	; 1
    3b16:	01 c0       	rjmp	.+2      	; 0x3b1a <__vector_15+0x12c>
    3b18:	80 e0       	ldi	r24, 0x00	; 0
    3b1a:	88 23       	and	r24, r24
    3b1c:	51 f0       	breq	.+20     	; 0x3b32 <__vector_15+0x144>
    3b1e:	80 91 8f 05 	lds	r24, 0x058F
    3b22:	90 91 90 05 	lds	r25, 0x0590
    3b26:	01 96       	adiw	r24, 0x01	; 1
    3b28:	90 93 90 05 	sts	0x0590, r25
    3b2c:	80 93 8f 05 	sts	0x058F, r24
    3b30:	3e c0       	rjmp	.+124    	; 0x3bae <__vector_15+0x1c0>
    3b32:	80 91 8f 05 	lds	r24, 0x058F
    3b36:	90 91 90 05 	lds	r25, 0x0590
    3b3a:	89 30       	cpi	r24, 0x09	; 9
    3b3c:	91 05       	cpc	r25, r1
    3b3e:	54 f0       	brlt	.+20     	; 0x3b54 <__vector_15+0x166>
    3b40:	80 91 c5 02 	lds	r24, 0x02C5
    3b44:	88 23       	and	r24, r24
    3b46:	21 f4       	brne	.+8      	; 0x3b50 <__vector_15+0x162>
    3b48:	80 91 c8 02 	lds	r24, 0x02C8
    3b4c:	88 23       	and	r24, r24
    3b4e:	11 f0       	breq	.+4      	; 0x3b54 <__vector_15+0x166>
    3b50:	81 e0       	ldi	r24, 0x01	; 1
    3b52:	01 c0       	rjmp	.+2      	; 0x3b56 <__vector_15+0x168>
    3b54:	80 e0       	ldi	r24, 0x00	; 0
    3b56:	88 23       	and	r24, r24
    3b58:	91 f0       	breq	.+36     	; 0x3b7e <__vector_15+0x190>
    3b5a:	10 92 90 05 	sts	0x0590, r1
    3b5e:	10 92 8f 05 	sts	0x058F, r1
    3b62:	10 92 c5 02 	sts	0x02C5, r1
    3b66:	10 92 c8 02 	sts	0x02C8, r1
    3b6a:	8d e3       	ldi	r24, 0x3D	; 61
    3b6c:	90 e0       	ldi	r25, 0x00	; 0
    3b6e:	2d e3       	ldi	r18, 0x3D	; 61
    3b70:	30 e0       	ldi	r19, 0x00	; 0
    3b72:	f9 01       	movw	r30, r18
    3b74:	20 81       	ld	r18, Z
    3b76:	23 60       	ori	r18, 0x03	; 3
    3b78:	fc 01       	movw	r30, r24
    3b7a:	20 83       	st	Z, r18
    3b7c:	18 c0       	rjmp	.+48     	; 0x3bae <__vector_15+0x1c0>
    3b7e:	80 91 c5 02 	lds	r24, 0x02C5
    3b82:	88 23       	and	r24, r24
    3b84:	69 f4       	brne	.+26     	; 0x3ba0 <__vector_15+0x1b2>
    3b86:	80 91 c8 02 	lds	r24, 0x02C8
    3b8a:	88 23       	and	r24, r24
    3b8c:	49 f4       	brne	.+18     	; 0x3ba0 <__vector_15+0x1b2>
    3b8e:	80 91 8f 05 	lds	r24, 0x058F
    3b92:	90 91 90 05 	lds	r25, 0x0590
    3b96:	18 16       	cp	r1, r24
    3b98:	19 06       	cpc	r1, r25
    3b9a:	14 f4       	brge	.+4      	; 0x3ba0 <__vector_15+0x1b2>
    3b9c:	81 e0       	ldi	r24, 0x01	; 1
    3b9e:	01 c0       	rjmp	.+2      	; 0x3ba2 <__vector_15+0x1b4>
    3ba0:	80 e0       	ldi	r24, 0x00	; 0
    3ba2:	88 23       	and	r24, r24
    3ba4:	21 f0       	breq	.+8      	; 0x3bae <__vector_15+0x1c0>
    3ba6:	10 92 90 05 	sts	0x0590, r1
    3baa:	10 92 8f 05 	sts	0x058F, r1
    3bae:	80 91 c4 02 	lds	r24, 0x02C4
    3bb2:	88 23       	and	r24, r24
    3bb4:	49 f0       	breq	.+18     	; 0x3bc8 <__vector_15+0x1da>
    3bb6:	80 91 91 05 	lds	r24, 0x0591
    3bba:	90 91 92 05 	lds	r25, 0x0592
    3bbe:	89 30       	cpi	r24, 0x09	; 9
    3bc0:	91 05       	cpc	r25, r1
    3bc2:	14 f4       	brge	.+4      	; 0x3bc8 <__vector_15+0x1da>
    3bc4:	81 e0       	ldi	r24, 0x01	; 1
    3bc6:	01 c0       	rjmp	.+2      	; 0x3bca <__vector_15+0x1dc>
    3bc8:	80 e0       	ldi	r24, 0x00	; 0
    3bca:	88 23       	and	r24, r24
    3bcc:	51 f0       	breq	.+20     	; 0x3be2 <__vector_15+0x1f4>
    3bce:	80 91 91 05 	lds	r24, 0x0591
    3bd2:	90 91 92 05 	lds	r25, 0x0592
    3bd6:	01 96       	adiw	r24, 0x01	; 1
    3bd8:	90 93 92 05 	sts	0x0592, r25
    3bdc:	80 93 91 05 	sts	0x0591, r24
    3be0:	34 c0       	rjmp	.+104    	; 0x3c4a <__vector_15+0x25c>
    3be2:	80 91 c4 02 	lds	r24, 0x02C4
    3be6:	88 23       	and	r24, r24
    3be8:	49 f0       	breq	.+18     	; 0x3bfc <__vector_15+0x20e>
    3bea:	80 91 91 05 	lds	r24, 0x0591
    3bee:	90 91 92 05 	lds	r25, 0x0592
    3bf2:	89 30       	cpi	r24, 0x09	; 9
    3bf4:	91 05       	cpc	r25, r1
    3bf6:	14 f0       	brlt	.+4      	; 0x3bfc <__vector_15+0x20e>
    3bf8:	81 e0       	ldi	r24, 0x01	; 1
    3bfa:	01 c0       	rjmp	.+2      	; 0x3bfe <__vector_15+0x210>
    3bfc:	80 e0       	ldi	r24, 0x00	; 0
    3bfe:	88 23       	and	r24, r24
    3c00:	81 f0       	breq	.+32     	; 0x3c22 <__vector_15+0x234>
    3c02:	10 92 92 05 	sts	0x0592, r1
    3c06:	10 92 91 05 	sts	0x0591, r1
    3c0a:	10 92 c4 02 	sts	0x02C4, r1
    3c0e:	8d e3       	ldi	r24, 0x3D	; 61
    3c10:	90 e0       	ldi	r25, 0x00	; 0
    3c12:	2d e3       	ldi	r18, 0x3D	; 61
    3c14:	30 e0       	ldi	r19, 0x00	; 0
    3c16:	f9 01       	movw	r30, r18
    3c18:	20 81       	ld	r18, Z
    3c1a:	23 60       	ori	r18, 0x03	; 3
    3c1c:	fc 01       	movw	r30, r24
    3c1e:	20 83       	st	Z, r18
    3c20:	14 c0       	rjmp	.+40     	; 0x3c4a <__vector_15+0x25c>
    3c22:	80 91 c4 02 	lds	r24, 0x02C4
    3c26:	88 23       	and	r24, r24
    3c28:	49 f4       	brne	.+18     	; 0x3c3c <__vector_15+0x24e>
    3c2a:	80 91 91 05 	lds	r24, 0x0591
    3c2e:	90 91 92 05 	lds	r25, 0x0592
    3c32:	18 16       	cp	r1, r24
    3c34:	19 06       	cpc	r1, r25
    3c36:	14 f4       	brge	.+4      	; 0x3c3c <__vector_15+0x24e>
    3c38:	81 e0       	ldi	r24, 0x01	; 1
    3c3a:	01 c0       	rjmp	.+2      	; 0x3c3e <__vector_15+0x250>
    3c3c:	80 e0       	ldi	r24, 0x00	; 0
    3c3e:	88 23       	and	r24, r24
    3c40:	21 f0       	breq	.+8      	; 0x3c4a <__vector_15+0x25c>
    3c42:	10 92 92 05 	sts	0x0592, r1
    3c46:	10 92 91 05 	sts	0x0591, r1
    3c4a:	df 91       	pop	r29
    3c4c:	cf 91       	pop	r28
    3c4e:	ff 91       	pop	r31
    3c50:	ef 91       	pop	r30
    3c52:	bf 91       	pop	r27
    3c54:	af 91       	pop	r26
    3c56:	9f 91       	pop	r25
    3c58:	8f 91       	pop	r24
    3c5a:	7f 91       	pop	r23
    3c5c:	6f 91       	pop	r22
    3c5e:	5f 91       	pop	r21
    3c60:	4f 91       	pop	r20
    3c62:	3f 91       	pop	r19
    3c64:	2f 91       	pop	r18
    3c66:	0f 90       	pop	r0
    3c68:	00 92 5b 00 	sts	0x005B, r0
    3c6c:	0f 90       	pop	r0
    3c6e:	0f be       	out	0x3f, r0	; 63
    3c70:	0f 90       	pop	r0
    3c72:	1f 90       	pop	r1
    3c74:	18 95       	reti

00003c76 <main>:
    3c76:	cf 93       	push	r28
    3c78:	df 93       	push	r29
    3c7a:	cd b7       	in	r28, 0x3d	; 61
    3c7c:	de b7       	in	r29, 0x3e	; 62
    3c7e:	0e 94 4e 1f 	call	0x3e9c	; 0x3e9c <_Z10DeviceInitv>
    3c82:	83 e3       	ldi	r24, 0x33	; 51
    3c84:	90 e0       	ldi	r25, 0x00	; 0
    3c86:	0e 94 a5 1f 	call	0x3f4a	; 0x3f4a <_Z7AppInitj>
    3c8a:	0e 94 4d 20 	call	0x409a	; 0x409a <_Z14EnableRTCTimerv>
    3c8e:	81 e0       	ldi	r24, 0x01	; 1
    3c90:	61 e0       	ldi	r22, 0x01	; 1
    3c92:	0e 94 4d 08 	call	0x109a	; 0x109a <_Z18getDateTime_eepromhh>
    3c96:	78 94       	sei
    3c98:	01 c0       	rjmp	.+2      	; 0x3c9c <main+0x26>
    3c9a:	00 00       	nop
    3c9c:	80 91 c3 02 	lds	r24, 0x02C3
    3ca0:	88 23       	and	r24, r24
    3ca2:	09 f1       	breq	.+66     	; 0x3ce6 <main+0x70>
    3ca4:	80 91 bd 02 	lds	r24, 0x02BD
    3ca8:	88 23       	and	r24, r24
    3caa:	e9 f4       	brne	.+58     	; 0x3ce6 <main+0x70>
    3cac:	85 e2       	ldi	r24, 0x25	; 37
    3cae:	90 e0       	ldi	r25, 0x00	; 0
    3cb0:	25 e2       	ldi	r18, 0x25	; 37
    3cb2:	30 e0       	ldi	r19, 0x00	; 0
    3cb4:	f9 01       	movw	r30, r18
    3cb6:	20 81       	ld	r18, Z
    3cb8:	20 64       	ori	r18, 0x40	; 64
    3cba:	fc 01       	movw	r30, r24
    3cbc:	20 83       	st	Z, r18
    3cbe:	0e 94 28 0a 	call	0x1450	; 0x1450 <_Z11ReceiveWAVRv>
    3cc2:	8d e3       	ldi	r24, 0x3D	; 61
    3cc4:	90 e0       	ldi	r25, 0x00	; 0
    3cc6:	2d e3       	ldi	r18, 0x3D	; 61
    3cc8:	30 e0       	ldi	r19, 0x00	; 0
    3cca:	f9 01       	movw	r30, r18
    3ccc:	20 81       	ld	r18, Z
    3cce:	23 60       	ori	r18, 0x03	; 3
    3cd0:	fc 01       	movw	r30, r24
    3cd2:	20 83       	st	Z, r18
    3cd4:	85 e2       	ldi	r24, 0x25	; 37
    3cd6:	90 e0       	ldi	r25, 0x00	; 0
    3cd8:	25 e2       	ldi	r18, 0x25	; 37
    3cda:	30 e0       	ldi	r19, 0x00	; 0
    3cdc:	f9 01       	movw	r30, r18
    3cde:	20 81       	ld	r18, Z
    3ce0:	2f 7b       	andi	r18, 0xBF	; 191
    3ce2:	fc 01       	movw	r30, r24
    3ce4:	20 83       	st	Z, r18
    3ce6:	80 91 c5 02 	lds	r24, 0x02C5
    3cea:	88 23       	and	r24, r24
    3cec:	39 f1       	breq	.+78     	; 0x3d3c <main+0xc6>
    3cee:	80 91 bd 02 	lds	r24, 0x02BD
    3cf2:	88 23       	and	r24, r24
    3cf4:	19 f5       	brne	.+70     	; 0x3d3c <main+0xc6>
    3cf6:	85 e2       	ldi	r24, 0x25	; 37
    3cf8:	90 e0       	ldi	r25, 0x00	; 0
    3cfa:	25 e2       	ldi	r18, 0x25	; 37
    3cfc:	30 e0       	ldi	r19, 0x00	; 0
    3cfe:	f9 01       	movw	r30, r18
    3d00:	20 81       	ld	r18, Z
    3d02:	20 68       	ori	r18, 0x80	; 128
    3d04:	fc 01       	movw	r30, r24
    3d06:	20 83       	st	Z, r18
    3d08:	0e 94 86 0d 	call	0x1b0c	; 0x1b0c <_Z11ReceiveBonev>
    3d0c:	10 92 c5 02 	sts	0x02C5, r1
    3d10:	85 e2       	ldi	r24, 0x25	; 37
    3d12:	90 e0       	ldi	r25, 0x00	; 0
    3d14:	25 e2       	ldi	r18, 0x25	; 37
    3d16:	30 e0       	ldi	r19, 0x00	; 0
    3d18:	f9 01       	movw	r30, r18
    3d1a:	20 81       	ld	r18, Z
    3d1c:	2f 77       	andi	r18, 0x7F	; 127
    3d1e:	fc 01       	movw	r30, r24
    3d20:	20 83       	st	Z, r18
    3d22:	82 e0       	ldi	r24, 0x02	; 2
    3d24:	90 e0       	ldi	r25, 0x00	; 0
    3d26:	0e 94 8b 20 	call	0x4116	; 0x4116 <_Z8Wait_secj>
    3d2a:	8d e3       	ldi	r24, 0x3D	; 61
    3d2c:	90 e0       	ldi	r25, 0x00	; 0
    3d2e:	2d e3       	ldi	r18, 0x3D	; 61
    3d30:	30 e0       	ldi	r19, 0x00	; 0
    3d32:	f9 01       	movw	r30, r18
    3d34:	20 81       	ld	r18, Z
    3d36:	23 60       	ori	r18, 0x03	; 3
    3d38:	fc 01       	movw	r30, r24
    3d3a:	20 83       	st	Z, r18
    3d3c:	80 91 c0 02 	lds	r24, 0x02C0
    3d40:	88 23       	and	r24, r24
    3d42:	21 f4       	brne	.+8      	; 0x3d4c <main+0xd6>
    3d44:	80 91 c2 02 	lds	r24, 0x02C2
    3d48:	88 23       	and	r24, r24
    3d4a:	d1 f1       	breq	.+116    	; 0x3dc0 <main+0x14a>
    3d4c:	80 91 c7 02 	lds	r24, 0x02C7
    3d50:	88 23       	and	r24, r24
    3d52:	b1 f5       	brne	.+108    	; 0x3dc0 <main+0x14a>
    3d54:	80 91 bd 02 	lds	r24, 0x02BD
    3d58:	88 23       	and	r24, r24
    3d5a:	91 f5       	brne	.+100    	; 0x3dc0 <main+0x14a>
    3d5c:	8b e0       	ldi	r24, 0x0B	; 11
    3d5e:	91 e0       	ldi	r25, 0x01	; 1
    3d60:	2b e0       	ldi	r18, 0x0B	; 11
    3d62:	31 e0       	ldi	r19, 0x01	; 1
    3d64:	f9 01       	movw	r30, r18
    3d66:	20 81       	ld	r18, Z
    3d68:	20 62       	ori	r18, 0x20	; 32
    3d6a:	fc 01       	movw	r30, r24
    3d6c:	20 83       	st	Z, r18
    3d6e:	8d e3       	ldi	r24, 0x3D	; 61
    3d70:	90 e0       	ldi	r25, 0x00	; 0
    3d72:	2d e3       	ldi	r18, 0x3D	; 61
    3d74:	30 e0       	ldi	r19, 0x00	; 0
    3d76:	f9 01       	movw	r30, r18
    3d78:	20 81       	ld	r18, Z
    3d7a:	2c 7f       	andi	r18, 0xFC	; 252
    3d7c:	fc 01       	movw	r30, r24
    3d7e:	20 83       	st	Z, r18
    3d80:	84 ef       	ldi	r24, 0xF4	; 244
    3d82:	91 e0       	ldi	r25, 0x01	; 1
    3d84:	0e 94 61 09 	call	0x12c2	; 0x12c2 <_Z7Wait_msj>
    3d88:	8a ea       	ldi	r24, 0xAA	; 170
    3d8a:	92 e0       	ldi	r25, 0x02	; 2
    3d8c:	0e 94 ae 09 	call	0x135c	; 0x135c <_Z9PrintBonePc>
    3d90:	0e 94 ef 0e 	call	0x1dde	; 0x1dde <_Z8SendWAVRv>
    3d94:	8b e0       	ldi	r24, 0x0B	; 11
    3d96:	91 e0       	ldi	r25, 0x01	; 1
    3d98:	2b e0       	ldi	r18, 0x0B	; 11
    3d9a:	31 e0       	ldi	r19, 0x01	; 1
    3d9c:	f9 01       	movw	r30, r18
    3d9e:	20 81       	ld	r18, Z
    3da0:	2f 7d       	andi	r18, 0xDF	; 223
    3da2:	fc 01       	movw	r30, r24
    3da4:	20 83       	st	Z, r18
    3da6:	82 e0       	ldi	r24, 0x02	; 2
    3da8:	90 e0       	ldi	r25, 0x00	; 0
    3daa:	0e 94 8b 20 	call	0x4116	; 0x4116 <_Z8Wait_secj>
    3dae:	8d e3       	ldi	r24, 0x3D	; 61
    3db0:	90 e0       	ldi	r25, 0x00	; 0
    3db2:	2d e3       	ldi	r18, 0x3D	; 61
    3db4:	30 e0       	ldi	r19, 0x00	; 0
    3db6:	f9 01       	movw	r30, r18
    3db8:	20 81       	ld	r18, Z
    3dba:	23 60       	ori	r18, 0x03	; 3
    3dbc:	fc 01       	movw	r30, r24
    3dbe:	20 83       	st	Z, r18
    3dc0:	80 91 be 02 	lds	r24, 0x02BE
    3dc4:	88 23       	and	r24, r24
    3dc6:	49 f1       	breq	.+82     	; 0x3e1a <main+0x1a4>
    3dc8:	80 91 c7 02 	lds	r24, 0x02C7
    3dcc:	88 23       	and	r24, r24
    3dce:	29 f5       	brne	.+74     	; 0x3e1a <main+0x1a4>
    3dd0:	80 91 bd 02 	lds	r24, 0x02BD
    3dd4:	88 23       	and	r24, r24
    3dd6:	09 f5       	brne	.+66     	; 0x3e1a <main+0x1a4>
    3dd8:	8b e0       	ldi	r24, 0x0B	; 11
    3dda:	91 e0       	ldi	r25, 0x01	; 1
    3ddc:	2b e0       	ldi	r18, 0x0B	; 11
    3dde:	31 e0       	ldi	r19, 0x01	; 1
    3de0:	f9 01       	movw	r30, r18
    3de2:	20 81       	ld	r18, Z
    3de4:	21 60       	ori	r18, 0x01	; 1
    3de6:	fc 01       	movw	r30, r24
    3de8:	20 83       	st	Z, r18
    3dea:	81 e0       	ldi	r24, 0x01	; 1
    3dec:	90 e0       	ldi	r25, 0x00	; 0
    3dee:	0e 94 8b 20 	call	0x4116	; 0x4116 <_Z8Wait_secj>
    3df2:	8b e0       	ldi	r24, 0x0B	; 11
    3df4:	91 e0       	ldi	r25, 0x01	; 1
    3df6:	2b e0       	ldi	r18, 0x0B	; 11
    3df8:	31 e0       	ldi	r19, 0x01	; 1
    3dfa:	f9 01       	movw	r30, r18
    3dfc:	20 81       	ld	r18, Z
    3dfe:	2e 7f       	andi	r18, 0xFE	; 254
    3e00:	fc 01       	movw	r30, r24
    3e02:	20 83       	st	Z, r18
    3e04:	10 92 c7 02 	sts	0x02C7, r1
    3e08:	81 e0       	ldi	r24, 0x01	; 1
    3e0a:	80 93 c2 02 	sts	0x02C2, r24
    3e0e:	10 92 be 02 	sts	0x02BE, r1
    3e12:	10 92 bf 02 	sts	0x02BF, r1
    3e16:	10 92 c0 02 	sts	0x02C0, r1
    3e1a:	80 91 bd 02 	lds	r24, 0x02BD
    3e1e:	88 23       	and	r24, r24
    3e20:	a1 f1       	breq	.+104    	; 0x3e8a <main+0x214>
    3e22:	f8 94       	cli
    3e24:	8b e0       	ldi	r24, 0x0B	; 11
    3e26:	91 e0       	ldi	r25, 0x01	; 1
    3e28:	2b e0       	ldi	r18, 0x0B	; 11
    3e2a:	31 e0       	ldi	r19, 0x01	; 1
    3e2c:	f9 01       	movw	r30, r18
    3e2e:	20 81       	ld	r18, Z
    3e30:	20 68       	ori	r18, 0x80	; 128
    3e32:	fc 01       	movw	r30, r24
    3e34:	20 83       	st	Z, r18
    3e36:	84 ef       	ldi	r24, 0xF4	; 244
    3e38:	91 e0       	ldi	r25, 0x01	; 1
    3e3a:	0e 94 61 09 	call	0x12c2	; 0x12c2 <_Z7Wait_msj>
    3e3e:	8b e0       	ldi	r24, 0x0B	; 11
    3e40:	91 e0       	ldi	r25, 0x01	; 1
    3e42:	fc 01       	movw	r30, r24
    3e44:	10 82       	st	Z, r1
    3e46:	85 e2       	ldi	r24, 0x25	; 37
    3e48:	90 e0       	ldi	r25, 0x00	; 0
    3e4a:	25 e2       	ldi	r18, 0x25	; 37
    3e4c:	30 e0       	ldi	r19, 0x00	; 0
    3e4e:	f9 01       	movw	r30, r18
    3e50:	20 81       	ld	r18, Z
    3e52:	2f 71       	andi	r18, 0x1F	; 31
    3e54:	fc 01       	movw	r30, r24
    3e56:	20 83       	st	Z, r18
    3e58:	88 e0       	ldi	r24, 0x08	; 8
    3e5a:	91 e0       	ldi	r25, 0x01	; 1
    3e5c:	28 e0       	ldi	r18, 0x08	; 8
    3e5e:	31 e0       	ldi	r19, 0x01	; 1
    3e60:	f9 01       	movw	r30, r18
    3e62:	20 81       	ld	r18, Z
    3e64:	2e 7f       	andi	r18, 0xFE	; 254
    3e66:	fc 01       	movw	r30, r24
    3e68:	20 83       	st	Z, r18
    3e6a:	83 e5       	ldi	r24, 0x53	; 83
    3e6c:	90 e0       	ldi	r25, 0x00	; 0
    3e6e:	24 e0       	ldi	r18, 0x04	; 4
    3e70:	fc 01       	movw	r30, r24
    3e72:	20 83       	st	Z, r18
    3e74:	83 e5       	ldi	r24, 0x53	; 83
    3e76:	90 e0       	ldi	r25, 0x00	; 0
    3e78:	23 e5       	ldi	r18, 0x53	; 83
    3e7a:	30 e0       	ldi	r19, 0x00	; 0
    3e7c:	f9 01       	movw	r30, r18
    3e7e:	20 81       	ld	r18, Z
    3e80:	21 60       	ori	r18, 0x01	; 1
    3e82:	fc 01       	movw	r30, r24
    3e84:	20 83       	st	Z, r18
    3e86:	78 94       	sei
    3e88:	88 95       	sleep
    3e8a:	80 91 c1 02 	lds	r24, 0x02C1
    3e8e:	88 23       	and	r24, r24
    3e90:	09 f4       	brne	.+2      	; 0x3e94 <main+0x21e>
    3e92:	03 cf       	rjmp	.-506    	; 0x3c9a <main+0x24>
    3e94:	81 e0       	ldi	r24, 0x01	; 1
    3e96:	80 93 c0 02 	sts	0x02C0, r24
    3e9a:	ff ce       	rjmp	.-514    	; 0x3c9a <main+0x24>

00003e9c <_Z10DeviceInitv>:
    3e9c:	cf 93       	push	r28
    3e9e:	df 93       	push	r29
    3ea0:	cd b7       	in	r28, 0x3d	; 61
    3ea2:	de b7       	in	r29, 0x3e	; 62
    3ea4:	84 e2       	ldi	r24, 0x24	; 36
    3ea6:	90 e0       	ldi	r25, 0x00	; 0
    3ea8:	fc 01       	movw	r30, r24
    3eaa:	10 82       	st	Z, r1
    3eac:	87 e2       	ldi	r24, 0x27	; 39
    3eae:	90 e0       	ldi	r25, 0x00	; 0
    3eb0:	fc 01       	movw	r30, r24
    3eb2:	10 82       	st	Z, r1
    3eb4:	8a e2       	ldi	r24, 0x2A	; 42
    3eb6:	90 e0       	ldi	r25, 0x00	; 0
    3eb8:	fc 01       	movw	r30, r24
    3eba:	10 82       	st	Z, r1
    3ebc:	8d e2       	ldi	r24, 0x2D	; 45
    3ebe:	90 e0       	ldi	r25, 0x00	; 0
    3ec0:	fc 01       	movw	r30, r24
    3ec2:	10 82       	st	Z, r1
    3ec4:	80 e3       	ldi	r24, 0x30	; 48
    3ec6:	90 e0       	ldi	r25, 0x00	; 0
    3ec8:	fc 01       	movw	r30, r24
    3eca:	10 82       	st	Z, r1
    3ecc:	83 e3       	ldi	r24, 0x33	; 51
    3ece:	90 e0       	ldi	r25, 0x00	; 0
    3ed0:	fc 01       	movw	r30, r24
    3ed2:	10 82       	st	Z, r1
    3ed4:	81 e0       	ldi	r24, 0x01	; 1
    3ed6:	91 e0       	ldi	r25, 0x01	; 1
    3ed8:	fc 01       	movw	r30, r24
    3eda:	10 82       	st	Z, r1
    3edc:	84 e0       	ldi	r24, 0x04	; 4
    3ede:	91 e0       	ldi	r25, 0x01	; 1
    3ee0:	fc 01       	movw	r30, r24
    3ee2:	10 82       	st	Z, r1
    3ee4:	87 e0       	ldi	r24, 0x07	; 7
    3ee6:	91 e0       	ldi	r25, 0x01	; 1
    3ee8:	fc 01       	movw	r30, r24
    3eea:	10 82       	st	Z, r1
    3eec:	8a e0       	ldi	r24, 0x0A	; 10
    3eee:	91 e0       	ldi	r25, 0x01	; 1
    3ef0:	fc 01       	movw	r30, r24
    3ef2:	10 82       	st	Z, r1
    3ef4:	85 e2       	ldi	r24, 0x25	; 37
    3ef6:	90 e0       	ldi	r25, 0x00	; 0
    3ef8:	fc 01       	movw	r30, r24
    3efa:	10 82       	st	Z, r1
    3efc:	88 e2       	ldi	r24, 0x28	; 40
    3efe:	90 e0       	ldi	r25, 0x00	; 0
    3f00:	fc 01       	movw	r30, r24
    3f02:	10 82       	st	Z, r1
    3f04:	8b e2       	ldi	r24, 0x2B	; 43
    3f06:	90 e0       	ldi	r25, 0x00	; 0
    3f08:	fc 01       	movw	r30, r24
    3f0a:	10 82       	st	Z, r1
    3f0c:	8e e2       	ldi	r24, 0x2E	; 46
    3f0e:	90 e0       	ldi	r25, 0x00	; 0
    3f10:	fc 01       	movw	r30, r24
    3f12:	10 82       	st	Z, r1
    3f14:	81 e3       	ldi	r24, 0x31	; 49
    3f16:	90 e0       	ldi	r25, 0x00	; 0
    3f18:	fc 01       	movw	r30, r24
    3f1a:	10 82       	st	Z, r1
    3f1c:	84 e3       	ldi	r24, 0x34	; 52
    3f1e:	90 e0       	ldi	r25, 0x00	; 0
    3f20:	fc 01       	movw	r30, r24
    3f22:	10 82       	st	Z, r1
    3f24:	82 e0       	ldi	r24, 0x02	; 2
    3f26:	91 e0       	ldi	r25, 0x01	; 1
    3f28:	fc 01       	movw	r30, r24
    3f2a:	10 82       	st	Z, r1
    3f2c:	85 e0       	ldi	r24, 0x05	; 5
    3f2e:	91 e0       	ldi	r25, 0x01	; 1
    3f30:	fc 01       	movw	r30, r24
    3f32:	10 82       	st	Z, r1
    3f34:	88 e0       	ldi	r24, 0x08	; 8
    3f36:	91 e0       	ldi	r25, 0x01	; 1
    3f38:	fc 01       	movw	r30, r24
    3f3a:	10 82       	st	Z, r1
    3f3c:	8b e0       	ldi	r24, 0x0B	; 11
    3f3e:	91 e0       	ldi	r25, 0x01	; 1
    3f40:	fc 01       	movw	r30, r24
    3f42:	10 82       	st	Z, r1
    3f44:	df 91       	pop	r29
    3f46:	cf 91       	pop	r28
    3f48:	08 95       	ret

00003f4a <_Z7AppInitj>:
    3f4a:	cf 93       	push	r28
    3f4c:	df 93       	push	r29
    3f4e:	0f 92       	push	r0
    3f50:	0f 92       	push	r0
    3f52:	cd b7       	in	r28, 0x3d	; 61
    3f54:	de b7       	in	r29, 0x3e	; 62
    3f56:	9a 83       	std	Y+2, r25	; 0x02
    3f58:	89 83       	std	Y+1, r24	; 0x01
    3f5a:	84 ec       	ldi	r24, 0xC4	; 196
    3f5c:	90 e0       	ldi	r25, 0x00	; 0
    3f5e:	29 81       	ldd	r18, Y+1	; 0x01
    3f60:	fc 01       	movw	r30, r24
    3f62:	20 83       	st	Z, r18
    3f64:	85 ec       	ldi	r24, 0xC5	; 197
    3f66:	90 e0       	ldi	r25, 0x00	; 0
    3f68:	29 81       	ldd	r18, Y+1	; 0x01
    3f6a:	3a 81       	ldd	r19, Y+2	; 0x02
    3f6c:	23 2f       	mov	r18, r19
    3f6e:	33 27       	eor	r19, r19
    3f70:	fc 01       	movw	r30, r24
    3f72:	20 83       	st	Z, r18
    3f74:	8c ec       	ldi	r24, 0xCC	; 204
    3f76:	90 e0       	ldi	r25, 0x00	; 0
    3f78:	29 81       	ldd	r18, Y+1	; 0x01
    3f7a:	fc 01       	movw	r30, r24
    3f7c:	20 83       	st	Z, r18
    3f7e:	8d ec       	ldi	r24, 0xCD	; 205
    3f80:	90 e0       	ldi	r25, 0x00	; 0
    3f82:	29 81       	ldd	r18, Y+1	; 0x01
    3f84:	3a 81       	ldd	r19, Y+2	; 0x02
    3f86:	23 2f       	mov	r18, r19
    3f88:	33 27       	eor	r19, r19
    3f8a:	fc 01       	movw	r30, r24
    3f8c:	20 83       	st	Z, r18
    3f8e:	81 ec       	ldi	r24, 0xC1	; 193
    3f90:	90 e0       	ldi	r25, 0x00	; 0
    3f92:	28 e1       	ldi	r18, 0x18	; 24
    3f94:	fc 01       	movw	r30, r24
    3f96:	20 83       	st	Z, r18
    3f98:	82 ec       	ldi	r24, 0xC2	; 194
    3f9a:	90 e0       	ldi	r25, 0x00	; 0
    3f9c:	26 e0       	ldi	r18, 0x06	; 6
    3f9e:	fc 01       	movw	r30, r24
    3fa0:	20 83       	st	Z, r18
    3fa2:	89 ec       	ldi	r24, 0xC9	; 201
    3fa4:	90 e0       	ldi	r25, 0x00	; 0
    3fa6:	28 e1       	ldi	r18, 0x18	; 24
    3fa8:	fc 01       	movw	r30, r24
    3faa:	20 83       	st	Z, r18
    3fac:	8a ec       	ldi	r24, 0xCA	; 202
    3fae:	90 e0       	ldi	r25, 0x00	; 0
    3fb0:	26 e0       	ldi	r18, 0x06	; 6
    3fb2:	fc 01       	movw	r30, r24
    3fb4:	20 83       	st	Z, r18
    3fb6:	8a e0       	ldi	r24, 0x0A	; 10
    3fb8:	91 e0       	ldi	r25, 0x01	; 1
    3fba:	2f ef       	ldi	r18, 0xFF	; 255
    3fbc:	fc 01       	movw	r30, r24
    3fbe:	20 83       	st	Z, r18
    3fc0:	8b e0       	ldi	r24, 0x0B	; 11
    3fc2:	91 e0       	ldi	r25, 0x01	; 1
    3fc4:	fc 01       	movw	r30, r24
    3fc6:	10 82       	st	Z, r1
    3fc8:	84 e2       	ldi	r24, 0x24	; 36
    3fca:	90 e0       	ldi	r25, 0x00	; 0
    3fcc:	24 e2       	ldi	r18, 0x24	; 36
    3fce:	30 e0       	ldi	r19, 0x00	; 0
    3fd0:	f9 01       	movw	r30, r18
    3fd2:	20 81       	ld	r18, Z
    3fd4:	20 6e       	ori	r18, 0xE0	; 224
    3fd6:	fc 01       	movw	r30, r24
    3fd8:	20 83       	st	Z, r18
    3fda:	85 e2       	ldi	r24, 0x25	; 37
    3fdc:	90 e0       	ldi	r25, 0x00	; 0
    3fde:	25 e2       	ldi	r18, 0x25	; 37
    3fe0:	30 e0       	ldi	r19, 0x00	; 0
    3fe2:	f9 01       	movw	r30, r18
    3fe4:	20 81       	ld	r18, Z
    3fe6:	2f 71       	andi	r18, 0x1F	; 31
    3fe8:	fc 01       	movw	r30, r24
    3fea:	20 83       	st	Z, r18
    3fec:	84 e6       	ldi	r24, 0x64	; 100
    3fee:	90 e0       	ldi	r25, 0x00	; 0
    3ff0:	24 e6       	ldi	r18, 0x64	; 100
    3ff2:	30 e0       	ldi	r19, 0x00	; 0
    3ff4:	f9 01       	movw	r30, r18
    3ff6:	20 81       	ld	r18, Z
    3ff8:	2d 6a       	ori	r18, 0xAD	; 173
    3ffa:	fc 01       	movw	r30, r24
    3ffc:	20 83       	st	Z, r18
    3ffe:	89 e6       	ldi	r24, 0x69	; 105
    4000:	90 e0       	ldi	r25, 0x00	; 0
    4002:	2f e0       	ldi	r18, 0x0F	; 15
    4004:	fc 01       	movw	r30, r24
    4006:	20 83       	st	Z, r18
    4008:	8a e6       	ldi	r24, 0x6A	; 106
    400a:	90 e0       	ldi	r25, 0x00	; 0
    400c:	20 ef       	ldi	r18, 0xF0	; 240
    400e:	fc 01       	movw	r30, r24
    4010:	20 83       	st	Z, r18
    4012:	8d e3       	ldi	r24, 0x3D	; 61
    4014:	90 e0       	ldi	r25, 0x00	; 0
    4016:	2d e3       	ldi	r18, 0x3D	; 61
    4018:	30 e0       	ldi	r19, 0x00	; 0
    401a:	f9 01       	movw	r30, r18
    401c:	20 81       	ld	r18, Z
    401e:	2c 7f       	andi	r18, 0xFC	; 252
    4020:	fc 01       	movw	r30, r24
    4022:	20 83       	st	Z, r18
    4024:	8d e3       	ldi	r24, 0x3D	; 61
    4026:	90 e0       	ldi	r25, 0x00	; 0
    4028:	2d e3       	ldi	r18, 0x3D	; 61
    402a:	30 e0       	ldi	r19, 0x00	; 0
    402c:	f9 01       	movw	r30, r18
    402e:	20 81       	ld	r18, Z
    4030:	2f 7b       	andi	r18, 0xBF	; 191
    4032:	fc 01       	movw	r30, r24
    4034:	20 83       	st	Z, r18
    4036:	8d e3       	ldi	r24, 0x3D	; 61
    4038:	90 e0       	ldi	r25, 0x00	; 0
    403a:	2d e3       	ldi	r18, 0x3D	; 61
    403c:	30 e0       	ldi	r19, 0x00	; 0
    403e:	f9 01       	movw	r30, r18
    4040:	20 81       	ld	r18, Z
    4042:	20 68       	ori	r18, 0x80	; 128
    4044:	fc 01       	movw	r30, r24
    4046:	20 83       	st	Z, r18
    4048:	81 e0       	ldi	r24, 0x01	; 1
    404a:	80 93 bc 02 	sts	0x02BC, r24
    404e:	10 92 bd 02 	sts	0x02BD, r1
    4052:	10 92 be 02 	sts	0x02BE, r1
    4056:	10 92 bf 02 	sts	0x02BF, r1
    405a:	10 92 c0 02 	sts	0x02C0, r1
    405e:	10 92 c1 02 	sts	0x02C1, r1
    4062:	10 92 c2 02 	sts	0x02C2, r1
    4066:	10 92 c3 02 	sts	0x02C3, r1
    406a:	10 92 c5 02 	sts	0x02C5, r1
    406e:	10 92 c7 02 	sts	0x02C7, r1
    4072:	10 92 c8 02 	sts	0x02C8, r1
    4076:	10 92 c4 02 	sts	0x02C4, r1
    407a:	10 92 c6 02 	sts	0x02C6, r1
    407e:	8d e3       	ldi	r24, 0x3D	; 61
    4080:	90 e0       	ldi	r25, 0x00	; 0
    4082:	2d e3       	ldi	r18, 0x3D	; 61
    4084:	30 e0       	ldi	r19, 0x00	; 0
    4086:	f9 01       	movw	r30, r18
    4088:	20 81       	ld	r18, Z
    408a:	23 60       	ori	r18, 0x03	; 3
    408c:	fc 01       	movw	r30, r24
    408e:	20 83       	st	Z, r18
    4090:	0f 90       	pop	r0
    4092:	0f 90       	pop	r0
    4094:	df 91       	pop	r29
    4096:	cf 91       	pop	r28
    4098:	08 95       	ret

0000409a <_Z14EnableRTCTimerv>:
    409a:	cf 93       	push	r28
    409c:	df 93       	push	r29
    409e:	cd b7       	in	r28, 0x3d	; 61
    40a0:	de b7       	in	r29, 0x3e	; 62
    40a2:	84 e6       	ldi	r24, 0x64	; 100
    40a4:	90 e0       	ldi	r25, 0x00	; 0
    40a6:	24 e6       	ldi	r18, 0x64	; 100
    40a8:	30 e0       	ldi	r19, 0x00	; 0
    40aa:	f9 01       	movw	r30, r18
    40ac:	20 81       	ld	r18, Z
    40ae:	2f 7b       	andi	r18, 0xBF	; 191
    40b0:	fc 01       	movw	r30, r24
    40b2:	20 83       	st	Z, r18
    40b4:	82 e0       	ldi	r24, 0x02	; 2
    40b6:	90 e0       	ldi	r25, 0x00	; 0
    40b8:	0e 94 61 09 	call	0x12c2	; 0x12c2 <_Z7Wait_msj>
    40bc:	86 eb       	ldi	r24, 0xB6	; 182
    40be:	90 e0       	ldi	r25, 0x00	; 0
    40c0:	26 eb       	ldi	r18, 0xB6	; 182
    40c2:	30 e0       	ldi	r19, 0x00	; 0
    40c4:	f9 01       	movw	r30, r18
    40c6:	20 81       	ld	r18, Z
    40c8:	20 62       	ori	r18, 0x20	; 32
    40ca:	fc 01       	movw	r30, r24
    40cc:	20 83       	st	Z, r18
    40ce:	81 eb       	ldi	r24, 0xB1	; 177
    40d0:	90 e0       	ldi	r25, 0x00	; 0
    40d2:	21 eb       	ldi	r18, 0xB1	; 177
    40d4:	30 e0       	ldi	r19, 0x00	; 0
    40d6:	f9 01       	movw	r30, r18
    40d8:	20 81       	ld	r18, Z
    40da:	25 60       	ori	r18, 0x05	; 5
    40dc:	fc 01       	movw	r30, r24
    40de:	20 83       	st	Z, r18
    40e0:	86 eb       	ldi	r24, 0xB6	; 182
    40e2:	90 e0       	ldi	r25, 0x00	; 0
    40e4:	fc 01       	movw	r30, r24
    40e6:	80 81       	ld	r24, Z
    40e8:	88 2f       	mov	r24, r24
    40ea:	90 e0       	ldi	r25, 0x00	; 0
    40ec:	81 71       	andi	r24, 0x11	; 17
    40ee:	90 70       	andi	r25, 0x00	; 0
    40f0:	21 e0       	ldi	r18, 0x01	; 1
    40f2:	00 97       	sbiw	r24, 0x00	; 0
    40f4:	09 f4       	brne	.+2      	; 0x40f8 <_Z14EnableRTCTimerv+0x5e>
    40f6:	20 e0       	ldi	r18, 0x00	; 0
    40f8:	22 23       	and	r18, r18
    40fa:	91 f7       	brne	.-28     	; 0x40e0 <_Z14EnableRTCTimerv+0x46>
    40fc:	87 e3       	ldi	r24, 0x37	; 55
    40fe:	90 e0       	ldi	r25, 0x00	; 0
    4100:	21 e0       	ldi	r18, 0x01	; 1
    4102:	fc 01       	movw	r30, r24
    4104:	20 83       	st	Z, r18
    4106:	80 e7       	ldi	r24, 0x70	; 112
    4108:	90 e0       	ldi	r25, 0x00	; 0
    410a:	21 e0       	ldi	r18, 0x01	; 1
    410c:	fc 01       	movw	r30, r24
    410e:	20 83       	st	Z, r18
    4110:	df 91       	pop	r29
    4112:	cf 91       	pop	r28
    4114:	08 95       	ret

00004116 <_Z8Wait_secj>:
    4116:	cf 93       	push	r28
    4118:	df 93       	push	r29
    411a:	00 d0       	rcall	.+0      	; 0x411c <_Z8Wait_secj+0x6>
    411c:	00 d0       	rcall	.+0      	; 0x411e <_Z8Wait_secj+0x8>
    411e:	cd b7       	in	r28, 0x3d	; 61
    4120:	de b7       	in	r29, 0x3e	; 62
    4122:	9e 83       	std	Y+6, r25	; 0x06
    4124:	8d 83       	std	Y+5, r24	; 0x05
    4126:	89 ec       	ldi	r24, 0xC9	; 201
    4128:	92 e0       	ldi	r25, 0x02	; 2
    412a:	0e 94 d5 04 	call	0x9aa	; 0x9aa <_ZN6myTime10getSecondsEv>
    412e:	88 2f       	mov	r24, r24
    4130:	90 e0       	ldi	r25, 0x00	; 0
    4132:	9a 83       	std	Y+2, r25	; 0x02
    4134:	89 83       	std	Y+1, r24	; 0x01
    4136:	89 81       	ldd	r24, Y+1	; 0x01
    4138:	9a 81       	ldd	r25, Y+2	; 0x02
    413a:	9c 01       	movw	r18, r24
    413c:	8d 81       	ldd	r24, Y+5	; 0x05
    413e:	9e 81       	ldd	r25, Y+6	; 0x06
    4140:	82 0f       	add	r24, r18
    4142:	93 1f       	adc	r25, r19
    4144:	2c e3       	ldi	r18, 0x3C	; 60
    4146:	30 e0       	ldi	r19, 0x00	; 0
    4148:	b9 01       	movw	r22, r18
    414a:	0e 94 5b 23 	call	0x46b6	; 0x46b6 <__udivmodhi4>
    414e:	9c 83       	std	Y+4, r25	; 0x04
    4150:	8b 83       	std	Y+3, r24	; 0x03
    4152:	01 c0       	rjmp	.+2      	; 0x4156 <_Z8Wait_secj+0x40>
    4154:	00 00       	nop
    4156:	89 ec       	ldi	r24, 0xC9	; 201
    4158:	92 e0       	ldi	r25, 0x02	; 2
    415a:	0e 94 d5 04 	call	0x9aa	; 0x9aa <_ZN6myTime10getSecondsEv>
    415e:	28 2f       	mov	r18, r24
    4160:	30 e0       	ldi	r19, 0x00	; 0
    4162:	8b 81       	ldd	r24, Y+3	; 0x03
    4164:	9c 81       	ldd	r25, Y+4	; 0x04
    4166:	41 e0       	ldi	r20, 0x01	; 1
    4168:	28 17       	cp	r18, r24
    416a:	39 07       	cpc	r19, r25
    416c:	09 f4       	brne	.+2      	; 0x4170 <_Z8Wait_secj+0x5a>
    416e:	40 e0       	ldi	r20, 0x00	; 0
    4170:	44 23       	and	r20, r20
    4172:	81 f7       	brne	.-32     	; 0x4154 <_Z8Wait_secj+0x3e>
    4174:	26 96       	adiw	r28, 0x06	; 6
    4176:	0f b6       	in	r0, 0x3f	; 63
    4178:	f8 94       	cli
    417a:	de bf       	out	0x3e, r29	; 62
    417c:	0f be       	out	0x3f, r0	; 63
    417e:	cd bf       	out	0x3d, r28	; 61
    4180:	df 91       	pop	r29
    4182:	cf 91       	pop	r28
    4184:	08 95       	ret

00004186 <_Z16initSpeedSensingv>:
    4186:	cf 93       	push	r28
    4188:	df 93       	push	r29
    418a:	cd b7       	in	r28, 0x3d	; 61
    418c:	de b7       	in	r29, 0x3e	; 62
    418e:	84 e6       	ldi	r24, 0x64	; 100
    4190:	90 e0       	ldi	r25, 0x00	; 0
    4192:	24 e6       	ldi	r18, 0x64	; 100
    4194:	30 e0       	ldi	r19, 0x00	; 0
    4196:	f9 01       	movw	r30, r18
    4198:	20 81       	ld	r18, Z
    419a:	27 7f       	andi	r18, 0xF7	; 247
    419c:	fc 01       	movw	r30, r24
    419e:	20 83       	st	Z, r18
    41a0:	81 e8       	ldi	r24, 0x81	; 129
    41a2:	90 e0       	ldi	r25, 0x00	; 0
    41a4:	21 e8       	ldi	r18, 0x81	; 129
    41a6:	30 e0       	ldi	r19, 0x00	; 0
    41a8:	f9 01       	movw	r30, r18
    41aa:	20 81       	ld	r18, Z
    41ac:	24 60       	ori	r18, 0x04	; 4
    41ae:	fc 01       	movw	r30, r24
    41b0:	20 83       	st	Z, r18
    41b2:	86 e3       	ldi	r24, 0x36	; 54
    41b4:	90 e0       	ldi	r25, 0x00	; 0
    41b6:	21 e0       	ldi	r18, 0x01	; 1
    41b8:	fc 01       	movw	r30, r24
    41ba:	20 83       	st	Z, r18
    41bc:	84 e8       	ldi	r24, 0x84	; 132
    41be:	90 e0       	ldi	r25, 0x00	; 0
    41c0:	fc 01       	movw	r30, r24
    41c2:	11 82       	std	Z+1, r1	; 0x01
    41c4:	10 82       	st	Z, r1
    41c6:	8f e6       	ldi	r24, 0x6F	; 111
    41c8:	90 e0       	ldi	r25, 0x00	; 0
    41ca:	21 e0       	ldi	r18, 0x01	; 1
    41cc:	fc 01       	movw	r30, r24
    41ce:	20 83       	st	Z, r18
    41d0:	8d e3       	ldi	r24, 0x3D	; 61
    41d2:	90 e0       	ldi	r25, 0x00	; 0
    41d4:	2d e3       	ldi	r18, 0x3D	; 61
    41d6:	30 e0       	ldi	r19, 0x00	; 0
    41d8:	f9 01       	movw	r30, r18
    41da:	20 81       	ld	r18, Z
    41dc:	20 64       	ori	r18, 0x40	; 64
    41de:	fc 01       	movw	r30, r24
    41e0:	20 83       	st	Z, r18
    41e2:	df 91       	pop	r29
    41e4:	cf 91       	pop	r28
    41e6:	08 95       	ret

000041e8 <_Z13initHRSensingv>:
    41e8:	cf 93       	push	r28
    41ea:	df 93       	push	r29
    41ec:	cd b7       	in	r28, 0x3d	; 61
    41ee:	de b7       	in	r29, 0x3e	; 62
    41f0:	84 e6       	ldi	r24, 0x64	; 100
    41f2:	90 e0       	ldi	r25, 0x00	; 0
    41f4:	24 e6       	ldi	r18, 0x64	; 100
    41f6:	30 e0       	ldi	r19, 0x00	; 0
    41f8:	f9 01       	movw	r30, r18
    41fa:	20 81       	ld	r18, Z
    41fc:	2f 7d       	andi	r18, 0xDF	; 223
    41fe:	fc 01       	movw	r30, r24
    4200:	20 83       	st	Z, r18
    4202:	84 e4       	ldi	r24, 0x44	; 68
    4204:	90 e0       	ldi	r25, 0x00	; 0
    4206:	22 e0       	ldi	r18, 0x02	; 2
    4208:	fc 01       	movw	r30, r24
    420a:	20 83       	st	Z, r18
    420c:	85 e4       	ldi	r24, 0x45	; 69
    420e:	90 e0       	ldi	r25, 0x00	; 0
    4210:	24 e0       	ldi	r18, 0x04	; 4
    4212:	fc 01       	movw	r30, r24
    4214:	20 83       	st	Z, r18
    4216:	87 e4       	ldi	r24, 0x47	; 71
    4218:	90 e0       	ldi	r25, 0x00	; 0
    421a:	20 e8       	ldi	r18, 0x80	; 128
    421c:	fc 01       	movw	r30, r24
    421e:	20 83       	st	Z, r18
    4220:	86 e4       	ldi	r24, 0x46	; 70
    4222:	90 e0       	ldi	r25, 0x00	; 0
    4224:	fc 01       	movw	r30, r24
    4226:	10 82       	st	Z, r1
    4228:	8e e6       	ldi	r24, 0x6E	; 110
    422a:	90 e0       	ldi	r25, 0x00	; 0
    422c:	22 e0       	ldi	r18, 0x02	; 2
    422e:	fc 01       	movw	r30, r24
    4230:	20 83       	st	Z, r18
    4232:	df 91       	pop	r29
    4234:	cf 91       	pop	r28
    4236:	08 95       	ret

00004238 <_Z6GetADCv>:
    4238:	cf 93       	push	r28
    423a:	df 93       	push	r29
    423c:	00 d0       	rcall	.+0      	; 0x423e <_Z6GetADCv+0x6>
    423e:	0f 92       	push	r0
    4240:	cd b7       	in	r28, 0x3d	; 61
    4242:	de b7       	in	r29, 0x3e	; 62
    4244:	1c 82       	std	Y+4, r1	; 0x04
    4246:	1b 82       	std	Y+3, r1	; 0x03
    4248:	1a 82       	std	Y+2, r1	; 0x02
    424a:	19 82       	std	Y+1, r1	; 0x01
    424c:	1c c0       	rjmp	.+56     	; 0x4286 <_Z6GetADCv+0x4e>
    424e:	8a e7       	ldi	r24, 0x7A	; 122
    4250:	90 e0       	ldi	r25, 0x00	; 0
    4252:	2a e7       	ldi	r18, 0x7A	; 122
    4254:	30 e0       	ldi	r19, 0x00	; 0
    4256:	f9 01       	movw	r30, r18
    4258:	20 81       	ld	r18, Z
    425a:	20 64       	ori	r18, 0x40	; 64
    425c:	fc 01       	movw	r30, r24
    425e:	20 83       	st	Z, r18
    4260:	8a e7       	ldi	r24, 0x7A	; 122
    4262:	90 e0       	ldi	r25, 0x00	; 0
    4264:	fc 01       	movw	r30, r24
    4266:	80 81       	ld	r24, Z
    4268:	88 2f       	mov	r24, r24
    426a:	90 e0       	ldi	r25, 0x00	; 0
    426c:	80 74       	andi	r24, 0x40	; 64
    426e:	90 70       	andi	r25, 0x00	; 0
    4270:	21 e0       	ldi	r18, 0x01	; 1
    4272:	00 97       	sbiw	r24, 0x00	; 0
    4274:	09 f4       	brne	.+2      	; 0x4278 <_Z6GetADCv+0x40>
    4276:	20 e0       	ldi	r18, 0x00	; 0
    4278:	22 23       	and	r18, r18
    427a:	91 f7       	brne	.-28     	; 0x4260 <_Z6GetADCv+0x28>
    427c:	89 81       	ldd	r24, Y+1	; 0x01
    427e:	9a 81       	ldd	r25, Y+2	; 0x02
    4280:	01 96       	adiw	r24, 0x01	; 1
    4282:	9a 83       	std	Y+2, r25	; 0x02
    4284:	89 83       	std	Y+1, r24	; 0x01
    4286:	21 e0       	ldi	r18, 0x01	; 1
    4288:	89 81       	ldd	r24, Y+1	; 0x01
    428a:	9a 81       	ldd	r25, Y+2	; 0x02
    428c:	82 30       	cpi	r24, 0x02	; 2
    428e:	91 05       	cpc	r25, r1
    4290:	0c f0       	brlt	.+2      	; 0x4294 <_Z6GetADCv+0x5c>
    4292:	20 e0       	ldi	r18, 0x00	; 0
    4294:	22 23       	and	r18, r18
    4296:	d9 f6       	brne	.-74     	; 0x424e <_Z6GetADCv+0x16>
    4298:	88 e7       	ldi	r24, 0x78	; 120
    429a:	90 e0       	ldi	r25, 0x00	; 0
    429c:	fc 01       	movw	r30, r24
    429e:	80 81       	ld	r24, Z
    42a0:	88 2f       	mov	r24, r24
    42a2:	90 e0       	ldi	r25, 0x00	; 0
    42a4:	9c 83       	std	Y+4, r25	; 0x04
    42a6:	8b 83       	std	Y+3, r24	; 0x03
    42a8:	89 e7       	ldi	r24, 0x79	; 121
    42aa:	90 e0       	ldi	r25, 0x00	; 0
    42ac:	fc 01       	movw	r30, r24
    42ae:	80 81       	ld	r24, Z
    42b0:	88 2f       	mov	r24, r24
    42b2:	90 e0       	ldi	r25, 0x00	; 0
    42b4:	98 2f       	mov	r25, r24
    42b6:	88 27       	eor	r24, r24
    42b8:	9c 01       	movw	r18, r24
    42ba:	8b 81       	ldd	r24, Y+3	; 0x03
    42bc:	9c 81       	ldd	r25, Y+4	; 0x04
    42be:	82 2b       	or	r24, r18
    42c0:	93 2b       	or	r25, r19
    42c2:	9c 83       	std	Y+4, r25	; 0x04
    42c4:	8b 83       	std	Y+3, r24	; 0x03
    42c6:	8b 81       	ldd	r24, Y+3	; 0x03
    42c8:	9c 81       	ldd	r25, Y+4	; 0x04
    42ca:	0f 90       	pop	r0
    42cc:	0f 90       	pop	r0
    42ce:	0f 90       	pop	r0
    42d0:	0f 90       	pop	r0
    42d2:	df 91       	pop	r29
    42d4:	cf 91       	pop	r28
    42d6:	08 95       	ret

000042d8 <_Z41__static_initialization_and_destruction_0ii>:
    42d8:	cf 93       	push	r28
    42da:	df 93       	push	r29
    42dc:	00 d0       	rcall	.+0      	; 0x42de <_Z41__static_initialization_and_destruction_0ii+0x6>
    42de:	0f 92       	push	r0
    42e0:	cd b7       	in	r28, 0x3d	; 61
    42e2:	de b7       	in	r29, 0x3e	; 62
    42e4:	9a 83       	std	Y+2, r25	; 0x02
    42e6:	89 83       	std	Y+1, r24	; 0x01
    42e8:	7c 83       	std	Y+4, r23	; 0x04
    42ea:	6b 83       	std	Y+3, r22	; 0x03
    42ec:	89 81       	ldd	r24, Y+1	; 0x01
    42ee:	9a 81       	ldd	r25, Y+2	; 0x02
    42f0:	81 30       	cpi	r24, 0x01	; 1
    42f2:	91 05       	cpc	r25, r1
    42f4:	71 f4       	brne	.+28     	; 0x4312 <_Z41__static_initialization_and_destruction_0ii+0x3a>
    42f6:	8b 81       	ldd	r24, Y+3	; 0x03
    42f8:	9c 81       	ldd	r25, Y+4	; 0x04
    42fa:	2f ef       	ldi	r18, 0xFF	; 255
    42fc:	8f 3f       	cpi	r24, 0xFF	; 255
    42fe:	92 07       	cpc	r25, r18
    4300:	41 f4       	brne	.+16     	; 0x4312 <_Z41__static_initialization_and_destruction_0ii+0x3a>
    4302:	89 ec       	ldi	r24, 0xC9	; 201
    4304:	92 e0       	ldi	r25, 0x02	; 2
    4306:	0e 94 50 04 	call	0x8a0	; 0x8a0 <_ZN6myTimeC1Ev>
    430a:	81 ef       	ldi	r24, 0xF1	; 241
    430c:	92 e0       	ldi	r25, 0x02	; 2
    430e:	0e 94 11 1a 	call	0x3422	; 0x3422 <_ZN4tripC1Ev>
    4312:	0f 90       	pop	r0
    4314:	0f 90       	pop	r0
    4316:	0f 90       	pop	r0
    4318:	0f 90       	pop	r0
    431a:	df 91       	pop	r29
    431c:	cf 91       	pop	r28
    431e:	08 95       	ret

00004320 <_GLOBAL__sub_I__ZN6myDateC2Ev>:
    4320:	cf 93       	push	r28
    4322:	df 93       	push	r29
    4324:	cd b7       	in	r28, 0x3d	; 61
    4326:	de b7       	in	r29, 0x3e	; 62
    4328:	81 e0       	ldi	r24, 0x01	; 1
    432a:	90 e0       	ldi	r25, 0x00	; 0
    432c:	6f ef       	ldi	r22, 0xFF	; 255
    432e:	7f ef       	ldi	r23, 0xFF	; 255
    4330:	0e 94 6c 21 	call	0x42d8	; 0x42d8 <_Z41__static_initialization_and_destruction_0ii>
    4334:	df 91       	pop	r29
    4336:	cf 91       	pop	r28
    4338:	08 95       	ret

0000433a <__subsf3>:
    433a:	50 58       	subi	r21, 0x80	; 128

0000433c <__addsf3>:
    433c:	bb 27       	eor	r27, r27
    433e:	aa 27       	eor	r26, r26
    4340:	0e d0       	rcall	.+28     	; 0x435e <__addsf3x>
    4342:	1c c1       	rjmp	.+568    	; 0x457c <__fp_round>
    4344:	0d d1       	rcall	.+538    	; 0x4560 <__fp_pscA>
    4346:	30 f0       	brcs	.+12     	; 0x4354 <__addsf3+0x18>
    4348:	12 d1       	rcall	.+548    	; 0x456e <__fp_pscB>
    434a:	20 f0       	brcs	.+8      	; 0x4354 <__addsf3+0x18>
    434c:	31 f4       	brne	.+12     	; 0x435a <__addsf3+0x1e>
    434e:	9f 3f       	cpi	r25, 0xFF	; 255
    4350:	11 f4       	brne	.+4      	; 0x4356 <__addsf3+0x1a>
    4352:	1e f4       	brtc	.+6      	; 0x435a <__addsf3+0x1e>
    4354:	02 c1       	rjmp	.+516    	; 0x455a <__fp_nan>
    4356:	0e f4       	brtc	.+2      	; 0x435a <__addsf3+0x1e>
    4358:	e0 95       	com	r30
    435a:	e7 fb       	bst	r30, 7
    435c:	f8 c0       	rjmp	.+496    	; 0x454e <__fp_inf>

0000435e <__addsf3x>:
    435e:	e9 2f       	mov	r30, r25
    4360:	1e d1       	rcall	.+572    	; 0x459e <__fp_split3>
    4362:	80 f3       	brcs	.-32     	; 0x4344 <__addsf3+0x8>
    4364:	ba 17       	cp	r27, r26
    4366:	62 07       	cpc	r22, r18
    4368:	73 07       	cpc	r23, r19
    436a:	84 07       	cpc	r24, r20
    436c:	95 07       	cpc	r25, r21
    436e:	18 f0       	brcs	.+6      	; 0x4376 <__addsf3x+0x18>
    4370:	71 f4       	brne	.+28     	; 0x438e <__addsf3x+0x30>
    4372:	9e f5       	brtc	.+102    	; 0x43da <__addsf3x+0x7c>
    4374:	36 c1       	rjmp	.+620    	; 0x45e2 <__fp_zero>
    4376:	0e f4       	brtc	.+2      	; 0x437a <__addsf3x+0x1c>
    4378:	e0 95       	com	r30
    437a:	0b 2e       	mov	r0, r27
    437c:	ba 2f       	mov	r27, r26
    437e:	a0 2d       	mov	r26, r0
    4380:	0b 01       	movw	r0, r22
    4382:	b9 01       	movw	r22, r18
    4384:	90 01       	movw	r18, r0
    4386:	0c 01       	movw	r0, r24
    4388:	ca 01       	movw	r24, r20
    438a:	a0 01       	movw	r20, r0
    438c:	11 24       	eor	r1, r1
    438e:	ff 27       	eor	r31, r31
    4390:	59 1b       	sub	r21, r25
    4392:	99 f0       	breq	.+38     	; 0x43ba <__addsf3x+0x5c>
    4394:	59 3f       	cpi	r21, 0xF9	; 249
    4396:	50 f4       	brcc	.+20     	; 0x43ac <__addsf3x+0x4e>
    4398:	50 3e       	cpi	r21, 0xE0	; 224
    439a:	68 f1       	brcs	.+90     	; 0x43f6 <__addsf3x+0x98>
    439c:	1a 16       	cp	r1, r26
    439e:	f0 40       	sbci	r31, 0x00	; 0
    43a0:	a2 2f       	mov	r26, r18
    43a2:	23 2f       	mov	r18, r19
    43a4:	34 2f       	mov	r19, r20
    43a6:	44 27       	eor	r20, r20
    43a8:	58 5f       	subi	r21, 0xF8	; 248
    43aa:	f3 cf       	rjmp	.-26     	; 0x4392 <__addsf3x+0x34>
    43ac:	46 95       	lsr	r20
    43ae:	37 95       	ror	r19
    43b0:	27 95       	ror	r18
    43b2:	a7 95       	ror	r26
    43b4:	f0 40       	sbci	r31, 0x00	; 0
    43b6:	53 95       	inc	r21
    43b8:	c9 f7       	brne	.-14     	; 0x43ac <__addsf3x+0x4e>
    43ba:	7e f4       	brtc	.+30     	; 0x43da <__addsf3x+0x7c>
    43bc:	1f 16       	cp	r1, r31
    43be:	ba 0b       	sbc	r27, r26
    43c0:	62 0b       	sbc	r22, r18
    43c2:	73 0b       	sbc	r23, r19
    43c4:	84 0b       	sbc	r24, r20
    43c6:	ba f0       	brmi	.+46     	; 0x43f6 <__addsf3x+0x98>
    43c8:	91 50       	subi	r25, 0x01	; 1
    43ca:	a1 f0       	breq	.+40     	; 0x43f4 <__addsf3x+0x96>
    43cc:	ff 0f       	add	r31, r31
    43ce:	bb 1f       	adc	r27, r27
    43d0:	66 1f       	adc	r22, r22
    43d2:	77 1f       	adc	r23, r23
    43d4:	88 1f       	adc	r24, r24
    43d6:	c2 f7       	brpl	.-16     	; 0x43c8 <__addsf3x+0x6a>
    43d8:	0e c0       	rjmp	.+28     	; 0x43f6 <__addsf3x+0x98>
    43da:	ba 0f       	add	r27, r26
    43dc:	62 1f       	adc	r22, r18
    43de:	73 1f       	adc	r23, r19
    43e0:	84 1f       	adc	r24, r20
    43e2:	48 f4       	brcc	.+18     	; 0x43f6 <__addsf3x+0x98>
    43e4:	87 95       	ror	r24
    43e6:	77 95       	ror	r23
    43e8:	67 95       	ror	r22
    43ea:	b7 95       	ror	r27
    43ec:	f7 95       	ror	r31
    43ee:	9e 3f       	cpi	r25, 0xFE	; 254
    43f0:	08 f0       	brcs	.+2      	; 0x43f4 <__addsf3x+0x96>
    43f2:	b3 cf       	rjmp	.-154    	; 0x435a <__addsf3+0x1e>
    43f4:	93 95       	inc	r25
    43f6:	88 0f       	add	r24, r24
    43f8:	08 f0       	brcs	.+2      	; 0x43fc <__addsf3x+0x9e>
    43fa:	99 27       	eor	r25, r25
    43fc:	ee 0f       	add	r30, r30
    43fe:	97 95       	ror	r25
    4400:	87 95       	ror	r24
    4402:	08 95       	ret

00004404 <__divsf3>:
    4404:	0c d0       	rcall	.+24     	; 0x441e <__divsf3x>
    4406:	ba c0       	rjmp	.+372    	; 0x457c <__fp_round>
    4408:	b2 d0       	rcall	.+356    	; 0x456e <__fp_pscB>
    440a:	40 f0       	brcs	.+16     	; 0x441c <__divsf3+0x18>
    440c:	a9 d0       	rcall	.+338    	; 0x4560 <__fp_pscA>
    440e:	30 f0       	brcs	.+12     	; 0x441c <__divsf3+0x18>
    4410:	21 f4       	brne	.+8      	; 0x441a <__divsf3+0x16>
    4412:	5f 3f       	cpi	r21, 0xFF	; 255
    4414:	19 f0       	breq	.+6      	; 0x441c <__divsf3+0x18>
    4416:	9b c0       	rjmp	.+310    	; 0x454e <__fp_inf>
    4418:	51 11       	cpse	r21, r1
    441a:	e4 c0       	rjmp	.+456    	; 0x45e4 <__fp_szero>
    441c:	9e c0       	rjmp	.+316    	; 0x455a <__fp_nan>

0000441e <__divsf3x>:
    441e:	bf d0       	rcall	.+382    	; 0x459e <__fp_split3>
    4420:	98 f3       	brcs	.-26     	; 0x4408 <__divsf3+0x4>

00004422 <__divsf3_pse>:
    4422:	99 23       	and	r25, r25
    4424:	c9 f3       	breq	.-14     	; 0x4418 <__divsf3+0x14>
    4426:	55 23       	and	r21, r21
    4428:	b1 f3       	breq	.-20     	; 0x4416 <__divsf3+0x12>
    442a:	95 1b       	sub	r25, r21
    442c:	55 0b       	sbc	r21, r21
    442e:	bb 27       	eor	r27, r27
    4430:	aa 27       	eor	r26, r26
    4432:	62 17       	cp	r22, r18
    4434:	73 07       	cpc	r23, r19
    4436:	84 07       	cpc	r24, r20
    4438:	38 f0       	brcs	.+14     	; 0x4448 <__divsf3_pse+0x26>
    443a:	9f 5f       	subi	r25, 0xFF	; 255
    443c:	5f 4f       	sbci	r21, 0xFF	; 255
    443e:	22 0f       	add	r18, r18
    4440:	33 1f       	adc	r19, r19
    4442:	44 1f       	adc	r20, r20
    4444:	aa 1f       	adc	r26, r26
    4446:	a9 f3       	breq	.-22     	; 0x4432 <__divsf3_pse+0x10>
    4448:	33 d0       	rcall	.+102    	; 0x44b0 <__divsf3_pse+0x8e>
    444a:	0e 2e       	mov	r0, r30
    444c:	3a f0       	brmi	.+14     	; 0x445c <__divsf3_pse+0x3a>
    444e:	e0 e8       	ldi	r30, 0x80	; 128
    4450:	30 d0       	rcall	.+96     	; 0x44b2 <__divsf3_pse+0x90>
    4452:	91 50       	subi	r25, 0x01	; 1
    4454:	50 40       	sbci	r21, 0x00	; 0
    4456:	e6 95       	lsr	r30
    4458:	00 1c       	adc	r0, r0
    445a:	ca f7       	brpl	.-14     	; 0x444e <__divsf3_pse+0x2c>
    445c:	29 d0       	rcall	.+82     	; 0x44b0 <__divsf3_pse+0x8e>
    445e:	fe 2f       	mov	r31, r30
    4460:	27 d0       	rcall	.+78     	; 0x44b0 <__divsf3_pse+0x8e>
    4462:	66 0f       	add	r22, r22
    4464:	77 1f       	adc	r23, r23
    4466:	88 1f       	adc	r24, r24
    4468:	bb 1f       	adc	r27, r27
    446a:	26 17       	cp	r18, r22
    446c:	37 07       	cpc	r19, r23
    446e:	48 07       	cpc	r20, r24
    4470:	ab 07       	cpc	r26, r27
    4472:	b0 e8       	ldi	r27, 0x80	; 128
    4474:	09 f0       	breq	.+2      	; 0x4478 <__divsf3_pse+0x56>
    4476:	bb 0b       	sbc	r27, r27
    4478:	80 2d       	mov	r24, r0
    447a:	bf 01       	movw	r22, r30
    447c:	ff 27       	eor	r31, r31
    447e:	93 58       	subi	r25, 0x83	; 131
    4480:	5f 4f       	sbci	r21, 0xFF	; 255
    4482:	2a f0       	brmi	.+10     	; 0x448e <__divsf3_pse+0x6c>
    4484:	9e 3f       	cpi	r25, 0xFE	; 254
    4486:	51 05       	cpc	r21, r1
    4488:	68 f0       	brcs	.+26     	; 0x44a4 <__divsf3_pse+0x82>
    448a:	61 c0       	rjmp	.+194    	; 0x454e <__fp_inf>
    448c:	ab c0       	rjmp	.+342    	; 0x45e4 <__fp_szero>
    448e:	5f 3f       	cpi	r21, 0xFF	; 255
    4490:	ec f3       	brlt	.-6      	; 0x448c <__divsf3_pse+0x6a>
    4492:	98 3e       	cpi	r25, 0xE8	; 232
    4494:	dc f3       	brlt	.-10     	; 0x448c <__divsf3_pse+0x6a>
    4496:	86 95       	lsr	r24
    4498:	77 95       	ror	r23
    449a:	67 95       	ror	r22
    449c:	b7 95       	ror	r27
    449e:	f7 95       	ror	r31
    44a0:	9f 5f       	subi	r25, 0xFF	; 255
    44a2:	c9 f7       	brne	.-14     	; 0x4496 <__divsf3_pse+0x74>
    44a4:	88 0f       	add	r24, r24
    44a6:	91 1d       	adc	r25, r1
    44a8:	96 95       	lsr	r25
    44aa:	87 95       	ror	r24
    44ac:	97 f9       	bld	r25, 7
    44ae:	08 95       	ret
    44b0:	e1 e0       	ldi	r30, 0x01	; 1
    44b2:	66 0f       	add	r22, r22
    44b4:	77 1f       	adc	r23, r23
    44b6:	88 1f       	adc	r24, r24
    44b8:	bb 1f       	adc	r27, r27
    44ba:	62 17       	cp	r22, r18
    44bc:	73 07       	cpc	r23, r19
    44be:	84 07       	cpc	r24, r20
    44c0:	ba 07       	cpc	r27, r26
    44c2:	20 f0       	brcs	.+8      	; 0x44cc <__divsf3_pse+0xaa>
    44c4:	62 1b       	sub	r22, r18
    44c6:	73 0b       	sbc	r23, r19
    44c8:	84 0b       	sbc	r24, r20
    44ca:	ba 0b       	sbc	r27, r26
    44cc:	ee 1f       	adc	r30, r30
    44ce:	88 f7       	brcc	.-30     	; 0x44b2 <__divsf3_pse+0x90>
    44d0:	e0 95       	com	r30
    44d2:	08 95       	ret

000044d4 <__floatunsisf>:
    44d4:	e8 94       	clt
    44d6:	09 c0       	rjmp	.+18     	; 0x44ea <__floatsisf+0x12>

000044d8 <__floatsisf>:
    44d8:	97 fb       	bst	r25, 7
    44da:	3e f4       	brtc	.+14     	; 0x44ea <__floatsisf+0x12>
    44dc:	90 95       	com	r25
    44de:	80 95       	com	r24
    44e0:	70 95       	com	r23
    44e2:	61 95       	neg	r22
    44e4:	7f 4f       	sbci	r23, 0xFF	; 255
    44e6:	8f 4f       	sbci	r24, 0xFF	; 255
    44e8:	9f 4f       	sbci	r25, 0xFF	; 255
    44ea:	99 23       	and	r25, r25
    44ec:	a9 f0       	breq	.+42     	; 0x4518 <__floatsisf+0x40>
    44ee:	f9 2f       	mov	r31, r25
    44f0:	96 e9       	ldi	r25, 0x96	; 150
    44f2:	bb 27       	eor	r27, r27
    44f4:	93 95       	inc	r25
    44f6:	f6 95       	lsr	r31
    44f8:	87 95       	ror	r24
    44fa:	77 95       	ror	r23
    44fc:	67 95       	ror	r22
    44fe:	b7 95       	ror	r27
    4500:	f1 11       	cpse	r31, r1
    4502:	f8 cf       	rjmp	.-16     	; 0x44f4 <__floatsisf+0x1c>
    4504:	fa f4       	brpl	.+62     	; 0x4544 <__floatsisf+0x6c>
    4506:	bb 0f       	add	r27, r27
    4508:	11 f4       	brne	.+4      	; 0x450e <__floatsisf+0x36>
    450a:	60 ff       	sbrs	r22, 0
    450c:	1b c0       	rjmp	.+54     	; 0x4544 <__floatsisf+0x6c>
    450e:	6f 5f       	subi	r22, 0xFF	; 255
    4510:	7f 4f       	sbci	r23, 0xFF	; 255
    4512:	8f 4f       	sbci	r24, 0xFF	; 255
    4514:	9f 4f       	sbci	r25, 0xFF	; 255
    4516:	16 c0       	rjmp	.+44     	; 0x4544 <__floatsisf+0x6c>
    4518:	88 23       	and	r24, r24
    451a:	11 f0       	breq	.+4      	; 0x4520 <__floatsisf+0x48>
    451c:	96 e9       	ldi	r25, 0x96	; 150
    451e:	11 c0       	rjmp	.+34     	; 0x4542 <__floatsisf+0x6a>
    4520:	77 23       	and	r23, r23
    4522:	21 f0       	breq	.+8      	; 0x452c <__floatsisf+0x54>
    4524:	9e e8       	ldi	r25, 0x8E	; 142
    4526:	87 2f       	mov	r24, r23
    4528:	76 2f       	mov	r23, r22
    452a:	05 c0       	rjmp	.+10     	; 0x4536 <__floatsisf+0x5e>
    452c:	66 23       	and	r22, r22
    452e:	71 f0       	breq	.+28     	; 0x454c <__floatsisf+0x74>
    4530:	96 e8       	ldi	r25, 0x86	; 134
    4532:	86 2f       	mov	r24, r22
    4534:	70 e0       	ldi	r23, 0x00	; 0
    4536:	60 e0       	ldi	r22, 0x00	; 0
    4538:	2a f0       	brmi	.+10     	; 0x4544 <__floatsisf+0x6c>
    453a:	9a 95       	dec	r25
    453c:	66 0f       	add	r22, r22
    453e:	77 1f       	adc	r23, r23
    4540:	88 1f       	adc	r24, r24
    4542:	da f7       	brpl	.-10     	; 0x453a <__floatsisf+0x62>
    4544:	88 0f       	add	r24, r24
    4546:	96 95       	lsr	r25
    4548:	87 95       	ror	r24
    454a:	97 f9       	bld	r25, 7
    454c:	08 95       	ret

0000454e <__fp_inf>:
    454e:	97 f9       	bld	r25, 7
    4550:	9f 67       	ori	r25, 0x7F	; 127
    4552:	80 e8       	ldi	r24, 0x80	; 128
    4554:	70 e0       	ldi	r23, 0x00	; 0
    4556:	60 e0       	ldi	r22, 0x00	; 0
    4558:	08 95       	ret

0000455a <__fp_nan>:
    455a:	9f ef       	ldi	r25, 0xFF	; 255
    455c:	80 ec       	ldi	r24, 0xC0	; 192
    455e:	08 95       	ret

00004560 <__fp_pscA>:
    4560:	00 24       	eor	r0, r0
    4562:	0a 94       	dec	r0
    4564:	16 16       	cp	r1, r22
    4566:	17 06       	cpc	r1, r23
    4568:	18 06       	cpc	r1, r24
    456a:	09 06       	cpc	r0, r25
    456c:	08 95       	ret

0000456e <__fp_pscB>:
    456e:	00 24       	eor	r0, r0
    4570:	0a 94       	dec	r0
    4572:	12 16       	cp	r1, r18
    4574:	13 06       	cpc	r1, r19
    4576:	14 06       	cpc	r1, r20
    4578:	05 06       	cpc	r0, r21
    457a:	08 95       	ret

0000457c <__fp_round>:
    457c:	09 2e       	mov	r0, r25
    457e:	03 94       	inc	r0
    4580:	00 0c       	add	r0, r0
    4582:	11 f4       	brne	.+4      	; 0x4588 <__fp_round+0xc>
    4584:	88 23       	and	r24, r24
    4586:	52 f0       	brmi	.+20     	; 0x459c <__fp_round+0x20>
    4588:	bb 0f       	add	r27, r27
    458a:	40 f4       	brcc	.+16     	; 0x459c <__fp_round+0x20>
    458c:	bf 2b       	or	r27, r31
    458e:	11 f4       	brne	.+4      	; 0x4594 <__fp_round+0x18>
    4590:	60 ff       	sbrs	r22, 0
    4592:	04 c0       	rjmp	.+8      	; 0x459c <__fp_round+0x20>
    4594:	6f 5f       	subi	r22, 0xFF	; 255
    4596:	7f 4f       	sbci	r23, 0xFF	; 255
    4598:	8f 4f       	sbci	r24, 0xFF	; 255
    459a:	9f 4f       	sbci	r25, 0xFF	; 255
    459c:	08 95       	ret

0000459e <__fp_split3>:
    459e:	57 fd       	sbrc	r21, 7
    45a0:	90 58       	subi	r25, 0x80	; 128
    45a2:	44 0f       	add	r20, r20
    45a4:	55 1f       	adc	r21, r21
    45a6:	59 f0       	breq	.+22     	; 0x45be <__fp_splitA+0x10>
    45a8:	5f 3f       	cpi	r21, 0xFF	; 255
    45aa:	71 f0       	breq	.+28     	; 0x45c8 <__fp_splitA+0x1a>
    45ac:	47 95       	ror	r20

000045ae <__fp_splitA>:
    45ae:	88 0f       	add	r24, r24
    45b0:	97 fb       	bst	r25, 7
    45b2:	99 1f       	adc	r25, r25
    45b4:	61 f0       	breq	.+24     	; 0x45ce <__fp_splitA+0x20>
    45b6:	9f 3f       	cpi	r25, 0xFF	; 255
    45b8:	79 f0       	breq	.+30     	; 0x45d8 <__fp_splitA+0x2a>
    45ba:	87 95       	ror	r24
    45bc:	08 95       	ret
    45be:	12 16       	cp	r1, r18
    45c0:	13 06       	cpc	r1, r19
    45c2:	14 06       	cpc	r1, r20
    45c4:	55 1f       	adc	r21, r21
    45c6:	f2 cf       	rjmp	.-28     	; 0x45ac <__fp_split3+0xe>
    45c8:	46 95       	lsr	r20
    45ca:	f1 df       	rcall	.-30     	; 0x45ae <__fp_splitA>
    45cc:	08 c0       	rjmp	.+16     	; 0x45de <__fp_splitA+0x30>
    45ce:	16 16       	cp	r1, r22
    45d0:	17 06       	cpc	r1, r23
    45d2:	18 06       	cpc	r1, r24
    45d4:	99 1f       	adc	r25, r25
    45d6:	f1 cf       	rjmp	.-30     	; 0x45ba <__fp_splitA+0xc>
    45d8:	86 95       	lsr	r24
    45da:	71 05       	cpc	r23, r1
    45dc:	61 05       	cpc	r22, r1
    45de:	08 94       	sec
    45e0:	08 95       	ret

000045e2 <__fp_zero>:
    45e2:	e8 94       	clt

000045e4 <__fp_szero>:
    45e4:	bb 27       	eor	r27, r27
    45e6:	66 27       	eor	r22, r22
    45e8:	77 27       	eor	r23, r23
    45ea:	cb 01       	movw	r24, r22
    45ec:	97 f9       	bld	r25, 7
    45ee:	08 95       	ret

000045f0 <__mulsf3>:
    45f0:	0b d0       	rcall	.+22     	; 0x4608 <__mulsf3x>
    45f2:	c4 cf       	rjmp	.-120    	; 0x457c <__fp_round>
    45f4:	b5 df       	rcall	.-150    	; 0x4560 <__fp_pscA>
    45f6:	28 f0       	brcs	.+10     	; 0x4602 <__mulsf3+0x12>
    45f8:	ba df       	rcall	.-140    	; 0x456e <__fp_pscB>
    45fa:	18 f0       	brcs	.+6      	; 0x4602 <__mulsf3+0x12>
    45fc:	95 23       	and	r25, r21
    45fe:	09 f0       	breq	.+2      	; 0x4602 <__mulsf3+0x12>
    4600:	a6 cf       	rjmp	.-180    	; 0x454e <__fp_inf>
    4602:	ab cf       	rjmp	.-170    	; 0x455a <__fp_nan>
    4604:	11 24       	eor	r1, r1
    4606:	ee cf       	rjmp	.-36     	; 0x45e4 <__fp_szero>

00004608 <__mulsf3x>:
    4608:	ca df       	rcall	.-108    	; 0x459e <__fp_split3>
    460a:	a0 f3       	brcs	.-24     	; 0x45f4 <__mulsf3+0x4>

0000460c <__mulsf3_pse>:
    460c:	95 9f       	mul	r25, r21
    460e:	d1 f3       	breq	.-12     	; 0x4604 <__mulsf3+0x14>
    4610:	95 0f       	add	r25, r21
    4612:	50 e0       	ldi	r21, 0x00	; 0
    4614:	55 1f       	adc	r21, r21
    4616:	62 9f       	mul	r22, r18
    4618:	f0 01       	movw	r30, r0
    461a:	72 9f       	mul	r23, r18
    461c:	bb 27       	eor	r27, r27
    461e:	f0 0d       	add	r31, r0
    4620:	b1 1d       	adc	r27, r1
    4622:	63 9f       	mul	r22, r19
    4624:	aa 27       	eor	r26, r26
    4626:	f0 0d       	add	r31, r0
    4628:	b1 1d       	adc	r27, r1
    462a:	aa 1f       	adc	r26, r26
    462c:	64 9f       	mul	r22, r20
    462e:	66 27       	eor	r22, r22
    4630:	b0 0d       	add	r27, r0
    4632:	a1 1d       	adc	r26, r1
    4634:	66 1f       	adc	r22, r22
    4636:	82 9f       	mul	r24, r18
    4638:	22 27       	eor	r18, r18
    463a:	b0 0d       	add	r27, r0
    463c:	a1 1d       	adc	r26, r1
    463e:	62 1f       	adc	r22, r18
    4640:	73 9f       	mul	r23, r19
    4642:	b0 0d       	add	r27, r0
    4644:	a1 1d       	adc	r26, r1
    4646:	62 1f       	adc	r22, r18
    4648:	83 9f       	mul	r24, r19
    464a:	a0 0d       	add	r26, r0
    464c:	61 1d       	adc	r22, r1
    464e:	22 1f       	adc	r18, r18
    4650:	74 9f       	mul	r23, r20
    4652:	33 27       	eor	r19, r19
    4654:	a0 0d       	add	r26, r0
    4656:	61 1d       	adc	r22, r1
    4658:	23 1f       	adc	r18, r19
    465a:	84 9f       	mul	r24, r20
    465c:	60 0d       	add	r22, r0
    465e:	21 1d       	adc	r18, r1
    4660:	82 2f       	mov	r24, r18
    4662:	76 2f       	mov	r23, r22
    4664:	6a 2f       	mov	r22, r26
    4666:	11 24       	eor	r1, r1
    4668:	9f 57       	subi	r25, 0x7F	; 127
    466a:	50 40       	sbci	r21, 0x00	; 0
    466c:	8a f0       	brmi	.+34     	; 0x4690 <__mulsf3_pse+0x84>
    466e:	e1 f0       	breq	.+56     	; 0x46a8 <__mulsf3_pse+0x9c>
    4670:	88 23       	and	r24, r24
    4672:	4a f0       	brmi	.+18     	; 0x4686 <__mulsf3_pse+0x7a>
    4674:	ee 0f       	add	r30, r30
    4676:	ff 1f       	adc	r31, r31
    4678:	bb 1f       	adc	r27, r27
    467a:	66 1f       	adc	r22, r22
    467c:	77 1f       	adc	r23, r23
    467e:	88 1f       	adc	r24, r24
    4680:	91 50       	subi	r25, 0x01	; 1
    4682:	50 40       	sbci	r21, 0x00	; 0
    4684:	a9 f7       	brne	.-22     	; 0x4670 <__mulsf3_pse+0x64>
    4686:	9e 3f       	cpi	r25, 0xFE	; 254
    4688:	51 05       	cpc	r21, r1
    468a:	70 f0       	brcs	.+28     	; 0x46a8 <__mulsf3_pse+0x9c>
    468c:	60 cf       	rjmp	.-320    	; 0x454e <__fp_inf>
    468e:	aa cf       	rjmp	.-172    	; 0x45e4 <__fp_szero>
    4690:	5f 3f       	cpi	r21, 0xFF	; 255
    4692:	ec f3       	brlt	.-6      	; 0x468e <__mulsf3_pse+0x82>
    4694:	98 3e       	cpi	r25, 0xE8	; 232
    4696:	dc f3       	brlt	.-10     	; 0x468e <__mulsf3_pse+0x82>
    4698:	86 95       	lsr	r24
    469a:	77 95       	ror	r23
    469c:	67 95       	ror	r22
    469e:	b7 95       	ror	r27
    46a0:	f7 95       	ror	r31
    46a2:	e7 95       	ror	r30
    46a4:	9f 5f       	subi	r25, 0xFF	; 255
    46a6:	c1 f7       	brne	.-16     	; 0x4698 <__mulsf3_pse+0x8c>
    46a8:	fe 2b       	or	r31, r30
    46aa:	88 0f       	add	r24, r24
    46ac:	91 1d       	adc	r25, r1
    46ae:	96 95       	lsr	r25
    46b0:	87 95       	ror	r24
    46b2:	97 f9       	bld	r25, 7
    46b4:	08 95       	ret

000046b6 <__udivmodhi4>:
    46b6:	aa 1b       	sub	r26, r26
    46b8:	bb 1b       	sub	r27, r27
    46ba:	51 e1       	ldi	r21, 0x11	; 17
    46bc:	07 c0       	rjmp	.+14     	; 0x46cc <__udivmodhi4_ep>

000046be <__udivmodhi4_loop>:
    46be:	aa 1f       	adc	r26, r26
    46c0:	bb 1f       	adc	r27, r27
    46c2:	a6 17       	cp	r26, r22
    46c4:	b7 07       	cpc	r27, r23
    46c6:	10 f0       	brcs	.+4      	; 0x46cc <__udivmodhi4_ep>
    46c8:	a6 1b       	sub	r26, r22
    46ca:	b7 0b       	sbc	r27, r23

000046cc <__udivmodhi4_ep>:
    46cc:	88 1f       	adc	r24, r24
    46ce:	99 1f       	adc	r25, r25
    46d0:	5a 95       	dec	r21
    46d2:	a9 f7       	brne	.-22     	; 0x46be <__udivmodhi4_loop>
    46d4:	80 95       	com	r24
    46d6:	90 95       	com	r25
    46d8:	bc 01       	movw	r22, r24
    46da:	cd 01       	movw	r24, r26
    46dc:	08 95       	ret

000046de <__divmodhi4>:
    46de:	97 fb       	bst	r25, 7
    46e0:	09 2e       	mov	r0, r25
    46e2:	07 26       	eor	r0, r23
    46e4:	0a d0       	rcall	.+20     	; 0x46fa <__divmodhi4_neg1>
    46e6:	77 fd       	sbrc	r23, 7
    46e8:	04 d0       	rcall	.+8      	; 0x46f2 <__divmodhi4_neg2>
    46ea:	e5 df       	rcall	.-54     	; 0x46b6 <__udivmodhi4>
    46ec:	06 d0       	rcall	.+12     	; 0x46fa <__divmodhi4_neg1>
    46ee:	00 20       	and	r0, r0
    46f0:	1a f4       	brpl	.+6      	; 0x46f8 <__divmodhi4_exit>

000046f2 <__divmodhi4_neg2>:
    46f2:	70 95       	com	r23
    46f4:	61 95       	neg	r22
    46f6:	7f 4f       	sbci	r23, 0xFF	; 255

000046f8 <__divmodhi4_exit>:
    46f8:	08 95       	ret

000046fa <__divmodhi4_neg1>:
    46fa:	f6 f7       	brtc	.-4      	; 0x46f8 <__divmodhi4_exit>
    46fc:	90 95       	com	r25
    46fe:	81 95       	neg	r24
    4700:	9f 4f       	sbci	r25, 0xFF	; 255
    4702:	08 95       	ret

00004704 <__tablejump_elpm__>:
    4704:	07 90       	elpm	r0, Z+
    4706:	f6 91       	elpm	r31, Z
    4708:	e0 2d       	mov	r30, r0
    470a:	19 94       	eijmp

0000470c <atoi>:
    470c:	fc 01       	movw	r30, r24
    470e:	88 27       	eor	r24, r24
    4710:	99 27       	eor	r25, r25
    4712:	e8 94       	clt
    4714:	21 91       	ld	r18, Z+
    4716:	20 32       	cpi	r18, 0x20	; 32
    4718:	e9 f3       	breq	.-6      	; 0x4714 <atoi+0x8>
    471a:	29 30       	cpi	r18, 0x09	; 9
    471c:	10 f0       	brcs	.+4      	; 0x4722 <atoi+0x16>
    471e:	2e 30       	cpi	r18, 0x0E	; 14
    4720:	c8 f3       	brcs	.-14     	; 0x4714 <atoi+0x8>
    4722:	2b 32       	cpi	r18, 0x2B	; 43
    4724:	41 f0       	breq	.+16     	; 0x4736 <atoi+0x2a>
    4726:	2d 32       	cpi	r18, 0x2D	; 45
    4728:	39 f4       	brne	.+14     	; 0x4738 <atoi+0x2c>
    472a:	68 94       	set
    472c:	04 c0       	rjmp	.+8      	; 0x4736 <atoi+0x2a>
    472e:	0e 94 ee 23 	call	0x47dc	; 0x47dc <__mulhi_const_10>
    4732:	82 0f       	add	r24, r18
    4734:	91 1d       	adc	r25, r1
    4736:	21 91       	ld	r18, Z+
    4738:	20 53       	subi	r18, 0x30	; 48
    473a:	2a 30       	cpi	r18, 0x0A	; 10
    473c:	c0 f3       	brcs	.-16     	; 0x472e <atoi+0x22>
    473e:	1e f4       	brtc	.+6      	; 0x4746 <atoi+0x3a>
    4740:	90 95       	com	r25
    4742:	81 95       	neg	r24
    4744:	9f 4f       	sbci	r25, 0xFF	; 255
    4746:	08 95       	ret

00004748 <strcat>:
    4748:	fb 01       	movw	r30, r22
    474a:	dc 01       	movw	r26, r24
    474c:	0d 90       	ld	r0, X+
    474e:	00 20       	and	r0, r0
    4750:	e9 f7       	brne	.-6      	; 0x474c <strcat+0x4>
    4752:	11 97       	sbiw	r26, 0x01	; 1
    4754:	01 90       	ld	r0, Z+
    4756:	0d 92       	st	X+, r0
    4758:	00 20       	and	r0, r0
    475a:	e1 f7       	brne	.-8      	; 0x4754 <strcat+0xc>
    475c:	08 95       	ret

0000475e <strcmp>:
    475e:	fb 01       	movw	r30, r22
    4760:	dc 01       	movw	r26, r24
    4762:	8d 91       	ld	r24, X+
    4764:	01 90       	ld	r0, Z+
    4766:	80 19       	sub	r24, r0
    4768:	01 10       	cpse	r0, r1
    476a:	d9 f3       	breq	.-10     	; 0x4762 <strcmp+0x4>
    476c:	99 0b       	sbc	r25, r25
    476e:	08 95       	ret

00004770 <strcpy>:
    4770:	fb 01       	movw	r30, r22
    4772:	dc 01       	movw	r26, r24
    4774:	01 90       	ld	r0, Z+
    4776:	0d 92       	st	X+, r0
    4778:	00 20       	and	r0, r0
    477a:	e1 f7       	brne	.-8      	; 0x4774 <strcpy+0x4>
    477c:	08 95       	ret

0000477e <strncmp>:
    477e:	fb 01       	movw	r30, r22
    4780:	dc 01       	movw	r26, r24
    4782:	41 50       	subi	r20, 0x01	; 1
    4784:	50 40       	sbci	r21, 0x00	; 0
    4786:	30 f0       	brcs	.+12     	; 0x4794 <strncmp+0x16>
    4788:	8d 91       	ld	r24, X+
    478a:	01 90       	ld	r0, Z+
    478c:	80 19       	sub	r24, r0
    478e:	19 f4       	brne	.+6      	; 0x4796 <strncmp+0x18>
    4790:	00 20       	and	r0, r0
    4792:	b9 f7       	brne	.-18     	; 0x4782 <strncmp+0x4>
    4794:	88 1b       	sub	r24, r24
    4796:	99 0b       	sbc	r25, r25
    4798:	08 95       	ret

0000479a <itoa>:
    479a:	fb 01       	movw	r30, r22
    479c:	9f 01       	movw	r18, r30
    479e:	e8 94       	clt
    47a0:	42 30       	cpi	r20, 0x02	; 2
    47a2:	c4 f0       	brlt	.+48     	; 0x47d4 <itoa+0x3a>
    47a4:	45 32       	cpi	r20, 0x25	; 37
    47a6:	b4 f4       	brge	.+44     	; 0x47d4 <itoa+0x3a>
    47a8:	4a 30       	cpi	r20, 0x0A	; 10
    47aa:	29 f4       	brne	.+10     	; 0x47b6 <itoa+0x1c>
    47ac:	97 fb       	bst	r25, 7
    47ae:	1e f4       	brtc	.+6      	; 0x47b6 <itoa+0x1c>
    47b0:	90 95       	com	r25
    47b2:	81 95       	neg	r24
    47b4:	9f 4f       	sbci	r25, 0xFF	; 255
    47b6:	64 2f       	mov	r22, r20
    47b8:	77 27       	eor	r23, r23
    47ba:	0e 94 5b 23 	call	0x46b6	; 0x46b6 <__udivmodhi4>
    47be:	80 5d       	subi	r24, 0xD0	; 208
    47c0:	8a 33       	cpi	r24, 0x3A	; 58
    47c2:	0c f0       	brlt	.+2      	; 0x47c6 <itoa+0x2c>
    47c4:	89 5d       	subi	r24, 0xD9	; 217
    47c6:	81 93       	st	Z+, r24
    47c8:	cb 01       	movw	r24, r22
    47ca:	00 97       	sbiw	r24, 0x00	; 0
    47cc:	a1 f7       	brne	.-24     	; 0x47b6 <itoa+0x1c>
    47ce:	16 f4       	brtc	.+4      	; 0x47d4 <itoa+0x3a>
    47d0:	5d e2       	ldi	r21, 0x2D	; 45
    47d2:	51 93       	st	Z+, r21
    47d4:	10 82       	st	Z, r1
    47d6:	c9 01       	movw	r24, r18
    47d8:	0c 94 17 24 	jmp	0x482e	; 0x482e <strrev>

000047dc <__mulhi_const_10>:
    47dc:	7a e0       	ldi	r23, 0x0A	; 10
    47de:	97 9f       	mul	r25, r23
    47e0:	90 2d       	mov	r25, r0
    47e2:	87 9f       	mul	r24, r23
    47e4:	80 2d       	mov	r24, r0
    47e6:	91 0d       	add	r25, r1
    47e8:	11 24       	eor	r1, r1
    47ea:	08 95       	ret

000047ec <__eerd_byte_m2560>:
    47ec:	f9 99       	sbic	0x1f, 1	; 31
    47ee:	fe cf       	rjmp	.-4      	; 0x47ec <__eerd_byte_m2560>
    47f0:	92 bd       	out	0x22, r25	; 34
    47f2:	81 bd       	out	0x21, r24	; 33
    47f4:	f8 9a       	sbi	0x1f, 0	; 31
    47f6:	99 27       	eor	r25, r25
    47f8:	80 b5       	in	r24, 0x20	; 32
    47fa:	08 95       	ret

000047fc <__eerd_word_m2560>:
    47fc:	a8 e1       	ldi	r26, 0x18	; 24
    47fe:	b0 e0       	ldi	r27, 0x00	; 0
    4800:	42 e0       	ldi	r20, 0x02	; 2
    4802:	50 e0       	ldi	r21, 0x00	; 0
    4804:	0c 94 29 24 	jmp	0x4852	; 0x4852 <__eerd_blraw_m2560>

00004808 <__eewr_byte_m2560>:
    4808:	26 2f       	mov	r18, r22

0000480a <__eewr_r18_m2560>:
    480a:	f9 99       	sbic	0x1f, 1	; 31
    480c:	fe cf       	rjmp	.-4      	; 0x480a <__eewr_r18_m2560>
    480e:	1f ba       	out	0x1f, r1	; 31
    4810:	92 bd       	out	0x22, r25	; 34
    4812:	81 bd       	out	0x21, r24	; 33
    4814:	20 bd       	out	0x20, r18	; 32
    4816:	0f b6       	in	r0, 0x3f	; 63
    4818:	f8 94       	cli
    481a:	fa 9a       	sbi	0x1f, 2	; 31
    481c:	f9 9a       	sbi	0x1f, 1	; 31
    481e:	0f be       	out	0x3f, r0	; 63
    4820:	01 96       	adiw	r24, 0x01	; 1
    4822:	08 95       	ret

00004824 <__eewr_word_m2560>:
    4824:	0e 94 04 24 	call	0x4808	; 0x4808 <__eewr_byte_m2560>
    4828:	27 2f       	mov	r18, r23
    482a:	0c 94 05 24 	jmp	0x480a	; 0x480a <__eewr_r18_m2560>

0000482e <strrev>:
    482e:	dc 01       	movw	r26, r24
    4830:	fc 01       	movw	r30, r24
    4832:	67 2f       	mov	r22, r23
    4834:	71 91       	ld	r23, Z+
    4836:	77 23       	and	r23, r23
    4838:	e1 f7       	brne	.-8      	; 0x4832 <strrev+0x4>
    483a:	32 97       	sbiw	r30, 0x02	; 2
    483c:	04 c0       	rjmp	.+8      	; 0x4846 <strrev+0x18>
    483e:	7c 91       	ld	r23, X
    4840:	6d 93       	st	X+, r22
    4842:	70 83       	st	Z, r23
    4844:	62 91       	ld	r22, -Z
    4846:	ae 17       	cp	r26, r30
    4848:	bf 07       	cpc	r27, r31
    484a:	c8 f3       	brcs	.-14     	; 0x483e <strrev+0x10>
    484c:	08 95       	ret

0000484e <__eerd_block_m2560>:
    484e:	dc 01       	movw	r26, r24
    4850:	cb 01       	movw	r24, r22

00004852 <__eerd_blraw_m2560>:
    4852:	fc 01       	movw	r30, r24
    4854:	f9 99       	sbic	0x1f, 1	; 31
    4856:	fe cf       	rjmp	.-4      	; 0x4854 <__eerd_blraw_m2560+0x2>
    4858:	06 c0       	rjmp	.+12     	; 0x4866 <__eerd_blraw_m2560+0x14>
    485a:	f2 bd       	out	0x22, r31	; 34
    485c:	e1 bd       	out	0x21, r30	; 33
    485e:	f8 9a       	sbi	0x1f, 0	; 31
    4860:	31 96       	adiw	r30, 0x01	; 1
    4862:	00 b4       	in	r0, 0x20	; 32
    4864:	0d 92       	st	X+, r0
    4866:	41 50       	subi	r20, 0x01	; 1
    4868:	50 40       	sbci	r21, 0x00	; 0
    486a:	b8 f7       	brcc	.-18     	; 0x485a <__eerd_blraw_m2560+0x8>
    486c:	08 95       	ret

0000486e <_exit>:
    486e:	f8 94       	cli

00004870 <__stop_program>:
    4870:	ff cf       	rjmp	.-2      	; 0x4870 <__stop_program>
