
GAVR_reCycle.elf:     file format elf32-avr

Sections:
Idx Name          Size      VMA       LMA       File off  Algn
  0 .data         0000007c  00800100  00002a92  00002b46  2**0
                  CONTENTS, ALLOC, LOAD, DATA
  1 .text         00002a92  00000000  00000000  000000b4  2**1
                  CONTENTS, ALLOC, LOAD, READONLY, CODE
  2 .bss          0000003f  0080017c  0080017c  00002bc2  2**0
                  ALLOC
  3 .eeprom       00000007  00810000  00810000  00002bc2  2**0
                  CONTENTS, ALLOC, LOAD, DATA
  4 .stab         00001008  00000000  00000000  00002bcc  2**2
                  CONTENTS, READONLY, DEBUGGING
  5 .stabstr      00000522  00000000  00000000  00003bd4  2**0
                  CONTENTS, READONLY, DEBUGGING
  6 .debug_aranges 000000e0  00000000  00000000  000040f8  2**3
                  CONTENTS, READONLY, DEBUGGING
  7 .debug_info   0000060b  00000000  00000000  000041d8  2**0
                  CONTENTS, READONLY, DEBUGGING
  8 .debug_abbrev 0000008c  00000000  00000000  000047e3  2**0
                  CONTENTS, READONLY, DEBUGGING
  9 .debug_line   000003f6  00000000  00000000  0000486f  2**0
                  CONTENTS, READONLY, DEBUGGING

Disassembly of section .text:

00000000 <__vectors>:
       0:	0c 94 3f 00 	jmp	0x7e	; 0x7e <__ctors_end>
       4:	0c 94 67 00 	jmp	0xce	; 0xce <__bad_interrupt>
       8:	0c 94 67 00 	jmp	0xce	; 0xce <__bad_interrupt>
       c:	0c 94 bc 07 	jmp	0xf78	; 0xf78 <__vector_3>
      10:	0c 94 53 07 	jmp	0xea6	; 0xea6 <__vector_4>
      14:	0c 94 67 00 	jmp	0xce	; 0xce <__bad_interrupt>
      18:	0c 94 67 00 	jmp	0xce	; 0xce <__bad_interrupt>
      1c:	0c 94 67 00 	jmp	0xce	; 0xce <__bad_interrupt>
      20:	0c 94 67 00 	jmp	0xce	; 0xce <__bad_interrupt>
      24:	0c 94 67 00 	jmp	0xce	; 0xce <__bad_interrupt>
      28:	0c 94 67 00 	jmp	0xce	; 0xce <__bad_interrupt>
      2c:	0c 94 16 08 	jmp	0x102c	; 0x102c <__vector_11>
      30:	0c 94 67 00 	jmp	0xce	; 0xce <__bad_interrupt>
      34:	0c 94 67 00 	jmp	0xce	; 0xce <__bad_interrupt>
      38:	0c 94 67 00 	jmp	0xce	; 0xce <__bad_interrupt>
      3c:	0c 94 67 00 	jmp	0xce	; 0xce <__bad_interrupt>
      40:	0c 94 67 00 	jmp	0xce	; 0xce <__bad_interrupt>
      44:	0c 94 67 00 	jmp	0xce	; 0xce <__bad_interrupt>
      48:	0c 94 67 00 	jmp	0xce	; 0xce <__bad_interrupt>
      4c:	0c 94 67 00 	jmp	0xce	; 0xce <__bad_interrupt>
      50:	0c 94 24 09 	jmp	0x1248	; 0x1248 <__vector_20>
      54:	0c 94 67 00 	jmp	0xce	; 0xce <__bad_interrupt>
      58:	0c 94 67 00 	jmp	0xce	; 0xce <__bad_interrupt>
      5c:	0c 94 67 00 	jmp	0xce	; 0xce <__bad_interrupt>
      60:	0c 94 67 00 	jmp	0xce	; 0xce <__bad_interrupt>
      64:	0c 94 67 00 	jmp	0xce	; 0xce <__bad_interrupt>
      68:	0c 94 67 00 	jmp	0xce	; 0xce <__bad_interrupt>
      6c:	0c 94 67 00 	jmp	0xce	; 0xce <__bad_interrupt>
      70:	0c 94 4e 09 	jmp	0x129c	; 0x129c <__vector_28>
      74:	0c 94 67 00 	jmp	0xce	; 0xce <__bad_interrupt>
      78:	0c 94 67 00 	jmp	0xce	; 0xce <__bad_interrupt>

0000007c <__ctors_start>:
      7c:	6a 14       	cp	r6, r10

0000007e <__ctors_end>:
      7e:	11 24       	eor	r1, r1
      80:	1f be       	out	0x3f, r1	; 63
      82:	cf ef       	ldi	r28, 0xFF	; 255
      84:	d0 e1       	ldi	r29, 0x10	; 16
      86:	de bf       	out	0x3e, r29	; 62
      88:	cd bf       	out	0x3d, r28	; 61

0000008a <__do_copy_data>:
      8a:	11 e0       	ldi	r17, 0x01	; 1
      8c:	a0 e0       	ldi	r26, 0x00	; 0
      8e:	b1 e0       	ldi	r27, 0x01	; 1
      90:	e2 e9       	ldi	r30, 0x92	; 146
      92:	fa e2       	ldi	r31, 0x2A	; 42
      94:	02 c0       	rjmp	.+4      	; 0x9a <__do_copy_data+0x10>
      96:	05 90       	lpm	r0, Z+
      98:	0d 92       	st	X+, r0
      9a:	ac 37       	cpi	r26, 0x7C	; 124
      9c:	b1 07       	cpc	r27, r17
      9e:	d9 f7       	brne	.-10     	; 0x96 <__do_copy_data+0xc>

000000a0 <__do_clear_bss>:
      a0:	11 e0       	ldi	r17, 0x01	; 1
      a2:	ac e7       	ldi	r26, 0x7C	; 124
      a4:	b1 e0       	ldi	r27, 0x01	; 1
      a6:	01 c0       	rjmp	.+2      	; 0xaa <.do_clear_bss_start>

000000a8 <.do_clear_bss_loop>:
      a8:	1d 92       	st	X+, r1

000000aa <.do_clear_bss_start>:
      aa:	ab 3b       	cpi	r26, 0xBB	; 187
      ac:	b1 07       	cpc	r27, r17
      ae:	e1 f7       	brne	.-8      	; 0xa8 <.do_clear_bss_loop>

000000b0 <__do_global_ctors>:
      b0:	10 e0       	ldi	r17, 0x00	; 0
      b2:	ce e7       	ldi	r28, 0x7E	; 126
      b4:	d0 e0       	ldi	r29, 0x00	; 0
      b6:	04 c0       	rjmp	.+8      	; 0xc0 <__do_global_ctors+0x10>
      b8:	22 97       	sbiw	r28, 0x02	; 2
      ba:	fe 01       	movw	r30, r28
      bc:	0e 94 a0 14 	call	0x2940	; 0x2940 <__tablejump__>
      c0:	cc 37       	cpi	r28, 0x7C	; 124
      c2:	d1 07       	cpc	r29, r17
      c4:	c9 f7       	brne	.-14     	; 0xb8 <__do_global_ctors+0x8>
      c6:	0e 94 78 09 	call	0x12f0	; 0x12f0 <main>
      ca:	0c 94 47 15 	jmp	0x2a8e	; 0x2a8e <_exit>

000000ce <__bad_interrupt>:
      ce:	0c 94 00 00 	jmp	0	; 0x0 <__vectors>

000000d2 <_ZN6myDateC1Ev>:
      d2:	cf 93       	push	r28
      d4:	df 93       	push	r29
      d6:	00 d0       	rcall	.+0      	; 0xd8 <_ZN6myDateC1Ev+0x6>
      d8:	cd b7       	in	r28, 0x3d	; 61
      da:	de b7       	in	r29, 0x3e	; 62
      dc:	9a 83       	std	Y+2, r25	; 0x02
      de:	89 83       	std	Y+1, r24	; 0x01
      e0:	89 81       	ldd	r24, Y+1	; 0x01
      e2:	9a 81       	ldd	r25, Y+2	; 0x02
      e4:	fc 01       	movw	r30, r24
      e6:	11 82       	std	Z+1, r1	; 0x01
      e8:	10 82       	st	Z, r1
      ea:	89 81       	ldd	r24, Y+1	; 0x01
      ec:	9a 81       	ldd	r25, Y+2	; 0x02
      ee:	fc 01       	movw	r30, r24
      f0:	13 82       	std	Z+3, r1	; 0x03
      f2:	12 82       	std	Z+2, r1	; 0x02
      f4:	89 81       	ldd	r24, Y+1	; 0x01
      f6:	9a 81       	ldd	r25, Y+2	; 0x02
      f8:	fc 01       	movw	r30, r24
      fa:	15 82       	std	Z+5, r1	; 0x05
      fc:	14 82       	std	Z+4, r1	; 0x04
      fe:	0f 90       	pop	r0
     100:	0f 90       	pop	r0
     102:	df 91       	pop	r29
     104:	cf 91       	pop	r28
     106:	08 95       	ret

00000108 <_ZN6myDateC1Eiii>:
     108:	cf 93       	push	r28
     10a:	df 93       	push	r29
     10c:	cd b7       	in	r28, 0x3d	; 61
     10e:	de b7       	in	r29, 0x3e	; 62
     110:	28 97       	sbiw	r28, 0x08	; 8
     112:	0f b6       	in	r0, 0x3f	; 63
     114:	f8 94       	cli
     116:	de bf       	out	0x3e, r29	; 62
     118:	0f be       	out	0x3f, r0	; 63
     11a:	cd bf       	out	0x3d, r28	; 61
     11c:	9a 83       	std	Y+2, r25	; 0x02
     11e:	89 83       	std	Y+1, r24	; 0x01
     120:	7c 83       	std	Y+4, r23	; 0x04
     122:	6b 83       	std	Y+3, r22	; 0x03
     124:	5e 83       	std	Y+6, r21	; 0x06
     126:	4d 83       	std	Y+5, r20	; 0x05
     128:	38 87       	std	Y+8, r19	; 0x08
     12a:	2f 83       	std	Y+7, r18	; 0x07
     12c:	89 81       	ldd	r24, Y+1	; 0x01
     12e:	9a 81       	ldd	r25, Y+2	; 0x02
     130:	6b 81       	ldd	r22, Y+3	; 0x03
     132:	7c 81       	ldd	r23, Y+4	; 0x04
     134:	4d 81       	ldd	r20, Y+5	; 0x05
     136:	5e 81       	ldd	r21, Y+6	; 0x06
     138:	2f 81       	ldd	r18, Y+7	; 0x07
     13a:	38 85       	ldd	r19, Y+8	; 0x08
     13c:	0e 94 84 01 	call	0x308	; 0x308 <_ZN6myDate7setDateEiii>
     140:	28 96       	adiw	r28, 0x08	; 8
     142:	0f b6       	in	r0, 0x3f	; 63
     144:	f8 94       	cli
     146:	de bf       	out	0x3e, r29	; 62
     148:	0f be       	out	0x3f, r0	; 63
     14a:	cd bf       	out	0x3d, r28	; 61
     14c:	df 91       	pop	r29
     14e:	cf 91       	pop	r28
     150:	08 95       	ret

00000152 <_ZN6myDate9getMonthsEv>:
     152:	cf 93       	push	r28
     154:	df 93       	push	r29
     156:	00 d0       	rcall	.+0      	; 0x158 <_ZN6myDate9getMonthsEv+0x6>
     158:	cd b7       	in	r28, 0x3d	; 61
     15a:	de b7       	in	r29, 0x3e	; 62
     15c:	9a 83       	std	Y+2, r25	; 0x02
     15e:	89 83       	std	Y+1, r24	; 0x01
     160:	89 81       	ldd	r24, Y+1	; 0x01
     162:	9a 81       	ldd	r25, Y+2	; 0x02
     164:	fc 01       	movw	r30, r24
     166:	80 81       	ld	r24, Z
     168:	91 81       	ldd	r25, Z+1	; 0x01
     16a:	0f 90       	pop	r0
     16c:	0f 90       	pop	r0
     16e:	df 91       	pop	r29
     170:	cf 91       	pop	r28
     172:	08 95       	ret

00000174 <_ZN6myDate8getYearsEv>:
     174:	cf 93       	push	r28
     176:	df 93       	push	r29
     178:	00 d0       	rcall	.+0      	; 0x17a <_ZN6myDate8getYearsEv+0x6>
     17a:	cd b7       	in	r28, 0x3d	; 61
     17c:	de b7       	in	r29, 0x3e	; 62
     17e:	9a 83       	std	Y+2, r25	; 0x02
     180:	89 83       	std	Y+1, r24	; 0x01
     182:	89 81       	ldd	r24, Y+1	; 0x01
     184:	9a 81       	ldd	r25, Y+2	; 0x02
     186:	fc 01       	movw	r30, r24
     188:	84 81       	ldd	r24, Z+4	; 0x04
     18a:	95 81       	ldd	r25, Z+5	; 0x05
     18c:	0f 90       	pop	r0
     18e:	0f 90       	pop	r0
     190:	df 91       	pop	r29
     192:	cf 91       	pop	r28
     194:	08 95       	ret

00000196 <_ZN6myDate7getDaysEv>:
     196:	cf 93       	push	r28
     198:	df 93       	push	r29
     19a:	00 d0       	rcall	.+0      	; 0x19c <_ZN6myDate7getDaysEv+0x6>
     19c:	cd b7       	in	r28, 0x3d	; 61
     19e:	de b7       	in	r29, 0x3e	; 62
     1a0:	9a 83       	std	Y+2, r25	; 0x02
     1a2:	89 83       	std	Y+1, r24	; 0x01
     1a4:	89 81       	ldd	r24, Y+1	; 0x01
     1a6:	9a 81       	ldd	r25, Y+2	; 0x02
     1a8:	fc 01       	movw	r30, r24
     1aa:	82 81       	ldd	r24, Z+2	; 0x02
     1ac:	93 81       	ldd	r25, Z+3	; 0x03
     1ae:	0f 90       	pop	r0
     1b0:	0f 90       	pop	r0
     1b2:	df 91       	pop	r29
     1b4:	cf 91       	pop	r28
     1b6:	08 95       	ret

000001b8 <_ZN6myDate8setMonthEi>:
     1b8:	cf 93       	push	r28
     1ba:	df 93       	push	r29
     1bc:	00 d0       	rcall	.+0      	; 0x1be <_ZN6myDate8setMonthEi+0x6>
     1be:	00 d0       	rcall	.+0      	; 0x1c0 <_ZN6myDate8setMonthEi+0x8>
     1c0:	cd b7       	in	r28, 0x3d	; 61
     1c2:	de b7       	in	r29, 0x3e	; 62
     1c4:	9a 83       	std	Y+2, r25	; 0x02
     1c6:	89 83       	std	Y+1, r24	; 0x01
     1c8:	7c 83       	std	Y+4, r23	; 0x04
     1ca:	6b 83       	std	Y+3, r22	; 0x03
     1cc:	8b 81       	ldd	r24, Y+3	; 0x03
     1ce:	9c 81       	ldd	r25, Y+4	; 0x04
     1d0:	0c 96       	adiw	r24, 0x0c	; 12
     1d2:	89 31       	cpi	r24, 0x19	; 25
     1d4:	91 05       	cpc	r25, r1
     1d6:	38 f4       	brcc	.+14     	; 0x1e6 <_ZN6myDate8setMonthEi+0x2e>
     1d8:	89 81       	ldd	r24, Y+1	; 0x01
     1da:	9a 81       	ldd	r25, Y+2	; 0x02
     1dc:	2b 81       	ldd	r18, Y+3	; 0x03
     1de:	3c 81       	ldd	r19, Y+4	; 0x04
     1e0:	fc 01       	movw	r30, r24
     1e2:	31 83       	std	Z+1, r19	; 0x01
     1e4:	20 83       	st	Z, r18
     1e6:	0f 90       	pop	r0
     1e8:	0f 90       	pop	r0
     1ea:	0f 90       	pop	r0
     1ec:	0f 90       	pop	r0
     1ee:	df 91       	pop	r29
     1f0:	cf 91       	pop	r28
     1f2:	08 95       	ret

000001f4 <_ZN6myDate6setDayEi>:
     1f4:	cf 93       	push	r28
     1f6:	df 93       	push	r29
     1f8:	00 d0       	rcall	.+0      	; 0x1fa <_ZN6myDate6setDayEi+0x6>
     1fa:	00 d0       	rcall	.+0      	; 0x1fc <_ZN6myDate6setDayEi+0x8>
     1fc:	cd b7       	in	r28, 0x3d	; 61
     1fe:	de b7       	in	r29, 0x3e	; 62
     200:	9a 83       	std	Y+2, r25	; 0x02
     202:	89 83       	std	Y+1, r24	; 0x01
     204:	7c 83       	std	Y+4, r23	; 0x04
     206:	6b 83       	std	Y+3, r22	; 0x03
     208:	89 81       	ldd	r24, Y+1	; 0x01
     20a:	9a 81       	ldd	r25, Y+2	; 0x02
     20c:	fc 01       	movw	r30, r24
     20e:	80 81       	ld	r24, Z
     210:	91 81       	ldd	r25, Z+1	; 0x01
     212:	89 30       	cpi	r24, 0x09	; 9
     214:	91 05       	cpc	r25, r1
     216:	81 f0       	breq	.+32     	; 0x238 <_ZN6myDate6setDayEi+0x44>
     218:	89 81       	ldd	r24, Y+1	; 0x01
     21a:	9a 81       	ldd	r25, Y+2	; 0x02
     21c:	fc 01       	movw	r30, r24
     21e:	80 81       	ld	r24, Z
     220:	91 81       	ldd	r25, Z+1	; 0x01
     222:	84 30       	cpi	r24, 0x04	; 4
     224:	91 05       	cpc	r25, r1
     226:	41 f0       	breq	.+16     	; 0x238 <_ZN6myDate6setDayEi+0x44>
     228:	89 81       	ldd	r24, Y+1	; 0x01
     22a:	9a 81       	ldd	r25, Y+2	; 0x02
     22c:	fc 01       	movw	r30, r24
     22e:	80 81       	ld	r24, Z
     230:	91 81       	ldd	r25, Z+1	; 0x01
     232:	86 30       	cpi	r24, 0x06	; 6
     234:	91 05       	cpc	r25, r1
     236:	41 f4       	brne	.+16     	; 0x248 <_ZN6myDate6setDayEi+0x54>
     238:	8b 81       	ldd	r24, Y+3	; 0x03
     23a:	9c 81       	ldd	r25, Y+4	; 0x04
     23c:	4e 96       	adiw	r24, 0x1e	; 30
     23e:	8d 33       	cpi	r24, 0x3D	; 61
     240:	91 05       	cpc	r25, r1
     242:	10 f4       	brcc	.+4      	; 0x248 <_ZN6myDate6setDayEi+0x54>
     244:	81 e0       	ldi	r24, 0x01	; 1
     246:	01 c0       	rjmp	.+2      	; 0x24a <_ZN6myDate6setDayEi+0x56>
     248:	80 e0       	ldi	r24, 0x00	; 0
     24a:	88 23       	and	r24, r24
     24c:	41 f0       	breq	.+16     	; 0x25e <_ZN6myDate6setDayEi+0x6a>
     24e:	89 81       	ldd	r24, Y+1	; 0x01
     250:	9a 81       	ldd	r25, Y+2	; 0x02
     252:	2b 81       	ldd	r18, Y+3	; 0x03
     254:	3c 81       	ldd	r19, Y+4	; 0x04
     256:	fc 01       	movw	r30, r24
     258:	33 83       	std	Z+3, r19	; 0x03
     25a:	22 83       	std	Z+2, r18	; 0x02
     25c:	28 c0       	rjmp	.+80     	; 0x2ae <_ZN6myDate6setDayEi+0xba>
     25e:	89 81       	ldd	r24, Y+1	; 0x01
     260:	9a 81       	ldd	r25, Y+2	; 0x02
     262:	fc 01       	movw	r30, r24
     264:	80 81       	ld	r24, Z
     266:	91 81       	ldd	r25, Z+1	; 0x01
     268:	82 30       	cpi	r24, 0x02	; 2
     26a:	91 05       	cpc	r25, r1
     26c:	41 f4       	brne	.+16     	; 0x27e <_ZN6myDate6setDayEi+0x8a>
     26e:	8b 81       	ldd	r24, Y+3	; 0x03
     270:	9c 81       	ldd	r25, Y+4	; 0x04
     272:	4c 96       	adiw	r24, 0x1c	; 28
     274:	89 33       	cpi	r24, 0x39	; 57
     276:	91 05       	cpc	r25, r1
     278:	10 f4       	brcc	.+4      	; 0x27e <_ZN6myDate6setDayEi+0x8a>
     27a:	81 e0       	ldi	r24, 0x01	; 1
     27c:	01 c0       	rjmp	.+2      	; 0x280 <_ZN6myDate6setDayEi+0x8c>
     27e:	80 e0       	ldi	r24, 0x00	; 0
     280:	88 23       	and	r24, r24
     282:	41 f0       	breq	.+16     	; 0x294 <_ZN6myDate6setDayEi+0xa0>
     284:	89 81       	ldd	r24, Y+1	; 0x01
     286:	9a 81       	ldd	r25, Y+2	; 0x02
     288:	2b 81       	ldd	r18, Y+3	; 0x03
     28a:	3c 81       	ldd	r19, Y+4	; 0x04
     28c:	fc 01       	movw	r30, r24
     28e:	33 83       	std	Z+3, r19	; 0x03
     290:	22 83       	std	Z+2, r18	; 0x02
     292:	0d c0       	rjmp	.+26     	; 0x2ae <_ZN6myDate6setDayEi+0xba>
     294:	8b 81       	ldd	r24, Y+3	; 0x03
     296:	9c 81       	ldd	r25, Y+4	; 0x04
     298:	4f 96       	adiw	r24, 0x1f	; 31
     29a:	8f 33       	cpi	r24, 0x3F	; 63
     29c:	91 05       	cpc	r25, r1
     29e:	38 f4       	brcc	.+14     	; 0x2ae <_ZN6myDate6setDayEi+0xba>
     2a0:	89 81       	ldd	r24, Y+1	; 0x01
     2a2:	9a 81       	ldd	r25, Y+2	; 0x02
     2a4:	2b 81       	ldd	r18, Y+3	; 0x03
     2a6:	3c 81       	ldd	r19, Y+4	; 0x04
     2a8:	fc 01       	movw	r30, r24
     2aa:	33 83       	std	Z+3, r19	; 0x03
     2ac:	22 83       	std	Z+2, r18	; 0x02
     2ae:	0f 90       	pop	r0
     2b0:	0f 90       	pop	r0
     2b2:	0f 90       	pop	r0
     2b4:	0f 90       	pop	r0
     2b6:	df 91       	pop	r29
     2b8:	cf 91       	pop	r28
     2ba:	08 95       	ret

000002bc <_ZN6myDate7setYearEi>:
     2bc:	cf 93       	push	r28
     2be:	df 93       	push	r29
     2c0:	00 d0       	rcall	.+0      	; 0x2c2 <_ZN6myDate7setYearEi+0x6>
     2c2:	00 d0       	rcall	.+0      	; 0x2c4 <_ZN6myDate7setYearEi+0x8>
     2c4:	cd b7       	in	r28, 0x3d	; 61
     2c6:	de b7       	in	r29, 0x3e	; 62
     2c8:	9a 83       	std	Y+2, r25	; 0x02
     2ca:	89 83       	std	Y+1, r24	; 0x01
     2cc:	7c 83       	std	Y+4, r23	; 0x04
     2ce:	6b 83       	std	Y+3, r22	; 0x03
     2d0:	8b 81       	ldd	r24, Y+3	; 0x03
     2d2:	9c 81       	ldd	r25, Y+4	; 0x04
     2d4:	27 e0       	ldi	r18, 0x07	; 7
     2d6:	80 3d       	cpi	r24, 0xD0	; 208
     2d8:	92 07       	cpc	r25, r18
     2da:	44 f0       	brlt	.+16     	; 0x2ec <_ZN6myDate7setYearEi+0x30>
     2dc:	89 81       	ldd	r24, Y+1	; 0x01
     2de:	9a 81       	ldd	r25, Y+2	; 0x02
     2e0:	2b 81       	ldd	r18, Y+3	; 0x03
     2e2:	3c 81       	ldd	r19, Y+4	; 0x04
     2e4:	fc 01       	movw	r30, r24
     2e6:	35 83       	std	Z+5, r19	; 0x05
     2e8:	24 83       	std	Z+4, r18	; 0x04
     2ea:	07 c0       	rjmp	.+14     	; 0x2fa <_ZN6myDate7setYearEi+0x3e>
     2ec:	89 81       	ldd	r24, Y+1	; 0x01
     2ee:	9a 81       	ldd	r25, Y+2	; 0x02
     2f0:	22 ef       	ldi	r18, 0xF2	; 242
     2f2:	33 e0       	ldi	r19, 0x03	; 3
     2f4:	fc 01       	movw	r30, r24
     2f6:	35 83       	std	Z+5, r19	; 0x05
     2f8:	24 83       	std	Z+4, r18	; 0x04
     2fa:	0f 90       	pop	r0
     2fc:	0f 90       	pop	r0
     2fe:	0f 90       	pop	r0
     300:	0f 90       	pop	r0
     302:	df 91       	pop	r29
     304:	cf 91       	pop	r28
     306:	08 95       	ret

00000308 <_ZN6myDate7setDateEiii>:
     308:	cf 93       	push	r28
     30a:	df 93       	push	r29
     30c:	cd b7       	in	r28, 0x3d	; 61
     30e:	de b7       	in	r29, 0x3e	; 62
     310:	28 97       	sbiw	r28, 0x08	; 8
     312:	0f b6       	in	r0, 0x3f	; 63
     314:	f8 94       	cli
     316:	de bf       	out	0x3e, r29	; 62
     318:	0f be       	out	0x3f, r0	; 63
     31a:	cd bf       	out	0x3d, r28	; 61
     31c:	9a 83       	std	Y+2, r25	; 0x02
     31e:	89 83       	std	Y+1, r24	; 0x01
     320:	7c 83       	std	Y+4, r23	; 0x04
     322:	6b 83       	std	Y+3, r22	; 0x03
     324:	5e 83       	std	Y+6, r21	; 0x06
     326:	4d 83       	std	Y+5, r20	; 0x05
     328:	38 87       	std	Y+8, r19	; 0x08
     32a:	2f 83       	std	Y+7, r18	; 0x07
     32c:	89 81       	ldd	r24, Y+1	; 0x01
     32e:	9a 81       	ldd	r25, Y+2	; 0x02
     330:	2b 81       	ldd	r18, Y+3	; 0x03
     332:	3c 81       	ldd	r19, Y+4	; 0x04
     334:	b9 01       	movw	r22, r18
     336:	0e 94 dc 00 	call	0x1b8	; 0x1b8 <_ZN6myDate8setMonthEi>
     33a:	89 81       	ldd	r24, Y+1	; 0x01
     33c:	9a 81       	ldd	r25, Y+2	; 0x02
     33e:	2d 81       	ldd	r18, Y+5	; 0x05
     340:	3e 81       	ldd	r19, Y+6	; 0x06
     342:	b9 01       	movw	r22, r18
     344:	0e 94 fa 00 	call	0x1f4	; 0x1f4 <_ZN6myDate6setDayEi>
     348:	89 81       	ldd	r24, Y+1	; 0x01
     34a:	9a 81       	ldd	r25, Y+2	; 0x02
     34c:	2f 81       	ldd	r18, Y+7	; 0x07
     34e:	38 85       	ldd	r19, Y+8	; 0x08
     350:	b9 01       	movw	r22, r18
     352:	0e 94 5e 01 	call	0x2bc	; 0x2bc <_ZN6myDate7setYearEi>
     356:	28 96       	adiw	r28, 0x08	; 8
     358:	0f b6       	in	r0, 0x3f	; 63
     35a:	f8 94       	cli
     35c:	de bf       	out	0x3e, r29	; 62
     35e:	0f be       	out	0x3f, r0	; 63
     360:	cd bf       	out	0x3d, r28	; 61
     362:	df 91       	pop	r29
     364:	cf 91       	pop	r28
     366:	08 95       	ret

00000368 <_ZN6myDate8addYearsEi>:
     368:	cf 93       	push	r28
     36a:	df 93       	push	r29
     36c:	00 d0       	rcall	.+0      	; 0x36e <_ZN6myDate8addYearsEi+0x6>
     36e:	00 d0       	rcall	.+0      	; 0x370 <_ZN6myDate8addYearsEi+0x8>
     370:	00 d0       	rcall	.+0      	; 0x372 <_ZN6myDate8addYearsEi+0xa>
     372:	cd b7       	in	r28, 0x3d	; 61
     374:	de b7       	in	r29, 0x3e	; 62
     376:	9c 83       	std	Y+4, r25	; 0x04
     378:	8b 83       	std	Y+3, r24	; 0x03
     37a:	7e 83       	std	Y+6, r23	; 0x06
     37c:	6d 83       	std	Y+5, r22	; 0x05
     37e:	8b 81       	ldd	r24, Y+3	; 0x03
     380:	9c 81       	ldd	r25, Y+4	; 0x04
     382:	fc 01       	movw	r30, r24
     384:	24 81       	ldd	r18, Z+4	; 0x04
     386:	35 81       	ldd	r19, Z+5	; 0x05
     388:	8d 81       	ldd	r24, Y+5	; 0x05
     38a:	9e 81       	ldd	r25, Y+6	; 0x06
     38c:	82 0f       	add	r24, r18
     38e:	93 1f       	adc	r25, r19
     390:	9a 83       	std	Y+2, r25	; 0x02
     392:	89 83       	std	Y+1, r24	; 0x01
     394:	89 81       	ldd	r24, Y+1	; 0x01
     396:	9a 81       	ldd	r25, Y+2	; 0x02
     398:	21 e0       	ldi	r18, 0x01	; 1
     39a:	f7 e0       	ldi	r31, 0x07	; 7
     39c:	8d 3d       	cpi	r24, 0xDD	; 221
     39e:	9f 07       	cpc	r25, r31
     3a0:	0c f4       	brge	.+2      	; 0x3a4 <_ZN6myDate8addYearsEi+0x3c>
     3a2:	20 e0       	ldi	r18, 0x00	; 0
     3a4:	22 23       	and	r18, r18
     3a6:	39 f0       	breq	.+14     	; 0x3b6 <_ZN6myDate8addYearsEi+0x4e>
     3a8:	29 81       	ldd	r18, Y+1	; 0x01
     3aa:	3a 81       	ldd	r19, Y+2	; 0x02
     3ac:	8b 81       	ldd	r24, Y+3	; 0x03
     3ae:	9c 81       	ldd	r25, Y+4	; 0x04
     3b0:	fc 01       	movw	r30, r24
     3b2:	35 83       	std	Z+5, r19	; 0x05
     3b4:	24 83       	std	Z+4, r18	; 0x04
     3b6:	26 96       	adiw	r28, 0x06	; 6
     3b8:	0f b6       	in	r0, 0x3f	; 63
     3ba:	f8 94       	cli
     3bc:	de bf       	out	0x3e, r29	; 62
     3be:	0f be       	out	0x3f, r0	; 63
     3c0:	cd bf       	out	0x3d, r28	; 61
     3c2:	df 91       	pop	r29
     3c4:	cf 91       	pop	r28
     3c6:	08 95       	ret

000003c8 <_ZN6myDate9addMonthsEi>:
     3c8:	cf 93       	push	r28
     3ca:	df 93       	push	r29
     3cc:	cd b7       	in	r28, 0x3d	; 61
     3ce:	de b7       	in	r29, 0x3e	; 62
     3d0:	2a 97       	sbiw	r28, 0x0a	; 10
     3d2:	0f b6       	in	r0, 0x3f	; 63
     3d4:	f8 94       	cli
     3d6:	de bf       	out	0x3e, r29	; 62
     3d8:	0f be       	out	0x3f, r0	; 63
     3da:	cd bf       	out	0x3d, r28	; 61
     3dc:	98 87       	std	Y+8, r25	; 0x08
     3de:	8f 83       	std	Y+7, r24	; 0x07
     3e0:	7a 87       	std	Y+10, r23	; 0x0a
     3e2:	69 87       	std	Y+9, r22	; 0x09
     3e4:	8f 81       	ldd	r24, Y+7	; 0x07
     3e6:	98 85       	ldd	r25, Y+8	; 0x08
     3e8:	fc 01       	movw	r30, r24
     3ea:	20 81       	ld	r18, Z
     3ec:	31 81       	ldd	r19, Z+1	; 0x01
     3ee:	89 85       	ldd	r24, Y+9	; 0x09
     3f0:	9a 85       	ldd	r25, Y+10	; 0x0a
     3f2:	82 0f       	add	r24, r18
     3f4:	93 1f       	adc	r25, r19
     3f6:	9e 83       	std	Y+6, r25	; 0x06
     3f8:	8d 83       	std	Y+5, r24	; 0x05
     3fa:	8d 81       	ldd	r24, Y+5	; 0x05
     3fc:	9e 81       	ldd	r25, Y+6	; 0x06
     3fe:	8d 30       	cpi	r24, 0x0D	; 13
     400:	91 05       	cpc	r25, r1
     402:	3c f0       	brlt	.+14     	; 0x412 <_ZN6myDate9addMonthsEi+0x4a>
     404:	8d 81       	ldd	r24, Y+5	; 0x05
     406:	9e 81       	ldd	r25, Y+6	; 0x06
     408:	89 31       	cpi	r24, 0x19	; 25
     40a:	91 05       	cpc	r25, r1
     40c:	14 f4       	brge	.+4      	; 0x412 <_ZN6myDate9addMonthsEi+0x4a>
     40e:	81 e0       	ldi	r24, 0x01	; 1
     410:	01 c0       	rjmp	.+2      	; 0x414 <_ZN6myDate9addMonthsEi+0x4c>
     412:	80 e0       	ldi	r24, 0x00	; 0
     414:	88 23       	and	r24, r24
     416:	61 f0       	breq	.+24     	; 0x430 <_ZN6myDate9addMonthsEi+0x68>
     418:	81 e0       	ldi	r24, 0x01	; 1
     41a:	90 e0       	ldi	r25, 0x00	; 0
     41c:	9a 83       	std	Y+2, r25	; 0x02
     41e:	89 83       	std	Y+1, r24	; 0x01
     420:	8f 81       	ldd	r24, Y+7	; 0x07
     422:	98 85       	ldd	r25, Y+8	; 0x08
     424:	29 81       	ldd	r18, Y+1	; 0x01
     426:	3a 81       	ldd	r19, Y+2	; 0x02
     428:	b9 01       	movw	r22, r18
     42a:	0e 94 b4 01 	call	0x368	; 0x368 <_ZN6myDate8addYearsEi>
     42e:	22 c0       	rjmp	.+68     	; 0x474 <_ZN6myDate9addMonthsEi+0xac>
     430:	8d 81       	ldd	r24, Y+5	; 0x05
     432:	9e 81       	ldd	r25, Y+6	; 0x06
     434:	21 e0       	ldi	r18, 0x01	; 1
     436:	89 31       	cpi	r24, 0x19	; 25
     438:	91 05       	cpc	r25, r1
     43a:	0c f4       	brge	.+2      	; 0x43e <_ZN6myDate9addMonthsEi+0x76>
     43c:	20 e0       	ldi	r18, 0x00	; 0
     43e:	22 23       	and	r18, r18
     440:	91 f0       	breq	.+36     	; 0x466 <_ZN6myDate9addMonthsEi+0x9e>
     442:	8d 81       	ldd	r24, Y+5	; 0x05
     444:	9e 81       	ldd	r25, Y+6	; 0x06
     446:	2c e0       	ldi	r18, 0x0C	; 12
     448:	30 e0       	ldi	r19, 0x00	; 0
     44a:	b9 01       	movw	r22, r18
     44c:	0e 94 77 14 	call	0x28ee	; 0x28ee <__divmodhi4>
     450:	9b 01       	movw	r18, r22
     452:	3c 83       	std	Y+4, r19	; 0x04
     454:	2b 83       	std	Y+3, r18	; 0x03
     456:	8f 81       	ldd	r24, Y+7	; 0x07
     458:	98 85       	ldd	r25, Y+8	; 0x08
     45a:	2b 81       	ldd	r18, Y+3	; 0x03
     45c:	3c 81       	ldd	r19, Y+4	; 0x04
     45e:	b9 01       	movw	r22, r18
     460:	0e 94 b4 01 	call	0x368	; 0x368 <_ZN6myDate8addYearsEi>
     464:	07 c0       	rjmp	.+14     	; 0x474 <_ZN6myDate9addMonthsEi+0xac>
     466:	2d 81       	ldd	r18, Y+5	; 0x05
     468:	3e 81       	ldd	r19, Y+6	; 0x06
     46a:	8f 81       	ldd	r24, Y+7	; 0x07
     46c:	98 85       	ldd	r25, Y+8	; 0x08
     46e:	fc 01       	movw	r30, r24
     470:	31 83       	std	Z+1, r19	; 0x01
     472:	20 83       	st	Z, r18
     474:	2a 96       	adiw	r28, 0x0a	; 10
     476:	0f b6       	in	r0, 0x3f	; 63
     478:	f8 94       	cli
     47a:	de bf       	out	0x3e, r29	; 62
     47c:	0f be       	out	0x3f, r0	; 63
     47e:	cd bf       	out	0x3d, r28	; 61
     480:	df 91       	pop	r29
     482:	cf 91       	pop	r28
     484:	08 95       	ret

00000486 <_ZN6myDate7addDaysEi>:
     486:	cf 93       	push	r28
     488:	df 93       	push	r29
     48a:	00 d0       	rcall	.+0      	; 0x48c <_ZN6myDate7addDaysEi+0x6>
     48c:	00 d0       	rcall	.+0      	; 0x48e <_ZN6myDate7addDaysEi+0x8>
     48e:	00 d0       	rcall	.+0      	; 0x490 <_ZN6myDate7addDaysEi+0xa>
     490:	cd b7       	in	r28, 0x3d	; 61
     492:	de b7       	in	r29, 0x3e	; 62
     494:	9c 83       	std	Y+4, r25	; 0x04
     496:	8b 83       	std	Y+3, r24	; 0x03
     498:	7e 83       	std	Y+6, r23	; 0x06
     49a:	6d 83       	std	Y+5, r22	; 0x05
     49c:	8b 81       	ldd	r24, Y+3	; 0x03
     49e:	9c 81       	ldd	r25, Y+4	; 0x04
     4a0:	fc 01       	movw	r30, r24
     4a2:	22 81       	ldd	r18, Z+2	; 0x02
     4a4:	33 81       	ldd	r19, Z+3	; 0x03
     4a6:	8d 81       	ldd	r24, Y+5	; 0x05
     4a8:	9e 81       	ldd	r25, Y+6	; 0x06
     4aa:	82 0f       	add	r24, r18
     4ac:	93 1f       	adc	r25, r19
     4ae:	9a 83       	std	Y+2, r25	; 0x02
     4b0:	89 83       	std	Y+1, r24	; 0x01
     4b2:	8b 81       	ldd	r24, Y+3	; 0x03
     4b4:	9c 81       	ldd	r25, Y+4	; 0x04
     4b6:	fc 01       	movw	r30, r24
     4b8:	80 81       	ld	r24, Z
     4ba:	91 81       	ldd	r25, Z+1	; 0x01
     4bc:	89 30       	cpi	r24, 0x09	; 9
     4be:	91 05       	cpc	r25, r1
     4c0:	81 f0       	breq	.+32     	; 0x4e2 <_ZN6myDate7addDaysEi+0x5c>
     4c2:	8b 81       	ldd	r24, Y+3	; 0x03
     4c4:	9c 81       	ldd	r25, Y+4	; 0x04
     4c6:	fc 01       	movw	r30, r24
     4c8:	80 81       	ld	r24, Z
     4ca:	91 81       	ldd	r25, Z+1	; 0x01
     4cc:	84 30       	cpi	r24, 0x04	; 4
     4ce:	91 05       	cpc	r25, r1
     4d0:	41 f0       	breq	.+16     	; 0x4e2 <_ZN6myDate7addDaysEi+0x5c>
     4d2:	8b 81       	ldd	r24, Y+3	; 0x03
     4d4:	9c 81       	ldd	r25, Y+4	; 0x04
     4d6:	fc 01       	movw	r30, r24
     4d8:	80 81       	ld	r24, Z
     4da:	91 81       	ldd	r25, Z+1	; 0x01
     4dc:	86 30       	cpi	r24, 0x06	; 6
     4de:	91 05       	cpc	r25, r1
     4e0:	11 f4       	brne	.+4      	; 0x4e6 <_ZN6myDate7addDaysEi+0x60>
     4e2:	81 e0       	ldi	r24, 0x01	; 1
     4e4:	01 c0       	rjmp	.+2      	; 0x4e8 <_ZN6myDate7addDaysEi+0x62>
     4e6:	80 e0       	ldi	r24, 0x00	; 0
     4e8:	88 23       	and	r24, r24
     4ea:	31 f1       	breq	.+76     	; 0x538 <_ZN6myDate7addDaysEi+0xb2>
     4ec:	89 81       	ldd	r24, Y+1	; 0x01
     4ee:	9a 81       	ldd	r25, Y+2	; 0x02
     4f0:	4e 96       	adiw	r24, 0x1e	; 30
     4f2:	21 e0       	ldi	r18, 0x01	; 1
     4f4:	8d 33       	cpi	r24, 0x3D	; 61
     4f6:	91 05       	cpc	r25, r1
     4f8:	08 f0       	brcs	.+2      	; 0x4fc <_ZN6myDate7addDaysEi+0x76>
     4fa:	20 e0       	ldi	r18, 0x00	; 0
     4fc:	22 23       	and	r18, r18
     4fe:	41 f0       	breq	.+16     	; 0x510 <_ZN6myDate7addDaysEi+0x8a>
     500:	29 81       	ldd	r18, Y+1	; 0x01
     502:	3a 81       	ldd	r19, Y+2	; 0x02
     504:	8b 81       	ldd	r24, Y+3	; 0x03
     506:	9c 81       	ldd	r25, Y+4	; 0x04
     508:	fc 01       	movw	r30, r24
     50a:	33 83       	std	Z+3, r19	; 0x03
     50c:	22 83       	std	Z+2, r18	; 0x02
     50e:	71 c0       	rjmp	.+226    	; 0x5f2 <_ZN6myDate7addDaysEi+0x16c>
     510:	8b 81       	ldd	r24, Y+3	; 0x03
     512:	9c 81       	ldd	r25, Y+4	; 0x04
     514:	61 e0       	ldi	r22, 0x01	; 1
     516:	70 e0       	ldi	r23, 0x00	; 0
     518:	0e 94 e4 01 	call	0x3c8	; 0x3c8 <_ZN6myDate9addMonthsEi>
     51c:	89 81       	ldd	r24, Y+1	; 0x01
     51e:	9a 81       	ldd	r25, Y+2	; 0x02
     520:	2f e1       	ldi	r18, 0x1F	; 31
     522:	30 e0       	ldi	r19, 0x00	; 0
     524:	b9 01       	movw	r22, r18
     526:	0e 94 77 14 	call	0x28ee	; 0x28ee <__divmodhi4>
     52a:	9c 01       	movw	r18, r24
     52c:	8b 81       	ldd	r24, Y+3	; 0x03
     52e:	9c 81       	ldd	r25, Y+4	; 0x04
     530:	fc 01       	movw	r30, r24
     532:	33 83       	std	Z+3, r19	; 0x03
     534:	22 83       	std	Z+2, r18	; 0x02
     536:	5d c0       	rjmp	.+186    	; 0x5f2 <_ZN6myDate7addDaysEi+0x16c>
     538:	8b 81       	ldd	r24, Y+3	; 0x03
     53a:	9c 81       	ldd	r25, Y+4	; 0x04
     53c:	fc 01       	movw	r30, r24
     53e:	80 81       	ld	r24, Z
     540:	91 81       	ldd	r25, Z+1	; 0x01
     542:	21 e0       	ldi	r18, 0x01	; 1
     544:	82 30       	cpi	r24, 0x02	; 2
     546:	91 05       	cpc	r25, r1
     548:	09 f0       	breq	.+2      	; 0x54c <_ZN6myDate7addDaysEi+0xc6>
     54a:	20 e0       	ldi	r18, 0x00	; 0
     54c:	22 23       	and	r18, r18
     54e:	49 f1       	breq	.+82     	; 0x5a2 <_ZN6myDate7addDaysEi+0x11c>
     550:	8b 81       	ldd	r24, Y+3	; 0x03
     552:	9c 81       	ldd	r25, Y+4	; 0x04
     554:	fc 01       	movw	r30, r24
     556:	82 81       	ldd	r24, Z+2	; 0x02
     558:	93 81       	ldd	r25, Z+3	; 0x03
     55a:	4c 96       	adiw	r24, 0x1c	; 28
     55c:	21 e0       	ldi	r18, 0x01	; 1
     55e:	89 33       	cpi	r24, 0x39	; 57
     560:	91 05       	cpc	r25, r1
     562:	08 f0       	brcs	.+2      	; 0x566 <_ZN6myDate7addDaysEi+0xe0>
     564:	20 e0       	ldi	r18, 0x00	; 0
     566:	22 23       	and	r18, r18
     568:	41 f0       	breq	.+16     	; 0x57a <_ZN6myDate7addDaysEi+0xf4>
     56a:	29 81       	ldd	r18, Y+1	; 0x01
     56c:	3a 81       	ldd	r19, Y+2	; 0x02
     56e:	8b 81       	ldd	r24, Y+3	; 0x03
     570:	9c 81       	ldd	r25, Y+4	; 0x04
     572:	fc 01       	movw	r30, r24
     574:	33 83       	std	Z+3, r19	; 0x03
     576:	22 83       	std	Z+2, r18	; 0x02
     578:	3c c0       	rjmp	.+120    	; 0x5f2 <_ZN6myDate7addDaysEi+0x16c>
     57a:	8b 81       	ldd	r24, Y+3	; 0x03
     57c:	9c 81       	ldd	r25, Y+4	; 0x04
     57e:	61 e0       	ldi	r22, 0x01	; 1
     580:	70 e0       	ldi	r23, 0x00	; 0
     582:	0e 94 e4 01 	call	0x3c8	; 0x3c8 <_ZN6myDate9addMonthsEi>
     586:	89 81       	ldd	r24, Y+1	; 0x01
     588:	9a 81       	ldd	r25, Y+2	; 0x02
     58a:	2d e1       	ldi	r18, 0x1D	; 29
     58c:	30 e0       	ldi	r19, 0x00	; 0
     58e:	b9 01       	movw	r22, r18
     590:	0e 94 77 14 	call	0x28ee	; 0x28ee <__divmodhi4>
     594:	9c 01       	movw	r18, r24
     596:	8b 81       	ldd	r24, Y+3	; 0x03
     598:	9c 81       	ldd	r25, Y+4	; 0x04
     59a:	fc 01       	movw	r30, r24
     59c:	33 83       	std	Z+3, r19	; 0x03
     59e:	22 83       	std	Z+2, r18	; 0x02
     5a0:	28 c0       	rjmp	.+80     	; 0x5f2 <_ZN6myDate7addDaysEi+0x16c>
     5a2:	8b 81       	ldd	r24, Y+3	; 0x03
     5a4:	9c 81       	ldd	r25, Y+4	; 0x04
     5a6:	fc 01       	movw	r30, r24
     5a8:	82 81       	ldd	r24, Z+2	; 0x02
     5aa:	93 81       	ldd	r25, Z+3	; 0x03
     5ac:	4f 96       	adiw	r24, 0x1f	; 31
     5ae:	21 e0       	ldi	r18, 0x01	; 1
     5b0:	8f 33       	cpi	r24, 0x3F	; 63
     5b2:	91 05       	cpc	r25, r1
     5b4:	08 f0       	brcs	.+2      	; 0x5b8 <_ZN6myDate7addDaysEi+0x132>
     5b6:	20 e0       	ldi	r18, 0x00	; 0
     5b8:	22 23       	and	r18, r18
     5ba:	41 f0       	breq	.+16     	; 0x5cc <_ZN6myDate7addDaysEi+0x146>
     5bc:	29 81       	ldd	r18, Y+1	; 0x01
     5be:	3a 81       	ldd	r19, Y+2	; 0x02
     5c0:	8b 81       	ldd	r24, Y+3	; 0x03
     5c2:	9c 81       	ldd	r25, Y+4	; 0x04
     5c4:	fc 01       	movw	r30, r24
     5c6:	33 83       	std	Z+3, r19	; 0x03
     5c8:	22 83       	std	Z+2, r18	; 0x02
     5ca:	13 c0       	rjmp	.+38     	; 0x5f2 <_ZN6myDate7addDaysEi+0x16c>
     5cc:	8b 81       	ldd	r24, Y+3	; 0x03
     5ce:	9c 81       	ldd	r25, Y+4	; 0x04
     5d0:	61 e0       	ldi	r22, 0x01	; 1
     5d2:	70 e0       	ldi	r23, 0x00	; 0
     5d4:	0e 94 e4 01 	call	0x3c8	; 0x3c8 <_ZN6myDate9addMonthsEi>
     5d8:	89 81       	ldd	r24, Y+1	; 0x01
     5da:	9a 81       	ldd	r25, Y+2	; 0x02
     5dc:	20 e2       	ldi	r18, 0x20	; 32
     5de:	30 e0       	ldi	r19, 0x00	; 0
     5e0:	b9 01       	movw	r22, r18
     5e2:	0e 94 77 14 	call	0x28ee	; 0x28ee <__divmodhi4>
     5e6:	9c 01       	movw	r18, r24
     5e8:	8b 81       	ldd	r24, Y+3	; 0x03
     5ea:	9c 81       	ldd	r25, Y+4	; 0x04
     5ec:	fc 01       	movw	r30, r24
     5ee:	33 83       	std	Z+3, r19	; 0x03
     5f0:	22 83       	std	Z+2, r18	; 0x02
     5f2:	26 96       	adiw	r28, 0x06	; 6
     5f4:	0f b6       	in	r0, 0x3f	; 63
     5f6:	f8 94       	cli
     5f8:	de bf       	out	0x3e, r29	; 62
     5fa:	0f be       	out	0x3f, r0	; 63
     5fc:	cd bf       	out	0x3d, r28	; 61
     5fe:	df 91       	pop	r29
     600:	cf 91       	pop	r28
     602:	08 95       	ret

00000604 <_ZN6myDate7getDateEv>:
     604:	cf 93       	push	r28
     606:	df 93       	push	r29
     608:	cd b7       	in	r28, 0x3d	; 61
     60a:	de b7       	in	r29, 0x3e	; 62
     60c:	2d 97       	sbiw	r28, 0x0d	; 13
     60e:	0f b6       	in	r0, 0x3f	; 63
     610:	f8 94       	cli
     612:	de bf       	out	0x3e, r29	; 62
     614:	0f be       	out	0x3f, r0	; 63
     616:	cd bf       	out	0x3d, r28	; 61
     618:	9d 87       	std	Y+13, r25	; 0x0d
     61a:	8c 87       	std	Y+12, r24	; 0x0c
     61c:	8c 85       	ldd	r24, Y+12	; 0x0c
     61e:	9d 85       	ldd	r25, Y+13	; 0x0d
     620:	fc 01       	movw	r30, r24
     622:	80 81       	ld	r24, Z
     624:	91 81       	ldd	r25, Z+1	; 0x01
     626:	9e 01       	movw	r18, r28
     628:	2f 5f       	subi	r18, 0xFF	; 255
     62a:	3f 4f       	sbci	r19, 0xFF	; 255
     62c:	b9 01       	movw	r22, r18
     62e:	4a e0       	ldi	r20, 0x0A	; 10
     630:	50 e0       	ldi	r21, 0x00	; 0
     632:	0e 94 dd 14 	call	0x29ba	; 0x29ba <itoa>
     636:	8c 85       	ldd	r24, Y+12	; 0x0c
     638:	9d 85       	ldd	r25, Y+13	; 0x0d
     63a:	fc 01       	movw	r30, r24
     63c:	82 81       	ldd	r24, Z+2	; 0x02
     63e:	93 81       	ldd	r25, Z+3	; 0x03
     640:	9e 01       	movw	r18, r28
     642:	2c 5f       	subi	r18, 0xFC	; 252
     644:	3f 4f       	sbci	r19, 0xFF	; 255
     646:	b9 01       	movw	r22, r18
     648:	4a e0       	ldi	r20, 0x0A	; 10
     64a:	50 e0       	ldi	r21, 0x00	; 0
     64c:	0e 94 dd 14 	call	0x29ba	; 0x29ba <itoa>
     650:	8c 85       	ldd	r24, Y+12	; 0x0c
     652:	9d 85       	ldd	r25, Y+13	; 0x0d
     654:	fc 01       	movw	r30, r24
     656:	84 81       	ldd	r24, Z+4	; 0x04
     658:	95 81       	ldd	r25, Z+5	; 0x05
     65a:	9e 01       	movw	r18, r28
     65c:	29 5f       	subi	r18, 0xF9	; 249
     65e:	3f 4f       	sbci	r19, 0xFF	; 255
     660:	b9 01       	movw	r22, r18
     662:	4a e0       	ldi	r20, 0x0A	; 10
     664:	50 e0       	ldi	r21, 0x00	; 0
     666:	0e 94 dd 14 	call	0x29ba	; 0x29ba <itoa>
     66a:	8c 85       	ldd	r24, Y+12	; 0x0c
     66c:	9d 85       	ldd	r25, Y+13	; 0x0d
     66e:	06 96       	adiw	r24, 0x06	; 6
     670:	9e 01       	movw	r18, r28
     672:	2f 5f       	subi	r18, 0xFF	; 255
     674:	3f 4f       	sbci	r19, 0xFF	; 255
     676:	b9 01       	movw	r22, r18
     678:	0e 94 d6 14 	call	0x29ac	; 0x29ac <strcpy>
     67c:	8c 85       	ldd	r24, Y+12	; 0x0c
     67e:	9d 85       	ldd	r25, Y+13	; 0x0d
     680:	9c 01       	movw	r18, r24
     682:	2a 5f       	subi	r18, 0xFA	; 250
     684:	3f 4f       	sbci	r19, 0xFF	; 255
     686:	c9 01       	movw	r24, r18
     688:	ac 01       	movw	r20, r24
     68a:	fa 01       	movw	r30, r20
     68c:	01 90       	ld	r0, Z+
     68e:	00 20       	and	r0, r0
     690:	e9 f7       	brne	.-6      	; 0x68c <_ZN6myDate7getDateEv+0x88>
     692:	cf 01       	movw	r24, r30
     694:	01 97       	sbiw	r24, 0x01	; 1
     696:	84 1b       	sub	r24, r20
     698:	95 0b       	sbc	r25, r21
     69a:	82 0f       	add	r24, r18
     69c:	93 1f       	adc	r25, r19
     69e:	2c e2       	ldi	r18, 0x2C	; 44
     6a0:	30 e0       	ldi	r19, 0x00	; 0
     6a2:	fc 01       	movw	r30, r24
     6a4:	31 83       	std	Z+1, r19	; 0x01
     6a6:	20 83       	st	Z, r18
     6a8:	8c 85       	ldd	r24, Y+12	; 0x0c
     6aa:	9d 85       	ldd	r25, Y+13	; 0x0d
     6ac:	06 96       	adiw	r24, 0x06	; 6
     6ae:	9e 01       	movw	r18, r28
     6b0:	2c 5f       	subi	r18, 0xFC	; 252
     6b2:	3f 4f       	sbci	r19, 0xFF	; 255
     6b4:	b9 01       	movw	r22, r18
     6b6:	0e 94 c2 14 	call	0x2984	; 0x2984 <strcat>
     6ba:	8c 85       	ldd	r24, Y+12	; 0x0c
     6bc:	9d 85       	ldd	r25, Y+13	; 0x0d
     6be:	9c 01       	movw	r18, r24
     6c0:	2a 5f       	subi	r18, 0xFA	; 250
     6c2:	3f 4f       	sbci	r19, 0xFF	; 255
     6c4:	c9 01       	movw	r24, r18
     6c6:	ac 01       	movw	r20, r24
     6c8:	fa 01       	movw	r30, r20
     6ca:	01 90       	ld	r0, Z+
     6cc:	00 20       	and	r0, r0
     6ce:	e9 f7       	brne	.-6      	; 0x6ca <_ZN6myDate7getDateEv+0xc6>
     6d0:	cf 01       	movw	r24, r30
     6d2:	01 97       	sbiw	r24, 0x01	; 1
     6d4:	84 1b       	sub	r24, r20
     6d6:	95 0b       	sbc	r25, r21
     6d8:	82 0f       	add	r24, r18
     6da:	93 1f       	adc	r25, r19
     6dc:	2c e2       	ldi	r18, 0x2C	; 44
     6de:	30 e0       	ldi	r19, 0x00	; 0
     6e0:	fc 01       	movw	r30, r24
     6e2:	31 83       	std	Z+1, r19	; 0x01
     6e4:	20 83       	st	Z, r18
     6e6:	8c 85       	ldd	r24, Y+12	; 0x0c
     6e8:	9d 85       	ldd	r25, Y+13	; 0x0d
     6ea:	06 96       	adiw	r24, 0x06	; 6
     6ec:	9e 01       	movw	r18, r28
     6ee:	29 5f       	subi	r18, 0xF9	; 249
     6f0:	3f 4f       	sbci	r19, 0xFF	; 255
     6f2:	b9 01       	movw	r22, r18
     6f4:	0e 94 c2 14 	call	0x2984	; 0x2984 <strcat>
     6f8:	8c 85       	ldd	r24, Y+12	; 0x0c
     6fa:	9d 85       	ldd	r25, Y+13	; 0x0d
     6fc:	20 e2       	ldi	r18, 0x20	; 32
     6fe:	fc 01       	movw	r30, r24
     700:	25 8b       	std	Z+21, r18	; 0x15
     702:	8c 85       	ldd	r24, Y+12	; 0x0c
     704:	9d 85       	ldd	r25, Y+13	; 0x0d
     706:	fc 01       	movw	r30, r24
     708:	16 8a       	std	Z+22, r1	; 0x16
     70a:	8c 85       	ldd	r24, Y+12	; 0x0c
     70c:	9d 85       	ldd	r25, Y+13	; 0x0d
     70e:	06 96       	adiw	r24, 0x06	; 6
     710:	2d 96       	adiw	r28, 0x0d	; 13
     712:	0f b6       	in	r0, 0x3f	; 63
     714:	f8 94       	cli
     716:	de bf       	out	0x3e, r29	; 62
     718:	0f be       	out	0x3f, r0	; 63
     71a:	cd bf       	out	0x3d, r28	; 61
     71c:	df 91       	pop	r29
     71e:	cf 91       	pop	r28
     720:	08 95       	ret

00000722 <_ZN6myTimeC1Ev>:
     722:	cf 93       	push	r28
     724:	df 93       	push	r29
     726:	00 d0       	rcall	.+0      	; 0x728 <_ZN6myTimeC1Ev+0x6>
     728:	cd b7       	in	r28, 0x3d	; 61
     72a:	de b7       	in	r29, 0x3e	; 62
     72c:	9a 83       	std	Y+2, r25	; 0x02
     72e:	89 83       	std	Y+1, r24	; 0x01
     730:	89 81       	ldd	r24, Y+1	; 0x01
     732:	9a 81       	ldd	r25, Y+2	; 0x02
     734:	0e 94 69 00 	call	0xd2	; 0xd2 <_ZN6myDateC1Ev>
     738:	89 81       	ldd	r24, Y+1	; 0x01
     73a:	9a 81       	ldd	r25, Y+2	; 0x02
     73c:	60 e0       	ldi	r22, 0x00	; 0
     73e:	70 e0       	ldi	r23, 0x00	; 0
     740:	40 e0       	ldi	r20, 0x00	; 0
     742:	50 e0       	ldi	r21, 0x00	; 0
     744:	20 e0       	ldi	r18, 0x00	; 0
     746:	30 e0       	ldi	r19, 0x00	; 0
     748:	0e 94 48 04 	call	0x890	; 0x890 <_ZN6myTime7setTimeEiii>
     74c:	0f 90       	pop	r0
     74e:	0f 90       	pop	r0
     750:	df 91       	pop	r29
     752:	cf 91       	pop	r28
     754:	08 95       	ret

00000756 <_ZN6myTimeC1Eiii>:
     756:	cf 93       	push	r28
     758:	df 93       	push	r29
     75a:	cd b7       	in	r28, 0x3d	; 61
     75c:	de b7       	in	r29, 0x3e	; 62
     75e:	28 97       	sbiw	r28, 0x08	; 8
     760:	0f b6       	in	r0, 0x3f	; 63
     762:	f8 94       	cli
     764:	de bf       	out	0x3e, r29	; 62
     766:	0f be       	out	0x3f, r0	; 63
     768:	cd bf       	out	0x3d, r28	; 61
     76a:	9a 83       	std	Y+2, r25	; 0x02
     76c:	89 83       	std	Y+1, r24	; 0x01
     76e:	7c 83       	std	Y+4, r23	; 0x04
     770:	6b 83       	std	Y+3, r22	; 0x03
     772:	5e 83       	std	Y+6, r21	; 0x06
     774:	4d 83       	std	Y+5, r20	; 0x05
     776:	38 87       	std	Y+8, r19	; 0x08
     778:	2f 83       	std	Y+7, r18	; 0x07
     77a:	89 81       	ldd	r24, Y+1	; 0x01
     77c:	9a 81       	ldd	r25, Y+2	; 0x02
     77e:	0e 94 69 00 	call	0xd2	; 0xd2 <_ZN6myDateC1Ev>
     782:	89 81       	ldd	r24, Y+1	; 0x01
     784:	9a 81       	ldd	r25, Y+2	; 0x02
     786:	6b 81       	ldd	r22, Y+3	; 0x03
     788:	7c 81       	ldd	r23, Y+4	; 0x04
     78a:	4d 81       	ldd	r20, Y+5	; 0x05
     78c:	5e 81       	ldd	r21, Y+6	; 0x06
     78e:	2f 81       	ldd	r18, Y+7	; 0x07
     790:	38 85       	ldd	r19, Y+8	; 0x08
     792:	0e 94 48 04 	call	0x890	; 0x890 <_ZN6myTime7setTimeEiii>
     796:	28 96       	adiw	r28, 0x08	; 8
     798:	0f b6       	in	r0, 0x3f	; 63
     79a:	f8 94       	cli
     79c:	de bf       	out	0x3e, r29	; 62
     79e:	0f be       	out	0x3f, r0	; 63
     7a0:	cd bf       	out	0x3d, r28	; 61
     7a2:	df 91       	pop	r29
     7a4:	cf 91       	pop	r28
     7a6:	08 95       	ret

000007a8 <_ZN6myTimeC1Eiiiiii>:
     7a8:	cf 92       	push	r12
     7aa:	df 92       	push	r13
     7ac:	ef 92       	push	r14
     7ae:	ff 92       	push	r15
     7b0:	0f 93       	push	r16
     7b2:	1f 93       	push	r17
     7b4:	cf 93       	push	r28
     7b6:	df 93       	push	r29
     7b8:	cd b7       	in	r28, 0x3d	; 61
     7ba:	de b7       	in	r29, 0x3e	; 62
     7bc:	2e 97       	sbiw	r28, 0x0e	; 14
     7be:	0f b6       	in	r0, 0x3f	; 63
     7c0:	f8 94       	cli
     7c2:	de bf       	out	0x3e, r29	; 62
     7c4:	0f be       	out	0x3f, r0	; 63
     7c6:	cd bf       	out	0x3d, r28	; 61
     7c8:	9a 83       	std	Y+2, r25	; 0x02
     7ca:	89 83       	std	Y+1, r24	; 0x01
     7cc:	7c 83       	std	Y+4, r23	; 0x04
     7ce:	6b 83       	std	Y+3, r22	; 0x03
     7d0:	5e 83       	std	Y+6, r21	; 0x06
     7d2:	4d 83       	std	Y+5, r20	; 0x05
     7d4:	38 87       	std	Y+8, r19	; 0x08
     7d6:	2f 83       	std	Y+7, r18	; 0x07
     7d8:	1a 87       	std	Y+10, r17	; 0x0a
     7da:	09 87       	std	Y+9, r16	; 0x09
     7dc:	fc 86       	std	Y+12, r15	; 0x0c
     7de:	eb 86       	std	Y+11, r14	; 0x0b
     7e0:	de 86       	std	Y+14, r13	; 0x0e
     7e2:	cd 86       	std	Y+13, r12	; 0x0d
     7e4:	89 81       	ldd	r24, Y+1	; 0x01
     7e6:	9a 81       	ldd	r25, Y+2	; 0x02
     7e8:	69 85       	ldd	r22, Y+9	; 0x09
     7ea:	7a 85       	ldd	r23, Y+10	; 0x0a
     7ec:	4b 85       	ldd	r20, Y+11	; 0x0b
     7ee:	5c 85       	ldd	r21, Y+12	; 0x0c
     7f0:	2d 85       	ldd	r18, Y+13	; 0x0d
     7f2:	3e 85       	ldd	r19, Y+14	; 0x0e
     7f4:	0e 94 84 00 	call	0x108	; 0x108 <_ZN6myDateC1Eiii>
     7f8:	89 81       	ldd	r24, Y+1	; 0x01
     7fa:	9a 81       	ldd	r25, Y+2	; 0x02
     7fc:	6b 81       	ldd	r22, Y+3	; 0x03
     7fe:	7c 81       	ldd	r23, Y+4	; 0x04
     800:	4d 81       	ldd	r20, Y+5	; 0x05
     802:	5e 81       	ldd	r21, Y+6	; 0x06
     804:	2f 81       	ldd	r18, Y+7	; 0x07
     806:	38 85       	ldd	r19, Y+8	; 0x08
     808:	0e 94 48 04 	call	0x890	; 0x890 <_ZN6myTime7setTimeEiii>
     80c:	2e 96       	adiw	r28, 0x0e	; 14
     80e:	0f b6       	in	r0, 0x3f	; 63
     810:	f8 94       	cli
     812:	de bf       	out	0x3e, r29	; 62
     814:	0f be       	out	0x3f, r0	; 63
     816:	cd bf       	out	0x3d, r28	; 61
     818:	df 91       	pop	r29
     81a:	cf 91       	pop	r28
     81c:	1f 91       	pop	r17
     81e:	0f 91       	pop	r16
     820:	ff 90       	pop	r15
     822:	ef 90       	pop	r14
     824:	df 90       	pop	r13
     826:	cf 90       	pop	r12
     828:	08 95       	ret

0000082a <_ZN6myTime10getSecondsEv>:
     82a:	cf 93       	push	r28
     82c:	df 93       	push	r29
     82e:	00 d0       	rcall	.+0      	; 0x830 <_ZN6myTime10getSecondsEv+0x6>
     830:	cd b7       	in	r28, 0x3d	; 61
     832:	de b7       	in	r29, 0x3e	; 62
     834:	9a 83       	std	Y+2, r25	; 0x02
     836:	89 83       	std	Y+1, r24	; 0x01
     838:	89 81       	ldd	r24, Y+1	; 0x01
     83a:	9a 81       	ldd	r25, Y+2	; 0x02
     83c:	fc 01       	movw	r30, r24
     83e:	83 8d       	ldd	r24, Z+27	; 0x1b
     840:	94 8d       	ldd	r25, Z+28	; 0x1c
     842:	0f 90       	pop	r0
     844:	0f 90       	pop	r0
     846:	df 91       	pop	r29
     848:	cf 91       	pop	r28
     84a:	08 95       	ret

0000084c <_ZN6myTime10getMinutesEv>:
     84c:	cf 93       	push	r28
     84e:	df 93       	push	r29
     850:	00 d0       	rcall	.+0      	; 0x852 <_ZN6myTime10getMinutesEv+0x6>
     852:	cd b7       	in	r28, 0x3d	; 61
     854:	de b7       	in	r29, 0x3e	; 62
     856:	9a 83       	std	Y+2, r25	; 0x02
     858:	89 83       	std	Y+1, r24	; 0x01
     85a:	89 81       	ldd	r24, Y+1	; 0x01
     85c:	9a 81       	ldd	r25, Y+2	; 0x02
     85e:	fc 01       	movw	r30, r24
     860:	81 8d       	ldd	r24, Z+25	; 0x19
     862:	92 8d       	ldd	r25, Z+26	; 0x1a
     864:	0f 90       	pop	r0
     866:	0f 90       	pop	r0
     868:	df 91       	pop	r29
     86a:	cf 91       	pop	r28
     86c:	08 95       	ret

0000086e <_ZN6myTime8getHoursEv>:
     86e:	cf 93       	push	r28
     870:	df 93       	push	r29
     872:	00 d0       	rcall	.+0      	; 0x874 <_ZN6myTime8getHoursEv+0x6>
     874:	cd b7       	in	r28, 0x3d	; 61
     876:	de b7       	in	r29, 0x3e	; 62
     878:	9a 83       	std	Y+2, r25	; 0x02
     87a:	89 83       	std	Y+1, r24	; 0x01
     87c:	89 81       	ldd	r24, Y+1	; 0x01
     87e:	9a 81       	ldd	r25, Y+2	; 0x02
     880:	fc 01       	movw	r30, r24
     882:	87 89       	ldd	r24, Z+23	; 0x17
     884:	90 8d       	ldd	r25, Z+24	; 0x18
     886:	0f 90       	pop	r0
     888:	0f 90       	pop	r0
     88a:	df 91       	pop	r29
     88c:	cf 91       	pop	r28
     88e:	08 95       	ret

00000890 <_ZN6myTime7setTimeEiii>:
     890:	cf 93       	push	r28
     892:	df 93       	push	r29
     894:	cd b7       	in	r28, 0x3d	; 61
     896:	de b7       	in	r29, 0x3e	; 62
     898:	28 97       	sbiw	r28, 0x08	; 8
     89a:	0f b6       	in	r0, 0x3f	; 63
     89c:	f8 94       	cli
     89e:	de bf       	out	0x3e, r29	; 62
     8a0:	0f be       	out	0x3f, r0	; 63
     8a2:	cd bf       	out	0x3d, r28	; 61
     8a4:	9a 83       	std	Y+2, r25	; 0x02
     8a6:	89 83       	std	Y+1, r24	; 0x01
     8a8:	7c 83       	std	Y+4, r23	; 0x04
     8aa:	6b 83       	std	Y+3, r22	; 0x03
     8ac:	5e 83       	std	Y+6, r21	; 0x06
     8ae:	4d 83       	std	Y+5, r20	; 0x05
     8b0:	38 87       	std	Y+8, r19	; 0x08
     8b2:	2f 83       	std	Y+7, r18	; 0x07
     8b4:	89 81       	ldd	r24, Y+1	; 0x01
     8b6:	9a 81       	ldd	r25, Y+2	; 0x02
     8b8:	2b 81       	ldd	r18, Y+3	; 0x03
     8ba:	3c 81       	ldd	r19, Y+4	; 0x04
     8bc:	b9 01       	movw	r22, r18
     8be:	0e 94 78 04 	call	0x8f0	; 0x8f0 <_ZN6myTime7setHourEi>
     8c2:	89 81       	ldd	r24, Y+1	; 0x01
     8c4:	9a 81       	ldd	r25, Y+2	; 0x02
     8c6:	2d 81       	ldd	r18, Y+5	; 0x05
     8c8:	3e 81       	ldd	r19, Y+6	; 0x06
     8ca:	b9 01       	movw	r22, r18
     8cc:	0e 94 96 04 	call	0x92c	; 0x92c <_ZN6myTime9setMinuteEi>
     8d0:	89 81       	ldd	r24, Y+1	; 0x01
     8d2:	9a 81       	ldd	r25, Y+2	; 0x02
     8d4:	2f 81       	ldd	r18, Y+7	; 0x07
     8d6:	38 85       	ldd	r19, Y+8	; 0x08
     8d8:	b9 01       	movw	r22, r18
     8da:	0e 94 b4 04 	call	0x968	; 0x968 <_ZN6myTime9setSecondEi>
     8de:	28 96       	adiw	r28, 0x08	; 8
     8e0:	0f b6       	in	r0, 0x3f	; 63
     8e2:	f8 94       	cli
     8e4:	de bf       	out	0x3e, r29	; 62
     8e6:	0f be       	out	0x3f, r0	; 63
     8e8:	cd bf       	out	0x3d, r28	; 61
     8ea:	df 91       	pop	r29
     8ec:	cf 91       	pop	r28
     8ee:	08 95       	ret

000008f0 <_ZN6myTime7setHourEi>:
     8f0:	cf 93       	push	r28
     8f2:	df 93       	push	r29
     8f4:	00 d0       	rcall	.+0      	; 0x8f6 <_ZN6myTime7setHourEi+0x6>
     8f6:	00 d0       	rcall	.+0      	; 0x8f8 <_ZN6myTime7setHourEi+0x8>
     8f8:	cd b7       	in	r28, 0x3d	; 61
     8fa:	de b7       	in	r29, 0x3e	; 62
     8fc:	9a 83       	std	Y+2, r25	; 0x02
     8fe:	89 83       	std	Y+1, r24	; 0x01
     900:	7c 83       	std	Y+4, r23	; 0x04
     902:	6b 83       	std	Y+3, r22	; 0x03
     904:	8b 81       	ldd	r24, Y+3	; 0x03
     906:	9c 81       	ldd	r25, Y+4	; 0x04
     908:	47 96       	adiw	r24, 0x17	; 23
     90a:	8f 32       	cpi	r24, 0x2F	; 47
     90c:	91 05       	cpc	r25, r1
     90e:	38 f4       	brcc	.+14     	; 0x91e <_ZN6myTime7setHourEi+0x2e>
     910:	89 81       	ldd	r24, Y+1	; 0x01
     912:	9a 81       	ldd	r25, Y+2	; 0x02
     914:	2b 81       	ldd	r18, Y+3	; 0x03
     916:	3c 81       	ldd	r19, Y+4	; 0x04
     918:	fc 01       	movw	r30, r24
     91a:	30 8f       	std	Z+24, r19	; 0x18
     91c:	27 8b       	std	Z+23, r18	; 0x17
     91e:	0f 90       	pop	r0
     920:	0f 90       	pop	r0
     922:	0f 90       	pop	r0
     924:	0f 90       	pop	r0
     926:	df 91       	pop	r29
     928:	cf 91       	pop	r28
     92a:	08 95       	ret

0000092c <_ZN6myTime9setMinuteEi>:
     92c:	cf 93       	push	r28
     92e:	df 93       	push	r29
     930:	00 d0       	rcall	.+0      	; 0x932 <_ZN6myTime9setMinuteEi+0x6>
     932:	00 d0       	rcall	.+0      	; 0x934 <_ZN6myTime9setMinuteEi+0x8>
     934:	cd b7       	in	r28, 0x3d	; 61
     936:	de b7       	in	r29, 0x3e	; 62
     938:	9a 83       	std	Y+2, r25	; 0x02
     93a:	89 83       	std	Y+1, r24	; 0x01
     93c:	7c 83       	std	Y+4, r23	; 0x04
     93e:	6b 83       	std	Y+3, r22	; 0x03
     940:	8b 81       	ldd	r24, Y+3	; 0x03
     942:	9c 81       	ldd	r25, Y+4	; 0x04
     944:	cb 96       	adiw	r24, 0x3b	; 59
     946:	87 37       	cpi	r24, 0x77	; 119
     948:	91 05       	cpc	r25, r1
     94a:	38 f4       	brcc	.+14     	; 0x95a <_ZN6myTime9setMinuteEi+0x2e>
     94c:	89 81       	ldd	r24, Y+1	; 0x01
     94e:	9a 81       	ldd	r25, Y+2	; 0x02
     950:	2b 81       	ldd	r18, Y+3	; 0x03
     952:	3c 81       	ldd	r19, Y+4	; 0x04
     954:	fc 01       	movw	r30, r24
     956:	32 8f       	std	Z+26, r19	; 0x1a
     958:	21 8f       	std	Z+25, r18	; 0x19
     95a:	0f 90       	pop	r0
     95c:	0f 90       	pop	r0
     95e:	0f 90       	pop	r0
     960:	0f 90       	pop	r0
     962:	df 91       	pop	r29
     964:	cf 91       	pop	r28
     966:	08 95       	ret

00000968 <_ZN6myTime9setSecondEi>:
     968:	cf 93       	push	r28
     96a:	df 93       	push	r29
     96c:	00 d0       	rcall	.+0      	; 0x96e <_ZN6myTime9setSecondEi+0x6>
     96e:	00 d0       	rcall	.+0      	; 0x970 <_ZN6myTime9setSecondEi+0x8>
     970:	cd b7       	in	r28, 0x3d	; 61
     972:	de b7       	in	r29, 0x3e	; 62
     974:	9a 83       	std	Y+2, r25	; 0x02
     976:	89 83       	std	Y+1, r24	; 0x01
     978:	7c 83       	std	Y+4, r23	; 0x04
     97a:	6b 83       	std	Y+3, r22	; 0x03
     97c:	8b 81       	ldd	r24, Y+3	; 0x03
     97e:	9c 81       	ldd	r25, Y+4	; 0x04
     980:	cb 96       	adiw	r24, 0x3b	; 59
     982:	87 37       	cpi	r24, 0x77	; 119
     984:	91 05       	cpc	r25, r1
     986:	38 f4       	brcc	.+14     	; 0x996 <_ZN6myTime9setSecondEi+0x2e>
     988:	89 81       	ldd	r24, Y+1	; 0x01
     98a:	9a 81       	ldd	r25, Y+2	; 0x02
     98c:	2b 81       	ldd	r18, Y+3	; 0x03
     98e:	3c 81       	ldd	r19, Y+4	; 0x04
     990:	fc 01       	movw	r30, r24
     992:	34 8f       	std	Z+28, r19	; 0x1c
     994:	23 8f       	std	Z+27, r18	; 0x1b
     996:	0f 90       	pop	r0
     998:	0f 90       	pop	r0
     99a:	0f 90       	pop	r0
     99c:	0f 90       	pop	r0
     99e:	df 91       	pop	r29
     9a0:	cf 91       	pop	r28
     9a2:	08 95       	ret

000009a4 <_ZN6myTime8addHoursEi>:
     9a4:	cf 93       	push	r28
     9a6:	df 93       	push	r29
     9a8:	cd b7       	in	r28, 0x3d	; 61
     9aa:	de b7       	in	r29, 0x3e	; 62
     9ac:	28 97       	sbiw	r28, 0x08	; 8
     9ae:	0f b6       	in	r0, 0x3f	; 63
     9b0:	f8 94       	cli
     9b2:	de bf       	out	0x3e, r29	; 62
     9b4:	0f be       	out	0x3f, r0	; 63
     9b6:	cd bf       	out	0x3d, r28	; 61
     9b8:	9e 83       	std	Y+6, r25	; 0x06
     9ba:	8d 83       	std	Y+5, r24	; 0x05
     9bc:	78 87       	std	Y+8, r23	; 0x08
     9be:	6f 83       	std	Y+7, r22	; 0x07
     9c0:	8d 81       	ldd	r24, Y+5	; 0x05
     9c2:	9e 81       	ldd	r25, Y+6	; 0x06
     9c4:	fc 01       	movw	r30, r24
     9c6:	27 89       	ldd	r18, Z+23	; 0x17
     9c8:	30 8d       	ldd	r19, Z+24	; 0x18
     9ca:	8f 81       	ldd	r24, Y+7	; 0x07
     9cc:	98 85       	ldd	r25, Y+8	; 0x08
     9ce:	82 0f       	add	r24, r18
     9d0:	93 1f       	adc	r25, r19
     9d2:	9a 83       	std	Y+2, r25	; 0x02
     9d4:	89 83       	std	Y+1, r24	; 0x01
     9d6:	89 81       	ldd	r24, Y+1	; 0x01
     9d8:	9a 81       	ldd	r25, Y+2	; 0x02
     9da:	28 e1       	ldi	r18, 0x18	; 24
     9dc:	30 e0       	ldi	r19, 0x00	; 0
     9de:	b9 01       	movw	r22, r18
     9e0:	0e 94 77 14 	call	0x28ee	; 0x28ee <__divmodhi4>
     9e4:	9c 01       	movw	r18, r24
     9e6:	8d 81       	ldd	r24, Y+5	; 0x05
     9e8:	9e 81       	ldd	r25, Y+6	; 0x06
     9ea:	fc 01       	movw	r30, r24
     9ec:	30 8f       	std	Z+24, r19	; 0x18
     9ee:	27 8b       	std	Z+23, r18	; 0x17
     9f0:	89 81       	ldd	r24, Y+1	; 0x01
     9f2:	9a 81       	ldd	r25, Y+2	; 0x02
     9f4:	21 e0       	ldi	r18, 0x01	; 1
     9f6:	88 31       	cpi	r24, 0x18	; 24
     9f8:	91 05       	cpc	r25, r1
     9fa:	0c f4       	brge	.+2      	; 0x9fe <_ZN6myTime8addHoursEi+0x5a>
     9fc:	20 e0       	ldi	r18, 0x00	; 0
     9fe:	22 23       	and	r18, r18
     a00:	91 f0       	breq	.+36     	; 0xa26 <_ZN6myTime8addHoursEi+0x82>
     a02:	89 81       	ldd	r24, Y+1	; 0x01
     a04:	9a 81       	ldd	r25, Y+2	; 0x02
     a06:	28 e1       	ldi	r18, 0x18	; 24
     a08:	30 e0       	ldi	r19, 0x00	; 0
     a0a:	b9 01       	movw	r22, r18
     a0c:	0e 94 77 14 	call	0x28ee	; 0x28ee <__divmodhi4>
     a10:	9b 01       	movw	r18, r22
     a12:	c9 01       	movw	r24, r18
     a14:	9c 83       	std	Y+4, r25	; 0x04
     a16:	8b 83       	std	Y+3, r24	; 0x03
     a18:	8d 81       	ldd	r24, Y+5	; 0x05
     a1a:	9e 81       	ldd	r25, Y+6	; 0x06
     a1c:	2b 81       	ldd	r18, Y+3	; 0x03
     a1e:	3c 81       	ldd	r19, Y+4	; 0x04
     a20:	b9 01       	movw	r22, r18
     a22:	0e 94 43 02 	call	0x486	; 0x486 <_ZN6myDate7addDaysEi>
     a26:	28 96       	adiw	r28, 0x08	; 8
     a28:	0f b6       	in	r0, 0x3f	; 63
     a2a:	f8 94       	cli
     a2c:	de bf       	out	0x3e, r29	; 62
     a2e:	0f be       	out	0x3f, r0	; 63
     a30:	cd bf       	out	0x3d, r28	; 61
     a32:	df 91       	pop	r29
     a34:	cf 91       	pop	r28
     a36:	08 95       	ret

00000a38 <_ZN6myTime10addMinutesEi>:
     a38:	cf 93       	push	r28
     a3a:	df 93       	push	r29
     a3c:	cd b7       	in	r28, 0x3d	; 61
     a3e:	de b7       	in	r29, 0x3e	; 62
     a40:	28 97       	sbiw	r28, 0x08	; 8
     a42:	0f b6       	in	r0, 0x3f	; 63
     a44:	f8 94       	cli
     a46:	de bf       	out	0x3e, r29	; 62
     a48:	0f be       	out	0x3f, r0	; 63
     a4a:	cd bf       	out	0x3d, r28	; 61
     a4c:	9e 83       	std	Y+6, r25	; 0x06
     a4e:	8d 83       	std	Y+5, r24	; 0x05
     a50:	78 87       	std	Y+8, r23	; 0x08
     a52:	6f 83       	std	Y+7, r22	; 0x07
     a54:	8d 81       	ldd	r24, Y+5	; 0x05
     a56:	9e 81       	ldd	r25, Y+6	; 0x06
     a58:	fc 01       	movw	r30, r24
     a5a:	21 8d       	ldd	r18, Z+25	; 0x19
     a5c:	32 8d       	ldd	r19, Z+26	; 0x1a
     a5e:	8f 81       	ldd	r24, Y+7	; 0x07
     a60:	98 85       	ldd	r25, Y+8	; 0x08
     a62:	82 0f       	add	r24, r18
     a64:	93 1f       	adc	r25, r19
     a66:	9a 83       	std	Y+2, r25	; 0x02
     a68:	89 83       	std	Y+1, r24	; 0x01
     a6a:	89 81       	ldd	r24, Y+1	; 0x01
     a6c:	9a 81       	ldd	r25, Y+2	; 0x02
     a6e:	2c e3       	ldi	r18, 0x3C	; 60
     a70:	30 e0       	ldi	r19, 0x00	; 0
     a72:	b9 01       	movw	r22, r18
     a74:	0e 94 77 14 	call	0x28ee	; 0x28ee <__divmodhi4>
     a78:	9c 01       	movw	r18, r24
     a7a:	8d 81       	ldd	r24, Y+5	; 0x05
     a7c:	9e 81       	ldd	r25, Y+6	; 0x06
     a7e:	fc 01       	movw	r30, r24
     a80:	32 8f       	std	Z+26, r19	; 0x1a
     a82:	21 8f       	std	Z+25, r18	; 0x19
     a84:	89 81       	ldd	r24, Y+1	; 0x01
     a86:	9a 81       	ldd	r25, Y+2	; 0x02
     a88:	21 e0       	ldi	r18, 0x01	; 1
     a8a:	8c 33       	cpi	r24, 0x3C	; 60
     a8c:	91 05       	cpc	r25, r1
     a8e:	0c f4       	brge	.+2      	; 0xa92 <_ZN6myTime10addMinutesEi+0x5a>
     a90:	20 e0       	ldi	r18, 0x00	; 0
     a92:	22 23       	and	r18, r18
     a94:	91 f0       	breq	.+36     	; 0xaba <_ZN6myTime10addMinutesEi+0x82>
     a96:	89 81       	ldd	r24, Y+1	; 0x01
     a98:	9a 81       	ldd	r25, Y+2	; 0x02
     a9a:	2c e3       	ldi	r18, 0x3C	; 60
     a9c:	30 e0       	ldi	r19, 0x00	; 0
     a9e:	b9 01       	movw	r22, r18
     aa0:	0e 94 77 14 	call	0x28ee	; 0x28ee <__divmodhi4>
     aa4:	9b 01       	movw	r18, r22
     aa6:	c9 01       	movw	r24, r18
     aa8:	9c 83       	std	Y+4, r25	; 0x04
     aaa:	8b 83       	std	Y+3, r24	; 0x03
     aac:	2b 81       	ldd	r18, Y+3	; 0x03
     aae:	3c 81       	ldd	r19, Y+4	; 0x04
     ab0:	8d 81       	ldd	r24, Y+5	; 0x05
     ab2:	9e 81       	ldd	r25, Y+6	; 0x06
     ab4:	b9 01       	movw	r22, r18
     ab6:	0e 94 d2 04 	call	0x9a4	; 0x9a4 <_ZN6myTime8addHoursEi>
     aba:	28 96       	adiw	r28, 0x08	; 8
     abc:	0f b6       	in	r0, 0x3f	; 63
     abe:	f8 94       	cli
     ac0:	de bf       	out	0x3e, r29	; 62
     ac2:	0f be       	out	0x3f, r0	; 63
     ac4:	cd bf       	out	0x3d, r28	; 61
     ac6:	df 91       	pop	r29
     ac8:	cf 91       	pop	r28
     aca:	08 95       	ret

00000acc <_ZN6myTime10addSecondsEi>:
     acc:	cf 93       	push	r28
     ace:	df 93       	push	r29
     ad0:	cd b7       	in	r28, 0x3d	; 61
     ad2:	de b7       	in	r29, 0x3e	; 62
     ad4:	28 97       	sbiw	r28, 0x08	; 8
     ad6:	0f b6       	in	r0, 0x3f	; 63
     ad8:	f8 94       	cli
     ada:	de bf       	out	0x3e, r29	; 62
     adc:	0f be       	out	0x3f, r0	; 63
     ade:	cd bf       	out	0x3d, r28	; 61
     ae0:	9e 83       	std	Y+6, r25	; 0x06
     ae2:	8d 83       	std	Y+5, r24	; 0x05
     ae4:	78 87       	std	Y+8, r23	; 0x08
     ae6:	6f 83       	std	Y+7, r22	; 0x07
     ae8:	8d 81       	ldd	r24, Y+5	; 0x05
     aea:	9e 81       	ldd	r25, Y+6	; 0x06
     aec:	fc 01       	movw	r30, r24
     aee:	23 8d       	ldd	r18, Z+27	; 0x1b
     af0:	34 8d       	ldd	r19, Z+28	; 0x1c
     af2:	8f 81       	ldd	r24, Y+7	; 0x07
     af4:	98 85       	ldd	r25, Y+8	; 0x08
     af6:	82 0f       	add	r24, r18
     af8:	93 1f       	adc	r25, r19
     afa:	9a 83       	std	Y+2, r25	; 0x02
     afc:	89 83       	std	Y+1, r24	; 0x01
     afe:	89 81       	ldd	r24, Y+1	; 0x01
     b00:	9a 81       	ldd	r25, Y+2	; 0x02
     b02:	2c e3       	ldi	r18, 0x3C	; 60
     b04:	30 e0       	ldi	r19, 0x00	; 0
     b06:	b9 01       	movw	r22, r18
     b08:	0e 94 77 14 	call	0x28ee	; 0x28ee <__divmodhi4>
     b0c:	9c 01       	movw	r18, r24
     b0e:	8d 81       	ldd	r24, Y+5	; 0x05
     b10:	9e 81       	ldd	r25, Y+6	; 0x06
     b12:	fc 01       	movw	r30, r24
     b14:	34 8f       	std	Z+28, r19	; 0x1c
     b16:	23 8f       	std	Z+27, r18	; 0x1b
     b18:	89 81       	ldd	r24, Y+1	; 0x01
     b1a:	9a 81       	ldd	r25, Y+2	; 0x02
     b1c:	21 e0       	ldi	r18, 0x01	; 1
     b1e:	8c 33       	cpi	r24, 0x3C	; 60
     b20:	91 05       	cpc	r25, r1
     b22:	0c f4       	brge	.+2      	; 0xb26 <_ZN6myTime10addSecondsEi+0x5a>
     b24:	20 e0       	ldi	r18, 0x00	; 0
     b26:	22 23       	and	r18, r18
     b28:	91 f0       	breq	.+36     	; 0xb4e <_ZN6myTime10addSecondsEi+0x82>
     b2a:	89 81       	ldd	r24, Y+1	; 0x01
     b2c:	9a 81       	ldd	r25, Y+2	; 0x02
     b2e:	2c e3       	ldi	r18, 0x3C	; 60
     b30:	30 e0       	ldi	r19, 0x00	; 0
     b32:	b9 01       	movw	r22, r18
     b34:	0e 94 77 14 	call	0x28ee	; 0x28ee <__divmodhi4>
     b38:	9b 01       	movw	r18, r22
     b3a:	c9 01       	movw	r24, r18
     b3c:	9c 83       	std	Y+4, r25	; 0x04
     b3e:	8b 83       	std	Y+3, r24	; 0x03
     b40:	2b 81       	ldd	r18, Y+3	; 0x03
     b42:	3c 81       	ldd	r19, Y+4	; 0x04
     b44:	8d 81       	ldd	r24, Y+5	; 0x05
     b46:	9e 81       	ldd	r25, Y+6	; 0x06
     b48:	b9 01       	movw	r22, r18
     b4a:	0e 94 1c 05 	call	0xa38	; 0xa38 <_ZN6myTime10addMinutesEi>
     b4e:	28 96       	adiw	r28, 0x08	; 8
     b50:	0f b6       	in	r0, 0x3f	; 63
     b52:	f8 94       	cli
     b54:	de bf       	out	0x3e, r29	; 62
     b56:	0f be       	out	0x3f, r0	; 63
     b58:	cd bf       	out	0x3d, r28	; 61
     b5a:	df 91       	pop	r29
     b5c:	cf 91       	pop	r28
     b5e:	08 95       	ret

00000b60 <_ZN6myTime7getTimeEv>:
     b60:	cf 93       	push	r28
     b62:	df 93       	push	r29
     b64:	cd b7       	in	r28, 0x3d	; 61
     b66:	de b7       	in	r29, 0x3e	; 62
     b68:	2b 97       	sbiw	r28, 0x0b	; 11
     b6a:	0f b6       	in	r0, 0x3f	; 63
     b6c:	f8 94       	cli
     b6e:	de bf       	out	0x3e, r29	; 62
     b70:	0f be       	out	0x3f, r0	; 63
     b72:	cd bf       	out	0x3d, r28	; 61
     b74:	9b 87       	std	Y+11, r25	; 0x0b
     b76:	8a 87       	std	Y+10, r24	; 0x0a
     b78:	8a 85       	ldd	r24, Y+10	; 0x0a
     b7a:	9b 85       	ldd	r25, Y+11	; 0x0b
     b7c:	fc 01       	movw	r30, r24
     b7e:	87 89       	ldd	r24, Z+23	; 0x17
     b80:	90 8d       	ldd	r25, Z+24	; 0x18
     b82:	9e 01       	movw	r18, r28
     b84:	2f 5f       	subi	r18, 0xFF	; 255
     b86:	3f 4f       	sbci	r19, 0xFF	; 255
     b88:	b9 01       	movw	r22, r18
     b8a:	4a e0       	ldi	r20, 0x0A	; 10
     b8c:	50 e0       	ldi	r21, 0x00	; 0
     b8e:	0e 94 dd 14 	call	0x29ba	; 0x29ba <itoa>
     b92:	8a 85       	ldd	r24, Y+10	; 0x0a
     b94:	9b 85       	ldd	r25, Y+11	; 0x0b
     b96:	fc 01       	movw	r30, r24
     b98:	81 8d       	ldd	r24, Z+25	; 0x19
     b9a:	92 8d       	ldd	r25, Z+26	; 0x1a
     b9c:	9e 01       	movw	r18, r28
     b9e:	2c 5f       	subi	r18, 0xFC	; 252
     ba0:	3f 4f       	sbci	r19, 0xFF	; 255
     ba2:	b9 01       	movw	r22, r18
     ba4:	4a e0       	ldi	r20, 0x0A	; 10
     ba6:	50 e0       	ldi	r21, 0x00	; 0
     ba8:	0e 94 dd 14 	call	0x29ba	; 0x29ba <itoa>
     bac:	8a 85       	ldd	r24, Y+10	; 0x0a
     bae:	9b 85       	ldd	r25, Y+11	; 0x0b
     bb0:	fc 01       	movw	r30, r24
     bb2:	83 8d       	ldd	r24, Z+27	; 0x1b
     bb4:	94 8d       	ldd	r25, Z+28	; 0x1c
     bb6:	9e 01       	movw	r18, r28
     bb8:	29 5f       	subi	r18, 0xF9	; 249
     bba:	3f 4f       	sbci	r19, 0xFF	; 255
     bbc:	b9 01       	movw	r22, r18
     bbe:	4a e0       	ldi	r20, 0x0A	; 10
     bc0:	50 e0       	ldi	r21, 0x00	; 0
     bc2:	0e 94 dd 14 	call	0x29ba	; 0x29ba <itoa>
     bc6:	8a 85       	ldd	r24, Y+10	; 0x0a
     bc8:	9b 85       	ldd	r25, Y+11	; 0x0b
     bca:	4d 96       	adiw	r24, 0x1d	; 29
     bcc:	9e 01       	movw	r18, r28
     bce:	2f 5f       	subi	r18, 0xFF	; 255
     bd0:	3f 4f       	sbci	r19, 0xFF	; 255
     bd2:	b9 01       	movw	r22, r18
     bd4:	0e 94 d6 14 	call	0x29ac	; 0x29ac <strcpy>
     bd8:	8a 85       	ldd	r24, Y+10	; 0x0a
     bda:	9b 85       	ldd	r25, Y+11	; 0x0b
     bdc:	9c 01       	movw	r18, r24
     bde:	23 5e       	subi	r18, 0xE3	; 227
     be0:	3f 4f       	sbci	r19, 0xFF	; 255
     be2:	c9 01       	movw	r24, r18
     be4:	ac 01       	movw	r20, r24
     be6:	fa 01       	movw	r30, r20
     be8:	01 90       	ld	r0, Z+
     bea:	00 20       	and	r0, r0
     bec:	e9 f7       	brne	.-6      	; 0xbe8 <_ZN6myTime7getTimeEv+0x88>
     bee:	cf 01       	movw	r24, r30
     bf0:	01 97       	sbiw	r24, 0x01	; 1
     bf2:	84 1b       	sub	r24, r20
     bf4:	95 0b       	sbc	r25, r21
     bf6:	82 0f       	add	r24, r18
     bf8:	93 1f       	adc	r25, r19
     bfa:	2a e3       	ldi	r18, 0x3A	; 58
     bfc:	30 e0       	ldi	r19, 0x00	; 0
     bfe:	fc 01       	movw	r30, r24
     c00:	31 83       	std	Z+1, r19	; 0x01
     c02:	20 83       	st	Z, r18
     c04:	8a 85       	ldd	r24, Y+10	; 0x0a
     c06:	9b 85       	ldd	r25, Y+11	; 0x0b
     c08:	4d 96       	adiw	r24, 0x1d	; 29
     c0a:	9e 01       	movw	r18, r28
     c0c:	2c 5f       	subi	r18, 0xFC	; 252
     c0e:	3f 4f       	sbci	r19, 0xFF	; 255
     c10:	b9 01       	movw	r22, r18
     c12:	0e 94 c2 14 	call	0x2984	; 0x2984 <strcat>
     c16:	8a 85       	ldd	r24, Y+10	; 0x0a
     c18:	9b 85       	ldd	r25, Y+11	; 0x0b
     c1a:	9c 01       	movw	r18, r24
     c1c:	23 5e       	subi	r18, 0xE3	; 227
     c1e:	3f 4f       	sbci	r19, 0xFF	; 255
     c20:	c9 01       	movw	r24, r18
     c22:	ac 01       	movw	r20, r24
     c24:	fa 01       	movw	r30, r20
     c26:	01 90       	ld	r0, Z+
     c28:	00 20       	and	r0, r0
     c2a:	e9 f7       	brne	.-6      	; 0xc26 <_ZN6myTime7getTimeEv+0xc6>
     c2c:	cf 01       	movw	r24, r30
     c2e:	01 97       	sbiw	r24, 0x01	; 1
     c30:	84 1b       	sub	r24, r20
     c32:	95 0b       	sbc	r25, r21
     c34:	82 0f       	add	r24, r18
     c36:	93 1f       	adc	r25, r19
     c38:	2a e3       	ldi	r18, 0x3A	; 58
     c3a:	30 e0       	ldi	r19, 0x00	; 0
     c3c:	fc 01       	movw	r30, r24
     c3e:	31 83       	std	Z+1, r19	; 0x01
     c40:	20 83       	st	Z, r18
     c42:	8a 85       	ldd	r24, Y+10	; 0x0a
     c44:	9b 85       	ldd	r25, Y+11	; 0x0b
     c46:	4d 96       	adiw	r24, 0x1d	; 29
     c48:	9e 01       	movw	r18, r28
     c4a:	29 5f       	subi	r18, 0xF9	; 249
     c4c:	3f 4f       	sbci	r19, 0xFF	; 255
     c4e:	b9 01       	movw	r22, r18
     c50:	0e 94 c2 14 	call	0x2984	; 0x2984 <strcat>
     c54:	8a 85       	ldd	r24, Y+10	; 0x0a
     c56:	9b 85       	ldd	r25, Y+11	; 0x0b
     c58:	20 e2       	ldi	r18, 0x20	; 32
     c5a:	fc 01       	movw	r30, r24
     c5c:	27 a3       	lds	r18, 0x57
     c5e:	8a 85       	ldd	r24, Y+10	; 0x0a
     c60:	9b 85       	ldd	r25, Y+11	; 0x0b
     c62:	fc 01       	movw	r30, r24
     c64:	10 a6       	lds	r17, 0xb0
     c66:	8a 85       	ldd	r24, Y+10	; 0x0a
     c68:	9b 85       	ldd	r25, Y+11	; 0x0b
     c6a:	4d 96       	adiw	r24, 0x1d	; 29
     c6c:	2b 96       	adiw	r28, 0x0b	; 11
     c6e:	0f b6       	in	r0, 0x3f	; 63
     c70:	f8 94       	cli
     c72:	de bf       	out	0x3e, r29	; 62
     c74:	0f be       	out	0x3f, r0	; 63
     c76:	cd bf       	out	0x3d, r28	; 61
     c78:	df 91       	pop	r29
     c7a:	cf 91       	pop	r28
     c7c:	08 95       	ret

00000c7e <_Z18getDateTime_eepromhh>:
     c7e:	cf 93       	push	r28
     c80:	df 93       	push	r29
     c82:	cd b7       	in	r28, 0x3d	; 61
     c84:	de b7       	in	r29, 0x3e	; 62
     c86:	2f 97       	sbiw	r28, 0x0f	; 15
     c88:	0f b6       	in	r0, 0x3f	; 63
     c8a:	f8 94       	cli
     c8c:	de bf       	out	0x3e, r29	; 62
     c8e:	0f be       	out	0x3f, r0	; 63
     c90:	cd bf       	out	0x3d, r28	; 61
     c92:	8e 87       	std	Y+14, r24	; 0x0e
     c94:	6f 87       	std	Y+15, r22	; 0x0f
     c96:	f8 94       	cli
     c98:	8e 85       	ldd	r24, Y+14	; 0x0e
     c9a:	88 23       	and	r24, r24
     c9c:	09 f4       	brne	.+2      	; 0xca0 <_Z18getDateTime_eepromhh+0x22>
     c9e:	4b c0       	rjmp	.+150    	; 0xd36 <_Z18getDateTime_eepromhh+0xb8>
     ca0:	1a 82       	std	Y+2, r1	; 0x02
     ca2:	19 82       	std	Y+1, r1	; 0x01
     ca4:	81 e0       	ldi	r24, 0x01	; 1
     ca6:	8b 83       	std	Y+3, r24	; 0x03
     ca8:	2c c0       	rjmp	.+88     	; 0xd02 <_Z18getDateTime_eepromhh+0x84>
     caa:	82 e0       	ldi	r24, 0x02	; 2
     cac:	90 e0       	ldi	r25, 0x00	; 0
     cae:	0e 94 06 15 	call	0x2a0c	; 0x2a0c <__eerd_byte_m644pa>
     cb2:	8f 83       	std	Y+7, r24	; 0x07
     cb4:	81 e0       	ldi	r24, 0x01	; 1
     cb6:	90 e0       	ldi	r25, 0x00	; 0
     cb8:	0e 94 06 15 	call	0x2a0c	; 0x2a0c <__eerd_byte_m644pa>
     cbc:	88 87       	std	Y+8, r24	; 0x08
     cbe:	80 e0       	ldi	r24, 0x00	; 0
     cc0:	90 e0       	ldi	r25, 0x00	; 0
     cc2:	0e 94 06 15 	call	0x2a0c	; 0x2a0c <__eerd_byte_m644pa>
     cc6:	89 87       	std	Y+9, r24	; 0x09
     cc8:	8f 81       	ldd	r24, Y+7	; 0x07
     cca:	8c 33       	cpi	r24, 0x3C	; 60
     ccc:	a8 f4       	brcc	.+42     	; 0xcf8 <_Z18getDateTime_eepromhh+0x7a>
     cce:	88 85       	ldd	r24, Y+8	; 0x08
     cd0:	8c 33       	cpi	r24, 0x3C	; 60
     cd2:	90 f4       	brcc	.+36     	; 0xcf8 <_Z18getDateTime_eepromhh+0x7a>
     cd4:	89 85       	ldd	r24, Y+9	; 0x09
     cd6:	88 31       	cpi	r24, 0x18	; 24
     cd8:	78 f4       	brcc	.+30     	; 0xcf8 <_Z18getDateTime_eepromhh+0x7a>
     cda:	89 85       	ldd	r24, Y+9	; 0x09
     cdc:	68 2f       	mov	r22, r24
     cde:	70 e0       	ldi	r23, 0x00	; 0
     ce0:	88 85       	ldd	r24, Y+8	; 0x08
     ce2:	48 2f       	mov	r20, r24
     ce4:	50 e0       	ldi	r21, 0x00	; 0
     ce6:	8f 81       	ldd	r24, Y+7	; 0x07
     ce8:	28 2f       	mov	r18, r24
     cea:	30 e0       	ldi	r19, 0x00	; 0
     cec:	87 e8       	ldi	r24, 0x87	; 135
     cee:	91 e0       	ldi	r25, 0x01	; 1
     cf0:	0e 94 48 04 	call	0x890	; 0x890 <_ZN6myTime7setTimeEiii>
     cf4:	1b 82       	std	Y+3, r1	; 0x03
     cf6:	05 c0       	rjmp	.+10     	; 0xd02 <_Z18getDateTime_eepromhh+0x84>
     cf8:	89 81       	ldd	r24, Y+1	; 0x01
     cfa:	9a 81       	ldd	r25, Y+2	; 0x02
     cfc:	01 96       	adiw	r24, 0x01	; 1
     cfe:	9a 83       	std	Y+2, r25	; 0x02
     d00:	89 83       	std	Y+1, r24	; 0x01
     d02:	8b 81       	ldd	r24, Y+3	; 0x03
     d04:	88 23       	and	r24, r24
     d06:	39 f0       	breq	.+14     	; 0xd16 <_Z18getDateTime_eepromhh+0x98>
     d08:	89 81       	ldd	r24, Y+1	; 0x01
     d0a:	9a 81       	ldd	r25, Y+2	; 0x02
     d0c:	83 30       	cpi	r24, 0x03	; 3
     d0e:	91 05       	cpc	r25, r1
     d10:	14 f4       	brge	.+4      	; 0xd16 <_Z18getDateTime_eepromhh+0x98>
     d12:	81 e0       	ldi	r24, 0x01	; 1
     d14:	01 c0       	rjmp	.+2      	; 0xd18 <_Z18getDateTime_eepromhh+0x9a>
     d16:	80 e0       	ldi	r24, 0x00	; 0
     d18:	88 23       	and	r24, r24
     d1a:	39 f6       	brne	.-114    	; 0xcaa <_Z18getDateTime_eepromhh+0x2c>
     d1c:	8b 81       	ldd	r24, Y+3	; 0x03
     d1e:	88 23       	and	r24, r24
     d20:	51 f0       	breq	.+20     	; 0xd36 <_Z18getDateTime_eepromhh+0xb8>
     d22:	87 e8       	ldi	r24, 0x87	; 135
     d24:	91 e0       	ldi	r25, 0x01	; 1
     d26:	61 e0       	ldi	r22, 0x01	; 1
     d28:	70 e0       	ldi	r23, 0x00	; 0
     d2a:	41 e0       	ldi	r20, 0x01	; 1
     d2c:	50 e0       	ldi	r21, 0x00	; 0
     d2e:	21 e0       	ldi	r18, 0x01	; 1
     d30:	30 e0       	ldi	r19, 0x00	; 0
     d32:	0e 94 48 04 	call	0x890	; 0x890 <_ZN6myTime7setTimeEiii>
     d36:	8f 85       	ldd	r24, Y+15	; 0x0f
     d38:	88 23       	and	r24, r24
     d3a:	09 f4       	brne	.+2      	; 0xd3e <_Z18getDateTime_eepromhh+0xc0>
     d3c:	4e c0       	rjmp	.+156    	; 0xdda <_Z18getDateTime_eepromhh+0x15c>
     d3e:	1d 82       	std	Y+5, r1	; 0x05
     d40:	1c 82       	std	Y+4, r1	; 0x04
     d42:	81 e0       	ldi	r24, 0x01	; 1
     d44:	8e 83       	std	Y+6, r24	; 0x06
     d46:	2f c0       	rjmp	.+94     	; 0xda6 <_Z18getDateTime_eepromhh+0x128>
     d48:	84 e0       	ldi	r24, 0x04	; 4
     d4a:	90 e0       	ldi	r25, 0x00	; 0
     d4c:	0e 94 06 15 	call	0x2a0c	; 0x2a0c <__eerd_byte_m644pa>
     d50:	8a 87       	std	Y+10, r24	; 0x0a
     d52:	83 e0       	ldi	r24, 0x03	; 3
     d54:	90 e0       	ldi	r25, 0x00	; 0
     d56:	0e 94 06 15 	call	0x2a0c	; 0x2a0c <__eerd_byte_m644pa>
     d5a:	8b 87       	std	Y+11, r24	; 0x0b
     d5c:	85 e0       	ldi	r24, 0x05	; 5
     d5e:	90 e0       	ldi	r25, 0x00	; 0
     d60:	0e 94 0e 15 	call	0x2a1c	; 0x2a1c <__eerd_word_m644pa>
     d64:	9d 87       	std	Y+13, r25	; 0x0d
     d66:	8c 87       	std	Y+12, r24	; 0x0c
     d68:	8a 85       	ldd	r24, Y+10	; 0x0a
     d6a:	8f 31       	cpi	r24, 0x1F	; 31
     d6c:	b8 f4       	brcc	.+46     	; 0xd9c <_Z18getDateTime_eepromhh+0x11e>
     d6e:	8b 85       	ldd	r24, Y+11	; 0x0b
     d70:	8d 30       	cpi	r24, 0x0D	; 13
     d72:	a0 f4       	brcc	.+40     	; 0xd9c <_Z18getDateTime_eepromhh+0x11e>
     d74:	8c 85       	ldd	r24, Y+12	; 0x0c
     d76:	9d 85       	ldd	r25, Y+13	; 0x0d
     d78:	27 e2       	ldi	r18, 0x27	; 39
     d7a:	80 31       	cpi	r24, 0x10	; 16
     d7c:	92 07       	cpc	r25, r18
     d7e:	70 f4       	brcc	.+28     	; 0xd9c <_Z18getDateTime_eepromhh+0x11e>
     d80:	8b 85       	ldd	r24, Y+11	; 0x0b
     d82:	68 2f       	mov	r22, r24
     d84:	70 e0       	ldi	r23, 0x00	; 0
     d86:	8a 85       	ldd	r24, Y+10	; 0x0a
     d88:	48 2f       	mov	r20, r24
     d8a:	50 e0       	ldi	r21, 0x00	; 0
     d8c:	2c 85       	ldd	r18, Y+12	; 0x0c
     d8e:	3d 85       	ldd	r19, Y+13	; 0x0d
     d90:	87 e8       	ldi	r24, 0x87	; 135
     d92:	91 e0       	ldi	r25, 0x01	; 1
     d94:	0e 94 84 01 	call	0x308	; 0x308 <_ZN6myDate7setDateEiii>
     d98:	1e 82       	std	Y+6, r1	; 0x06
     d9a:	05 c0       	rjmp	.+10     	; 0xda6 <_Z18getDateTime_eepromhh+0x128>
     d9c:	8c 81       	ldd	r24, Y+4	; 0x04
     d9e:	9d 81       	ldd	r25, Y+5	; 0x05
     da0:	01 96       	adiw	r24, 0x01	; 1
     da2:	9d 83       	std	Y+5, r25	; 0x05
     da4:	8c 83       	std	Y+4, r24	; 0x04
     da6:	8e 81       	ldd	r24, Y+6	; 0x06
     da8:	88 23       	and	r24, r24
     daa:	39 f0       	breq	.+14     	; 0xdba <_Z18getDateTime_eepromhh+0x13c>
     dac:	8c 81       	ldd	r24, Y+4	; 0x04
     dae:	9d 81       	ldd	r25, Y+5	; 0x05
     db0:	83 30       	cpi	r24, 0x03	; 3
     db2:	91 05       	cpc	r25, r1
     db4:	14 f4       	brge	.+4      	; 0xdba <_Z18getDateTime_eepromhh+0x13c>
     db6:	81 e0       	ldi	r24, 0x01	; 1
     db8:	01 c0       	rjmp	.+2      	; 0xdbc <_Z18getDateTime_eepromhh+0x13e>
     dba:	80 e0       	ldi	r24, 0x00	; 0
     dbc:	88 23       	and	r24, r24
     dbe:	21 f6       	brne	.-120    	; 0xd48 <_Z18getDateTime_eepromhh+0xca>
     dc0:	8e 81       	ldd	r24, Y+6	; 0x06
     dc2:	88 23       	and	r24, r24
     dc4:	51 f0       	breq	.+20     	; 0xdda <_Z18getDateTime_eepromhh+0x15c>
     dc6:	87 e8       	ldi	r24, 0x87	; 135
     dc8:	91 e0       	ldi	r25, 0x01	; 1
     dca:	61 e0       	ldi	r22, 0x01	; 1
     dcc:	70 e0       	ldi	r23, 0x00	; 0
     dce:	41 e0       	ldi	r20, 0x01	; 1
     dd0:	50 e0       	ldi	r21, 0x00	; 0
     dd2:	21 ed       	ldi	r18, 0xD1	; 209
     dd4:	37 e0       	ldi	r19, 0x07	; 7
     dd6:	0e 94 84 01 	call	0x308	; 0x308 <_ZN6myDate7setDateEiii>
     dda:	78 94       	sei
     ddc:	2f 96       	adiw	r28, 0x0f	; 15
     dde:	0f b6       	in	r0, 0x3f	; 63
     de0:	f8 94       	cli
     de2:	de bf       	out	0x3e, r29	; 62
     de4:	0f be       	out	0x3f, r0	; 63
     de6:	cd bf       	out	0x3d, r28	; 61
     de8:	df 91       	pop	r29
     dea:	cf 91       	pop	r28
     dec:	08 95       	ret

00000dee <_Z19saveDateTime_eepromhh>:
     dee:	cf 93       	push	r28
     df0:	df 93       	push	r29
     df2:	cd b7       	in	r28, 0x3d	; 61
     df4:	de b7       	in	r29, 0x3e	; 62
     df6:	29 97       	sbiw	r28, 0x09	; 9
     df8:	0f b6       	in	r0, 0x3f	; 63
     dfa:	f8 94       	cli
     dfc:	de bf       	out	0x3e, r29	; 62
     dfe:	0f be       	out	0x3f, r0	; 63
     e00:	cd bf       	out	0x3d, r28	; 61
     e02:	88 87       	std	Y+8, r24	; 0x08
     e04:	69 87       	std	Y+9, r22	; 0x09
     e06:	f8 94       	cli
     e08:	88 85       	ldd	r24, Y+8	; 0x08
     e0a:	88 23       	and	r24, r24
     e0c:	f1 f0       	breq	.+60     	; 0xe4a <_Z19saveDateTime_eepromhh+0x5c>
     e0e:	87 e8       	ldi	r24, 0x87	; 135
     e10:	91 e0       	ldi	r25, 0x01	; 1
     e12:	0e 94 37 04 	call	0x86e	; 0x86e <_ZN6myTime8getHoursEv>
     e16:	89 83       	std	Y+1, r24	; 0x01
     e18:	87 e8       	ldi	r24, 0x87	; 135
     e1a:	91 e0       	ldi	r25, 0x01	; 1
     e1c:	0e 94 26 04 	call	0x84c	; 0x84c <_ZN6myTime10getMinutesEv>
     e20:	8a 83       	std	Y+2, r24	; 0x02
     e22:	87 e8       	ldi	r24, 0x87	; 135
     e24:	91 e0       	ldi	r25, 0x01	; 1
     e26:	0e 94 15 04 	call	0x82a	; 0x82a <_ZN6myTime10getSecondsEv>
     e2a:	8b 83       	std	Y+3, r24	; 0x03
     e2c:	82 e0       	ldi	r24, 0x02	; 2
     e2e:	90 e0       	ldi	r25, 0x00	; 0
     e30:	6b 81       	ldd	r22, Y+3	; 0x03
     e32:	0e 94 14 15 	call	0x2a28	; 0x2a28 <__eewr_byte_m644pa>
     e36:	81 e0       	ldi	r24, 0x01	; 1
     e38:	90 e0       	ldi	r25, 0x00	; 0
     e3a:	6a 81       	ldd	r22, Y+2	; 0x02
     e3c:	0e 94 14 15 	call	0x2a28	; 0x2a28 <__eewr_byte_m644pa>
     e40:	80 e0       	ldi	r24, 0x00	; 0
     e42:	90 e0       	ldi	r25, 0x00	; 0
     e44:	69 81       	ldd	r22, Y+1	; 0x01
     e46:	0e 94 14 15 	call	0x2a28	; 0x2a28 <__eewr_byte_m644pa>
     e4a:	89 85       	ldd	r24, Y+9	; 0x09
     e4c:	88 23       	and	r24, r24
     e4e:	09 f1       	breq	.+66     	; 0xe92 <_Z19saveDateTime_eepromhh+0xa4>
     e50:	87 e8       	ldi	r24, 0x87	; 135
     e52:	91 e0       	ldi	r25, 0x01	; 1
     e54:	0e 94 ba 00 	call	0x174	; 0x174 <_ZN6myDate8getYearsEv>
     e58:	9d 83       	std	Y+5, r25	; 0x05
     e5a:	8c 83       	std	Y+4, r24	; 0x04
     e5c:	87 e8       	ldi	r24, 0x87	; 135
     e5e:	91 e0       	ldi	r25, 0x01	; 1
     e60:	0e 94 a9 00 	call	0x152	; 0x152 <_ZN6myDate9getMonthsEv>
     e64:	8e 83       	std	Y+6, r24	; 0x06
     e66:	87 e8       	ldi	r24, 0x87	; 135
     e68:	91 e0       	ldi	r25, 0x01	; 1
     e6a:	0e 94 cb 00 	call	0x196	; 0x196 <_ZN6myDate7getDaysEv>
     e6e:	8f 83       	std	Y+7, r24	; 0x07
     e70:	85 e0       	ldi	r24, 0x05	; 5
     e72:	90 e0       	ldi	r25, 0x00	; 0
     e74:	2c 81       	ldd	r18, Y+4	; 0x04
     e76:	3d 81       	ldd	r19, Y+5	; 0x05
     e78:	b9 01       	movw	r22, r18
     e7a:	0e 94 22 15 	call	0x2a44	; 0x2a44 <__eewr_word_m644pa>
     e7e:	83 e0       	ldi	r24, 0x03	; 3
     e80:	90 e0       	ldi	r25, 0x00	; 0
     e82:	6e 81       	ldd	r22, Y+6	; 0x06
     e84:	0e 94 14 15 	call	0x2a28	; 0x2a28 <__eewr_byte_m644pa>
     e88:	84 e0       	ldi	r24, 0x04	; 4
     e8a:	90 e0       	ldi	r25, 0x00	; 0
     e8c:	6f 81       	ldd	r22, Y+7	; 0x07
     e8e:	0e 94 14 15 	call	0x2a28	; 0x2a28 <__eewr_byte_m644pa>
     e92:	78 94       	sei
     e94:	29 96       	adiw	r28, 0x09	; 9
     e96:	0f b6       	in	r0, 0x3f	; 63
     e98:	f8 94       	cli
     e9a:	de bf       	out	0x3e, r29	; 62
     e9c:	0f be       	out	0x3f, r0	; 63
     e9e:	cd bf       	out	0x3d, r28	; 61
     ea0:	df 91       	pop	r29
     ea2:	cf 91       	pop	r28
     ea4:	08 95       	ret

00000ea6 <__vector_4>:
     ea6:	1f 92       	push	r1
     ea8:	0f 92       	push	r0
     eaa:	0f b6       	in	r0, 0x3f	; 63
     eac:	0f 92       	push	r0
     eae:	11 24       	eor	r1, r1
     eb0:	2f 93       	push	r18
     eb2:	3f 93       	push	r19
     eb4:	4f 93       	push	r20
     eb6:	5f 93       	push	r21
     eb8:	6f 93       	push	r22
     eba:	7f 93       	push	r23
     ebc:	8f 93       	push	r24
     ebe:	9f 93       	push	r25
     ec0:	af 93       	push	r26
     ec2:	bf 93       	push	r27
     ec4:	ef 93       	push	r30
     ec6:	ff 93       	push	r31
     ec8:	cf 93       	push	r28
     eca:	df 93       	push	r29
     ecc:	cd b7       	in	r28, 0x3d	; 61
     ece:	de b7       	in	r29, 0x3e	; 62
     ed0:	80 e2       	ldi	r24, 0x20	; 32
     ed2:	90 e0       	ldi	r25, 0x00	; 0
     ed4:	fc 01       	movw	r30, r24
     ed6:	80 81       	ld	r24, Z
     ed8:	88 2f       	mov	r24, r24
     eda:	90 e0       	ldi	r25, 0x00	; 0
     edc:	81 70       	andi	r24, 0x01	; 1
     ede:	90 70       	andi	r25, 0x00	; 0
     ee0:	88 23       	and	r24, r24
     ee2:	b9 f1       	breq	.+110    	; 0xf52 <__vector_4+0xac>
     ee4:	80 91 b9 01 	lds	r24, 0x01B9
     ee8:	90 91 ba 01 	lds	r25, 0x01BA
     eec:	01 96       	adiw	r24, 0x01	; 1
     eee:	90 93 ba 01 	sts	0x01BA, r25
     ef2:	80 93 b9 01 	sts	0x01B9, r24
     ef6:	80 91 b9 01 	lds	r24, 0x01B9
     efa:	90 91 ba 01 	lds	r25, 0x01BA
     efe:	21 e0       	ldi	r18, 0x01	; 1
     f00:	18 16       	cp	r1, r24
     f02:	19 06       	cpc	r1, r25
     f04:	0c f0       	brlt	.+2      	; 0xf08 <__vector_4+0x62>
     f06:	20 e0       	ldi	r18, 0x00	; 0
     f08:	22 23       	and	r18, r18
     f0a:	19 f1       	breq	.+70     	; 0xf52 <__vector_4+0xac>
     f0c:	f8 94       	cli
     f0e:	81 e0       	ldi	r24, 0x01	; 1
     f10:	80 93 84 01 	sts	0x0184, r24
     f14:	81 ec       	ldi	r24, 0xC1	; 193
     f16:	90 e0       	ldi	r25, 0x00	; 0
     f18:	21 ec       	ldi	r18, 0xC1	; 193
     f1a:	30 e0       	ldi	r19, 0x00	; 0
     f1c:	f9 01       	movw	r30, r18
     f1e:	20 81       	ld	r18, Z
     f20:	20 68       	ori	r18, 0x80	; 128
     f22:	fc 01       	movw	r30, r24
     f24:	20 83       	st	Z, r18
     f26:	8b e6       	ldi	r24, 0x6B	; 107
     f28:	90 e0       	ldi	r25, 0x00	; 0
     f2a:	2b e6       	ldi	r18, 0x6B	; 107
     f2c:	30 e0       	ldi	r19, 0x00	; 0
     f2e:	f9 01       	movw	r30, r18
     f30:	20 81       	ld	r18, Z
     f32:	2e 7f       	andi	r18, 0xFE	; 254
     f34:	fc 01       	movw	r30, r24
     f36:	20 83       	st	Z, r18
     f38:	8d e3       	ldi	r24, 0x3D	; 61
     f3a:	90 e0       	ldi	r25, 0x00	; 0
     f3c:	fc 01       	movw	r30, r24
     f3e:	10 82       	st	Z, r1
     f40:	80 e0       	ldi	r24, 0x00	; 0
     f42:	91 e0       	ldi	r25, 0x01	; 1
     f44:	0e 94 2a 0c 	call	0x1854	; 0x1854 <_Z9PrintBonePc>
     f48:	78 94       	sei
     f4a:	10 92 ba 01 	sts	0x01BA, r1
     f4e:	10 92 b9 01 	sts	0x01B9, r1
     f52:	df 91       	pop	r29
     f54:	cf 91       	pop	r28
     f56:	ff 91       	pop	r31
     f58:	ef 91       	pop	r30
     f5a:	bf 91       	pop	r27
     f5c:	af 91       	pop	r26
     f5e:	9f 91       	pop	r25
     f60:	8f 91       	pop	r24
     f62:	7f 91       	pop	r23
     f64:	6f 91       	pop	r22
     f66:	5f 91       	pop	r21
     f68:	4f 91       	pop	r20
     f6a:	3f 91       	pop	r19
     f6c:	2f 91       	pop	r18
     f6e:	0f 90       	pop	r0
     f70:	0f be       	out	0x3f, r0	; 63
     f72:	0f 90       	pop	r0
     f74:	1f 90       	pop	r1
     f76:	18 95       	reti

00000f78 <__vector_3>:
     f78:	1f 92       	push	r1
     f7a:	0f 92       	push	r0
     f7c:	0f b6       	in	r0, 0x3f	; 63
     f7e:	0f 92       	push	r0
     f80:	11 24       	eor	r1, r1
     f82:	2f 93       	push	r18
     f84:	3f 93       	push	r19
     f86:	4f 93       	push	r20
     f88:	5f 93       	push	r21
     f8a:	6f 93       	push	r22
     f8c:	7f 93       	push	r23
     f8e:	8f 93       	push	r24
     f90:	9f 93       	push	r25
     f92:	af 93       	push	r26
     f94:	bf 93       	push	r27
     f96:	ef 93       	push	r30
     f98:	ff 93       	push	r31
     f9a:	cf 93       	push	r28
     f9c:	df 93       	push	r29
     f9e:	cd b7       	in	r28, 0x3d	; 61
     fa0:	de b7       	in	r29, 0x3e	; 62
     fa2:	80 91 b7 01 	lds	r24, 0x01B7
     fa6:	90 91 b8 01 	lds	r25, 0x01B8
     faa:	01 96       	adiw	r24, 0x01	; 1
     fac:	90 93 b8 01 	sts	0x01B8, r25
     fb0:	80 93 b7 01 	sts	0x01B7, r24
     fb4:	80 91 b7 01 	lds	r24, 0x01B7
     fb8:	90 91 b8 01 	lds	r25, 0x01B8
     fbc:	21 e0       	ldi	r18, 0x01	; 1
     fbe:	18 16       	cp	r1, r24
     fc0:	19 06       	cpc	r1, r25
     fc2:	0c f0       	brlt	.+2      	; 0xfc6 <__vector_3+0x4e>
     fc4:	20 e0       	ldi	r18, 0x00	; 0
     fc6:	22 23       	and	r18, r18
     fc8:	f1 f0       	breq	.+60     	; 0x1006 <__vector_3+0x8e>
     fca:	f8 94       	cli
     fcc:	81 e0       	ldi	r24, 0x01	; 1
     fce:	80 93 83 01 	sts	0x0183, r24
     fd2:	89 ec       	ldi	r24, 0xC9	; 201
     fd4:	90 e0       	ldi	r25, 0x00	; 0
     fd6:	29 ec       	ldi	r18, 0xC9	; 201
     fd8:	30 e0       	ldi	r19, 0x00	; 0
     fda:	f9 01       	movw	r30, r18
     fdc:	20 81       	ld	r18, Z
     fde:	20 68       	ori	r18, 0x80	; 128
     fe0:	fc 01       	movw	r30, r24
     fe2:	20 83       	st	Z, r18
     fe4:	8b e6       	ldi	r24, 0x6B	; 107
     fe6:	90 e0       	ldi	r25, 0x00	; 0
     fe8:	fc 01       	movw	r30, r24
     fea:	10 82       	st	Z, r1
     fec:	8d e3       	ldi	r24, 0x3D	; 61
     fee:	90 e0       	ldi	r25, 0x00	; 0
     ff0:	fc 01       	movw	r30, r24
     ff2:	10 82       	st	Z, r1
     ff4:	85 e0       	ldi	r24, 0x05	; 5
     ff6:	91 e0       	ldi	r25, 0x01	; 1
     ff8:	0e 94 75 0c 	call	0x18ea	; 0x18ea <_Z9PrintWAVRPc>
     ffc:	78 94       	sei
     ffe:	10 92 b8 01 	sts	0x01B8, r1
    1002:	10 92 b7 01 	sts	0x01B7, r1
    1006:	df 91       	pop	r29
    1008:	cf 91       	pop	r28
    100a:	ff 91       	pop	r31
    100c:	ef 91       	pop	r30
    100e:	bf 91       	pop	r27
    1010:	af 91       	pop	r26
    1012:	9f 91       	pop	r25
    1014:	8f 91       	pop	r24
    1016:	7f 91       	pop	r23
    1018:	6f 91       	pop	r22
    101a:	5f 91       	pop	r21
    101c:	4f 91       	pop	r20
    101e:	3f 91       	pop	r19
    1020:	2f 91       	pop	r18
    1022:	0f 90       	pop	r0
    1024:	0f be       	out	0x3f, r0	; 63
    1026:	0f 90       	pop	r0
    1028:	1f 90       	pop	r1
    102a:	18 95       	reti

0000102c <__vector_11>:
    102c:	1f 92       	push	r1
    102e:	0f 92       	push	r0
    1030:	0f b6       	in	r0, 0x3f	; 63
    1032:	0f 92       	push	r0
    1034:	11 24       	eor	r1, r1
    1036:	2f 93       	push	r18
    1038:	3f 93       	push	r19
    103a:	4f 93       	push	r20
    103c:	5f 93       	push	r21
    103e:	6f 93       	push	r22
    1040:	7f 93       	push	r23
    1042:	8f 93       	push	r24
    1044:	9f 93       	push	r25
    1046:	af 93       	push	r26
    1048:	bf 93       	push	r27
    104a:	ef 93       	push	r30
    104c:	ff 93       	push	r31
    104e:	cf 93       	push	r28
    1050:	df 93       	push	r29
    1052:	cd b7       	in	r28, 0x3d	; 61
    1054:	de b7       	in	r29, 0x3e	; 62
    1056:	89 e2       	ldi	r24, 0x29	; 41
    1058:	90 e0       	ldi	r25, 0x00	; 0
    105a:	29 e2       	ldi	r18, 0x29	; 41
    105c:	30 e0       	ldi	r19, 0x00	; 0
    105e:	f9 01       	movw	r30, r18
    1060:	20 81       	ld	r18, Z
    1062:	20 68       	ori	r18, 0x80	; 128
    1064:	fc 01       	movw	r30, r24
    1066:	20 83       	st	Z, r18
    1068:	87 e8       	ldi	r24, 0x87	; 135
    106a:	91 e0       	ldi	r25, 0x01	; 1
    106c:	61 e0       	ldi	r22, 0x01	; 1
    106e:	70 e0       	ldi	r23, 0x00	; 0
    1070:	0e 94 66 05 	call	0xacc	; 0xacc <_ZN6myTime10addSecondsEi>
    1074:	80 91 7e 01 	lds	r24, 0x017E
    1078:	88 23       	and	r24, r24
    107a:	21 f4       	brne	.+8      	; 0x1084 <__vector_11+0x58>
    107c:	80 91 84 01 	lds	r24, 0x0184
    1080:	88 23       	and	r24, r24
    1082:	11 f0       	breq	.+4      	; 0x1088 <__vector_11+0x5c>
    1084:	81 e0       	ldi	r24, 0x01	; 1
    1086:	01 c0       	rjmp	.+2      	; 0x108a <__vector_11+0x5e>
    1088:	80 e0       	ldi	r24, 0x00	; 0
    108a:	88 23       	and	r24, r24
    108c:	49 f0       	breq	.+18     	; 0x10a0 <__vector_11+0x74>
    108e:	80 91 b3 01 	lds	r24, 0x01B3
    1092:	90 91 b4 01 	lds	r25, 0x01B4
    1096:	01 96       	adiw	r24, 0x01	; 1
    1098:	90 93 b4 01 	sts	0x01B4, r25
    109c:	80 93 b3 01 	sts	0x01B3, r24
    10a0:	80 91 7d 01 	lds	r24, 0x017D
    10a4:	88 23       	and	r24, r24
    10a6:	21 f4       	brne	.+8      	; 0x10b0 <__vector_11+0x84>
    10a8:	80 91 83 01 	lds	r24, 0x0183
    10ac:	88 23       	and	r24, r24
    10ae:	11 f0       	breq	.+4      	; 0x10b4 <__vector_11+0x88>
    10b0:	81 e0       	ldi	r24, 0x01	; 1
    10b2:	01 c0       	rjmp	.+2      	; 0x10b6 <__vector_11+0x8a>
    10b4:	80 e0       	ldi	r24, 0x00	; 0
    10b6:	88 23       	and	r24, r24
    10b8:	49 f0       	breq	.+18     	; 0x10cc <__vector_11+0xa0>
    10ba:	80 91 b5 01 	lds	r24, 0x01B5
    10be:	90 91 b6 01 	lds	r25, 0x01B6
    10c2:	01 96       	adiw	r24, 0x01	; 1
    10c4:	90 93 b6 01 	sts	0x01B6, r25
    10c8:	80 93 b5 01 	sts	0x01B5, r24
    10cc:	80 91 b5 01 	lds	r24, 0x01B5
    10d0:	90 91 b6 01 	lds	r25, 0x01B6
    10d4:	8a 30       	cpi	r24, 0x0A	; 10
    10d6:	91 05       	cpc	r25, r1
    10d8:	54 f0       	brlt	.+20     	; 0x10ee <__vector_11+0xc2>
    10da:	80 91 7d 01 	lds	r24, 0x017D
    10de:	88 23       	and	r24, r24
    10e0:	21 f4       	brne	.+8      	; 0x10ea <__vector_11+0xbe>
    10e2:	80 91 83 01 	lds	r24, 0x0183
    10e6:	88 23       	and	r24, r24
    10e8:	11 f0       	breq	.+4      	; 0x10ee <__vector_11+0xc2>
    10ea:	81 e0       	ldi	r24, 0x01	; 1
    10ec:	01 c0       	rjmp	.+2      	; 0x10f0 <__vector_11+0xc4>
    10ee:	80 e0       	ldi	r24, 0x00	; 0
    10f0:	88 23       	and	r24, r24
    10f2:	b9 f0       	breq	.+46     	; 0x1122 <__stack+0x23>
    10f4:	10 92 b6 01 	sts	0x01B6, r1
    10f8:	10 92 b5 01 	sts	0x01B5, r1
    10fc:	10 92 7d 01 	sts	0x017D, r1
    1100:	10 92 83 01 	sts	0x0183, r1
    1104:	8b e6       	ldi	r24, 0x6B	; 107
    1106:	90 e0       	ldi	r25, 0x00	; 0
    1108:	2b e6       	ldi	r18, 0x6B	; 107
    110a:	30 e0       	ldi	r19, 0x00	; 0
    110c:	f9 01       	movw	r30, r18
    110e:	20 81       	ld	r18, Z
    1110:	21 60       	ori	r18, 0x01	; 1
    1112:	fc 01       	movw	r30, r24
    1114:	20 83       	st	Z, r18
    1116:	8d e3       	ldi	r24, 0x3D	; 61
    1118:	90 e0       	ldi	r25, 0x00	; 0
    111a:	24 e0       	ldi	r18, 0x04	; 4
    111c:	fc 01       	movw	r30, r24
    111e:	20 83       	st	Z, r18
    1120:	1a c0       	rjmp	.+52     	; 0x1156 <__stack+0x57>
    1122:	80 91 7d 01 	lds	r24, 0x017D
    1126:	88 23       	and	r24, r24
    1128:	69 f4       	brne	.+26     	; 0x1144 <__stack+0x45>
    112a:	80 91 83 01 	lds	r24, 0x0183
    112e:	88 23       	and	r24, r24
    1130:	49 f4       	brne	.+18     	; 0x1144 <__stack+0x45>
    1132:	80 91 b5 01 	lds	r24, 0x01B5
    1136:	90 91 b6 01 	lds	r25, 0x01B6
    113a:	18 16       	cp	r1, r24
    113c:	19 06       	cpc	r1, r25
    113e:	14 f4       	brge	.+4      	; 0x1144 <__stack+0x45>
    1140:	81 e0       	ldi	r24, 0x01	; 1
    1142:	01 c0       	rjmp	.+2      	; 0x1146 <__stack+0x47>
    1144:	80 e0       	ldi	r24, 0x00	; 0
    1146:	88 23       	and	r24, r24
    1148:	29 f0       	breq	.+10     	; 0x1154 <__stack+0x55>
    114a:	10 92 b6 01 	sts	0x01B6, r1
    114e:	10 92 b5 01 	sts	0x01B5, r1
    1152:	01 c0       	rjmp	.+2      	; 0x1156 <__stack+0x57>
    1154:	00 00       	nop
    1156:	80 91 b3 01 	lds	r24, 0x01B3
    115a:	90 91 b4 01 	lds	r25, 0x01B4
    115e:	8a 30       	cpi	r24, 0x0A	; 10
    1160:	91 05       	cpc	r25, r1
    1162:	54 f0       	brlt	.+20     	; 0x1178 <__stack+0x79>
    1164:	80 91 7e 01 	lds	r24, 0x017E
    1168:	88 23       	and	r24, r24
    116a:	21 f4       	brne	.+8      	; 0x1174 <__stack+0x75>
    116c:	80 91 84 01 	lds	r24, 0x0184
    1170:	88 23       	and	r24, r24
    1172:	11 f0       	breq	.+4      	; 0x1178 <__stack+0x79>
    1174:	81 e0       	ldi	r24, 0x01	; 1
    1176:	01 c0       	rjmp	.+2      	; 0x117a <__stack+0x7b>
    1178:	80 e0       	ldi	r24, 0x00	; 0
    117a:	88 23       	and	r24, r24
    117c:	b9 f0       	breq	.+46     	; 0x11ac <__stack+0xad>
    117e:	10 92 b4 01 	sts	0x01B4, r1
    1182:	10 92 b3 01 	sts	0x01B3, r1
    1186:	10 92 7e 01 	sts	0x017E, r1
    118a:	10 92 84 01 	sts	0x0184, r1
    118e:	8d e3       	ldi	r24, 0x3D	; 61
    1190:	90 e0       	ldi	r25, 0x00	; 0
    1192:	24 e0       	ldi	r18, 0x04	; 4
    1194:	fc 01       	movw	r30, r24
    1196:	20 83       	st	Z, r18
    1198:	8b e6       	ldi	r24, 0x6B	; 107
    119a:	90 e0       	ldi	r25, 0x00	; 0
    119c:	2b e6       	ldi	r18, 0x6B	; 107
    119e:	30 e0       	ldi	r19, 0x00	; 0
    11a0:	f9 01       	movw	r30, r18
    11a2:	20 81       	ld	r18, Z
    11a4:	21 60       	ori	r18, 0x01	; 1
    11a6:	fc 01       	movw	r30, r24
    11a8:	20 83       	st	Z, r18
    11aa:	1a c0       	rjmp	.+52     	; 0x11e0 <__stack+0xe1>
    11ac:	80 91 7e 01 	lds	r24, 0x017E
    11b0:	88 23       	and	r24, r24
    11b2:	69 f4       	brne	.+26     	; 0x11ce <__stack+0xcf>
    11b4:	80 91 84 01 	lds	r24, 0x0184
    11b8:	88 23       	and	r24, r24
    11ba:	49 f4       	brne	.+18     	; 0x11ce <__stack+0xcf>
    11bc:	80 91 b3 01 	lds	r24, 0x01B3
    11c0:	90 91 b4 01 	lds	r25, 0x01B4
    11c4:	18 16       	cp	r1, r24
    11c6:	19 06       	cpc	r1, r25
    11c8:	14 f4       	brge	.+4      	; 0x11ce <__stack+0xcf>
    11ca:	81 e0       	ldi	r24, 0x01	; 1
    11cc:	01 c0       	rjmp	.+2      	; 0x11d0 <__stack+0xd1>
    11ce:	80 e0       	ldi	r24, 0x00	; 0
    11d0:	88 23       	and	r24, r24
    11d2:	29 f0       	breq	.+10     	; 0x11de <__stack+0xdf>
    11d4:	10 92 b4 01 	sts	0x01B4, r1
    11d8:	10 92 b3 01 	sts	0x01B3, r1
    11dc:	01 c0       	rjmp	.+2      	; 0x11e0 <__stack+0xe1>
    11de:	00 00       	nop
    11e0:	90 91 7c 01 	lds	r25, 0x017C
    11e4:	81 e0       	ldi	r24, 0x01	; 1
    11e6:	99 23       	and	r25, r25
    11e8:	09 f4       	brne	.+2      	; 0x11ec <__stack+0xed>
    11ea:	80 e0       	ldi	r24, 0x00	; 0
    11ec:	88 23       	and	r24, r24
    11ee:	b9 f0       	breq	.+46     	; 0x121e <__stack+0x11f>
    11f0:	80 91 85 01 	lds	r24, 0x0185
    11f4:	90 91 86 01 	lds	r25, 0x0186
    11f8:	01 96       	adiw	r24, 0x01	; 1
    11fa:	90 93 86 01 	sts	0x0186, r25
    11fe:	80 93 85 01 	sts	0x0185, r24
    1202:	80 91 85 01 	lds	r24, 0x0185
    1206:	90 91 86 01 	lds	r25, 0x0186
    120a:	21 e0       	ldi	r18, 0x01	; 1
    120c:	84 32       	cpi	r24, 0x24	; 36
    120e:	91 05       	cpc	r25, r1
    1210:	0c f4       	brge	.+2      	; 0x1214 <__stack+0x115>
    1212:	20 e0       	ldi	r18, 0x00	; 0
    1214:	22 23       	and	r18, r18
    1216:	29 f0       	breq	.+10     	; 0x1222 <__stack+0x123>
    1218:	10 92 7c 01 	sts	0x017C, r1
    121c:	02 c0       	rjmp	.+4      	; 0x1222 <__stack+0x123>
    121e:	80 91 7c 01 	lds	r24, 0x017C
    1222:	df 91       	pop	r29
    1224:	cf 91       	pop	r28
    1226:	ff 91       	pop	r31
    1228:	ef 91       	pop	r30
    122a:	bf 91       	pop	r27
    122c:	af 91       	pop	r26
    122e:	9f 91       	pop	r25
    1230:	8f 91       	pop	r24
    1232:	7f 91       	pop	r23
    1234:	6f 91       	pop	r22
    1236:	5f 91       	pop	r21
    1238:	4f 91       	pop	r20
    123a:	3f 91       	pop	r19
    123c:	2f 91       	pop	r18
    123e:	0f 90       	pop	r0
    1240:	0f be       	out	0x3f, r0	; 63
    1242:	0f 90       	pop	r0
    1244:	1f 90       	pop	r1
    1246:	18 95       	reti

00001248 <__vector_20>:
    1248:	1f 92       	push	r1
    124a:	0f 92       	push	r0
    124c:	0f b6       	in	r0, 0x3f	; 63
    124e:	0f 92       	push	r0
    1250:	11 24       	eor	r1, r1
    1252:	2f 93       	push	r18
    1254:	3f 93       	push	r19
    1256:	8f 93       	push	r24
    1258:	9f 93       	push	r25
    125a:	ef 93       	push	r30
    125c:	ff 93       	push	r31
    125e:	cf 93       	push	r28
    1260:	df 93       	push	r29
    1262:	cd b7       	in	r28, 0x3d	; 61
    1264:	de b7       	in	r29, 0x3e	; 62
    1266:	10 92 84 01 	sts	0x0184, r1
    126a:	81 ec       	ldi	r24, 0xC1	; 193
    126c:	90 e0       	ldi	r25, 0x00	; 0
    126e:	21 ec       	ldi	r18, 0xC1	; 193
    1270:	30 e0       	ldi	r19, 0x00	; 0
    1272:	f9 01       	movw	r30, r18
    1274:	20 81       	ld	r18, Z
    1276:	2f 77       	andi	r18, 0x7F	; 127
    1278:	fc 01       	movw	r30, r24
    127a:	20 83       	st	Z, r18
    127c:	81 e0       	ldi	r24, 0x01	; 1
    127e:	80 93 7e 01 	sts	0x017E, r24
    1282:	df 91       	pop	r29
    1284:	cf 91       	pop	r28
    1286:	ff 91       	pop	r31
    1288:	ef 91       	pop	r30
    128a:	9f 91       	pop	r25
    128c:	8f 91       	pop	r24
    128e:	3f 91       	pop	r19
    1290:	2f 91       	pop	r18
    1292:	0f 90       	pop	r0
    1294:	0f be       	out	0x3f, r0	; 63
    1296:	0f 90       	pop	r0
    1298:	1f 90       	pop	r1
    129a:	18 95       	reti

0000129c <__vector_28>:
    129c:	1f 92       	push	r1
    129e:	0f 92       	push	r0
    12a0:	0f b6       	in	r0, 0x3f	; 63
    12a2:	0f 92       	push	r0
    12a4:	11 24       	eor	r1, r1
    12a6:	2f 93       	push	r18
    12a8:	3f 93       	push	r19
    12aa:	8f 93       	push	r24
    12ac:	9f 93       	push	r25
    12ae:	ef 93       	push	r30
    12b0:	ff 93       	push	r31
    12b2:	cf 93       	push	r28
    12b4:	df 93       	push	r29
    12b6:	cd b7       	in	r28, 0x3d	; 61
    12b8:	de b7       	in	r29, 0x3e	; 62
    12ba:	10 92 83 01 	sts	0x0183, r1
    12be:	89 ec       	ldi	r24, 0xC9	; 201
    12c0:	90 e0       	ldi	r25, 0x00	; 0
    12c2:	29 ec       	ldi	r18, 0xC9	; 201
    12c4:	30 e0       	ldi	r19, 0x00	; 0
    12c6:	f9 01       	movw	r30, r18
    12c8:	20 81       	ld	r18, Z
    12ca:	2f 77       	andi	r18, 0x7F	; 127
    12cc:	fc 01       	movw	r30, r24
    12ce:	20 83       	st	Z, r18
    12d0:	81 e0       	ldi	r24, 0x01	; 1
    12d2:	80 93 7d 01 	sts	0x017D, r24
    12d6:	df 91       	pop	r29
    12d8:	cf 91       	pop	r28
    12da:	ff 91       	pop	r31
    12dc:	ef 91       	pop	r30
    12de:	9f 91       	pop	r25
    12e0:	8f 91       	pop	r24
    12e2:	3f 91       	pop	r19
    12e4:	2f 91       	pop	r18
    12e6:	0f 90       	pop	r0
    12e8:	0f be       	out	0x3f, r0	; 63
    12ea:	0f 90       	pop	r0
    12ec:	1f 90       	pop	r1
    12ee:	18 95       	reti

000012f0 <main>:
    12f0:	cf 93       	push	r28
    12f2:	df 93       	push	r29
    12f4:	cd b7       	in	r28, 0x3d	; 61
    12f6:	de b7       	in	r29, 0x3e	; 62
    12f8:	0e 94 9d 0a 	call	0x153a	; 0x153a <_Z10DeviceInitv>
    12fc:	81 e8       	ldi	r24, 0x81	; 129
    12fe:	90 e0       	ldi	r25, 0x00	; 0
    1300:	0e 94 bc 0a 	call	0x1578	; 0x1578 <_Z7AppInitj>
    1304:	0e 94 65 0b 	call	0x16ca	; 0x16ca <_Z14EnableRTCTimerv>
    1308:	81 e0       	ldi	r24, 0x01	; 1
    130a:	61 e0       	ldi	r22, 0x01	; 1
    130c:	0e 94 3f 06 	call	0xc7e	; 0xc7e <_Z18getDateTime_eepromhh>
    1310:	78 94       	sei
    1312:	01 c0       	rjmp	.+2      	; 0x1316 <main+0x26>
    1314:	00 00       	nop
    1316:	90 91 7c 01 	lds	r25, 0x017C
    131a:	81 e0       	ldi	r24, 0x01	; 1
    131c:	99 23       	and	r25, r25
    131e:	09 f4       	brne	.+2      	; 0x1322 <main+0x32>
    1320:	80 e0       	ldi	r24, 0x00	; 0
    1322:	88 23       	and	r24, r24
    1324:	d1 f0       	breq	.+52     	; 0x135a <main+0x6a>
    1326:	80 91 85 01 	lds	r24, 0x0185
    132a:	90 91 86 01 	lds	r25, 0x0186
    132e:	21 e0       	ldi	r18, 0x01	; 1
    1330:	8f 31       	cpi	r24, 0x1F	; 31
    1332:	91 05       	cpc	r25, r1
    1334:	0c f4       	brge	.+2      	; 0x1338 <main+0x48>
    1336:	20 e0       	ldi	r18, 0x00	; 0
    1338:	22 23       	and	r18, r18
    133a:	11 f1       	breq	.+68     	; 0x1380 <main+0x90>
    133c:	81 e0       	ldi	r24, 0x01	; 1
    133e:	80 93 80 01 	sts	0x0180, r24
    1342:	81 e0       	ldi	r24, 0x01	; 1
    1344:	80 93 7f 01 	sts	0x017F, r24
    1348:	81 e0       	ldi	r24, 0x01	; 1
    134a:	80 93 82 01 	sts	0x0182, r24
    134e:	81 e0       	ldi	r24, 0x01	; 1
    1350:	80 93 81 01 	sts	0x0181, r24
    1354:	10 92 7c 01 	sts	0x017C, r1
    1358:	13 c0       	rjmp	.+38     	; 0x1380 <main+0x90>
    135a:	90 91 7c 01 	lds	r25, 0x017C
    135e:	81 e0       	ldi	r24, 0x01	; 1
    1360:	99 23       	and	r25, r25
    1362:	09 f0       	breq	.+2      	; 0x1366 <main+0x76>
    1364:	80 e0       	ldi	r24, 0x00	; 0
    1366:	88 23       	and	r24, r24
    1368:	51 f0       	breq	.+20     	; 0x137e <main+0x8e>
    136a:	88 e2       	ldi	r24, 0x28	; 40
    136c:	90 e0       	ldi	r25, 0x00	; 0
    136e:	28 e2       	ldi	r18, 0x28	; 40
    1370:	30 e0       	ldi	r19, 0x00	; 0
    1372:	f9 01       	movw	r30, r18
    1374:	20 81       	ld	r18, Z
    1376:	27 7f       	andi	r18, 0xF7	; 247
    1378:	fc 01       	movw	r30, r24
    137a:	20 83       	st	Z, r18
    137c:	01 c0       	rjmp	.+2      	; 0x1380 <main+0x90>
    137e:	00 00       	nop
    1380:	90 91 7d 01 	lds	r25, 0x017D
    1384:	81 e0       	ldi	r24, 0x01	; 1
    1386:	99 23       	and	r25, r25
    1388:	09 f4       	brne	.+2      	; 0x138c <main+0x9c>
    138a:	80 e0       	ldi	r24, 0x00	; 0
    138c:	88 23       	and	r24, r24
    138e:	61 f1       	breq	.+88     	; 0x13e8 <main+0xf8>
    1390:	88 e2       	ldi	r24, 0x28	; 40
    1392:	90 e0       	ldi	r25, 0x00	; 0
    1394:	28 e2       	ldi	r18, 0x28	; 40
    1396:	30 e0       	ldi	r19, 0x00	; 0
    1398:	f9 01       	movw	r30, r18
    139a:	20 81       	ld	r18, Z
    139c:	22 60       	ori	r18, 0x02	; 2
    139e:	fc 01       	movw	r30, r24
    13a0:	20 83       	st	Z, r18
    13a2:	0e 94 a2 0c 	call	0x1944	; 0x1944 <_Z11ReceiveWAVRv>
    13a6:	88 e2       	ldi	r24, 0x28	; 40
    13a8:	90 e0       	ldi	r25, 0x00	; 0
    13aa:	28 e2       	ldi	r18, 0x28	; 40
    13ac:	30 e0       	ldi	r19, 0x00	; 0
    13ae:	f9 01       	movw	r30, r18
    13b0:	20 81       	ld	r18, Z
    13b2:	2d 7f       	andi	r18, 0xFD	; 253
    13b4:	fc 01       	movw	r30, r24
    13b6:	20 83       	st	Z, r18
    13b8:	90 91 7e 01 	lds	r25, 0x017E
    13bc:	81 e0       	ldi	r24, 0x01	; 1
    13be:	99 23       	and	r25, r25
    13c0:	09 f0       	breq	.+2      	; 0x13c4 <main+0xd4>
    13c2:	80 e0       	ldi	r24, 0x00	; 0
    13c4:	88 23       	and	r24, r24
    13c6:	71 f0       	breq	.+28     	; 0x13e4 <main+0xf4>
    13c8:	8b e6       	ldi	r24, 0x6B	; 107
    13ca:	90 e0       	ldi	r25, 0x00	; 0
    13cc:	2b e6       	ldi	r18, 0x6B	; 107
    13ce:	30 e0       	ldi	r19, 0x00	; 0
    13d0:	f9 01       	movw	r30, r18
    13d2:	20 81       	ld	r18, Z
    13d4:	21 60       	ori	r18, 0x01	; 1
    13d6:	fc 01       	movw	r30, r24
    13d8:	20 83       	st	Z, r18
    13da:	8d e3       	ldi	r24, 0x3D	; 61
    13dc:	90 e0       	ldi	r25, 0x00	; 0
    13de:	24 e0       	ldi	r18, 0x04	; 4
    13e0:	fc 01       	movw	r30, r24
    13e2:	20 83       	st	Z, r18
    13e4:	10 92 7d 01 	sts	0x017D, r1
    13e8:	90 91 7e 01 	lds	r25, 0x017E
    13ec:	81 e0       	ldi	r24, 0x01	; 1
    13ee:	99 23       	and	r25, r25
    13f0:	09 f4       	brne	.+2      	; 0x13f4 <main+0x104>
    13f2:	80 e0       	ldi	r24, 0x00	; 0
    13f4:	88 23       	and	r24, r24
    13f6:	61 f1       	breq	.+88     	; 0x1450 <main+0x160>
    13f8:	88 e2       	ldi	r24, 0x28	; 40
    13fa:	90 e0       	ldi	r25, 0x00	; 0
    13fc:	28 e2       	ldi	r18, 0x28	; 40
    13fe:	30 e0       	ldi	r19, 0x00	; 0
    1400:	f9 01       	movw	r30, r18
    1402:	20 81       	ld	r18, Z
    1404:	24 60       	ori	r18, 0x04	; 4
    1406:	fc 01       	movw	r30, r24
    1408:	20 83       	st	Z, r18
    140a:	0e 94 07 13 	call	0x260e	; 0x260e <_Z11ReceiveBonev>
    140e:	88 e2       	ldi	r24, 0x28	; 40
    1410:	90 e0       	ldi	r25, 0x00	; 0
    1412:	28 e2       	ldi	r18, 0x28	; 40
    1414:	30 e0       	ldi	r19, 0x00	; 0
    1416:	f9 01       	movw	r30, r18
    1418:	20 81       	ld	r18, Z
    141a:	2b 7f       	andi	r18, 0xFB	; 251
    141c:	fc 01       	movw	r30, r24
    141e:	20 83       	st	Z, r18
    1420:	90 91 7d 01 	lds	r25, 0x017D
    1424:	81 e0       	ldi	r24, 0x01	; 1
    1426:	99 23       	and	r25, r25
    1428:	09 f0       	breq	.+2      	; 0x142c <main+0x13c>
    142a:	80 e0       	ldi	r24, 0x00	; 0
    142c:	88 23       	and	r24, r24
    142e:	71 f0       	breq	.+28     	; 0x144c <main+0x15c>
    1430:	8b e6       	ldi	r24, 0x6B	; 107
    1432:	90 e0       	ldi	r25, 0x00	; 0
    1434:	2b e6       	ldi	r18, 0x6B	; 107
    1436:	30 e0       	ldi	r19, 0x00	; 0
    1438:	f9 01       	movw	r30, r18
    143a:	20 81       	ld	r18, Z
    143c:	21 60       	ori	r18, 0x01	; 1
    143e:	fc 01       	movw	r30, r24
    1440:	20 83       	st	Z, r18
    1442:	8d e3       	ldi	r24, 0x3D	; 61
    1444:	90 e0       	ldi	r25, 0x00	; 0
    1446:	24 e0       	ldi	r18, 0x04	; 4
    1448:	fc 01       	movw	r30, r24
    144a:	20 83       	st	Z, r18
    144c:	10 92 7e 01 	sts	0x017E, r1
    1450:	80 91 7f 01 	lds	r24, 0x017F
    1454:	88 23       	and	r24, r24
    1456:	21 f4       	brne	.+8      	; 0x1460 <main+0x170>
    1458:	80 91 80 01 	lds	r24, 0x0180
    145c:	88 23       	and	r24, r24
    145e:	11 f0       	breq	.+4      	; 0x1464 <main+0x174>
    1460:	81 e0       	ldi	r24, 0x01	; 1
    1462:	01 c0       	rjmp	.+2      	; 0x1466 <main+0x176>
    1464:	80 e0       	ldi	r24, 0x00	; 0
    1466:	88 23       	and	r24, r24
    1468:	09 f4       	brne	.+2      	; 0x146c <main+0x17c>
    146a:	54 cf       	rjmp	.-344    	; 0x1314 <main+0x24>
    146c:	80 91 7f 01 	lds	r24, 0x017F
    1470:	88 23       	and	r24, r24
    1472:	31 f0       	breq	.+12     	; 0x1480 <main+0x190>
    1474:	80 91 80 01 	lds	r24, 0x0180
    1478:	88 23       	and	r24, r24
    147a:	11 f0       	breq	.+4      	; 0x1480 <main+0x190>
    147c:	81 e0       	ldi	r24, 0x01	; 1
    147e:	01 c0       	rjmp	.+2      	; 0x1482 <main+0x192>
    1480:	80 e0       	ldi	r24, 0x00	; 0
    1482:	88 23       	and	r24, r24
    1484:	d9 f0       	breq	.+54     	; 0x14bc <main+0x1cc>
    1486:	88 e2       	ldi	r24, 0x28	; 40
    1488:	90 e0       	ldi	r25, 0x00	; 0
    148a:	28 e2       	ldi	r18, 0x28	; 40
    148c:	30 e0       	ldi	r19, 0x00	; 0
    148e:	f9 01       	movw	r30, r18
    1490:	20 81       	ld	r18, Z
    1492:	20 63       	ori	r18, 0x30	; 48
    1494:	fc 01       	movw	r30, r24
    1496:	20 83       	st	Z, r18
    1498:	83 e0       	ldi	r24, 0x03	; 3
    149a:	90 e0       	ldi	r25, 0x00	; 0
    149c:	0e 94 d4 0b 	call	0x17a8	; 0x17a8 <_Z8Wait_seci>
    14a0:	10 92 80 01 	sts	0x0180, r1
    14a4:	10 92 7f 01 	sts	0x017F, r1
    14a8:	88 e2       	ldi	r24, 0x28	; 40
    14aa:	90 e0       	ldi	r25, 0x00	; 0
    14ac:	28 e2       	ldi	r18, 0x28	; 40
    14ae:	30 e0       	ldi	r19, 0x00	; 0
    14b0:	f9 01       	movw	r30, r18
    14b2:	20 81       	ld	r18, Z
    14b4:	2f 7c       	andi	r18, 0xCF	; 207
    14b6:	fc 01       	movw	r30, r24
    14b8:	20 83       	st	Z, r18
    14ba:	2c cf       	rjmp	.-424    	; 0x1314 <main+0x24>
    14bc:	80 91 7f 01 	lds	r24, 0x017F
    14c0:	88 23       	and	r24, r24
    14c2:	31 f0       	breq	.+12     	; 0x14d0 <main+0x1e0>
    14c4:	80 91 80 01 	lds	r24, 0x0180
    14c8:	88 23       	and	r24, r24
    14ca:	11 f4       	brne	.+4      	; 0x14d0 <main+0x1e0>
    14cc:	81 e0       	ldi	r24, 0x01	; 1
    14ce:	01 c0       	rjmp	.+2      	; 0x14d2 <main+0x1e2>
    14d0:	80 e0       	ldi	r24, 0x00	; 0
    14d2:	88 23       	and	r24, r24
    14d4:	c9 f0       	breq	.+50     	; 0x1508 <main+0x218>
    14d6:	88 e2       	ldi	r24, 0x28	; 40
    14d8:	90 e0       	ldi	r25, 0x00	; 0
    14da:	28 e2       	ldi	r18, 0x28	; 40
    14dc:	30 e0       	ldi	r19, 0x00	; 0
    14de:	f9 01       	movw	r30, r18
    14e0:	20 81       	ld	r18, Z
    14e2:	20 61       	ori	r18, 0x10	; 16
    14e4:	fc 01       	movw	r30, r24
    14e6:	20 83       	st	Z, r18
    14e8:	83 e0       	ldi	r24, 0x03	; 3
    14ea:	90 e0       	ldi	r25, 0x00	; 0
    14ec:	0e 94 d4 0b 	call	0x17a8	; 0x17a8 <_Z8Wait_seci>
    14f0:	10 92 7f 01 	sts	0x017F, r1
    14f4:	88 e2       	ldi	r24, 0x28	; 40
    14f6:	90 e0       	ldi	r25, 0x00	; 0
    14f8:	28 e2       	ldi	r18, 0x28	; 40
    14fa:	30 e0       	ldi	r19, 0x00	; 0
    14fc:	f9 01       	movw	r30, r18
    14fe:	20 81       	ld	r18, Z
    1500:	2f 7e       	andi	r18, 0xEF	; 239
    1502:	fc 01       	movw	r30, r24
    1504:	20 83       	st	Z, r18
    1506:	06 cf       	rjmp	.-500    	; 0x1314 <main+0x24>
    1508:	88 e2       	ldi	r24, 0x28	; 40
    150a:	90 e0       	ldi	r25, 0x00	; 0
    150c:	28 e2       	ldi	r18, 0x28	; 40
    150e:	30 e0       	ldi	r19, 0x00	; 0
    1510:	f9 01       	movw	r30, r18
    1512:	20 81       	ld	r18, Z
    1514:	20 62       	ori	r18, 0x20	; 32
    1516:	fc 01       	movw	r30, r24
    1518:	20 83       	st	Z, r18
    151a:	83 e0       	ldi	r24, 0x03	; 3
    151c:	90 e0       	ldi	r25, 0x00	; 0
    151e:	0e 94 d4 0b 	call	0x17a8	; 0x17a8 <_Z8Wait_seci>
    1522:	10 92 80 01 	sts	0x0180, r1
    1526:	88 e2       	ldi	r24, 0x28	; 40
    1528:	90 e0       	ldi	r25, 0x00	; 0
    152a:	28 e2       	ldi	r18, 0x28	; 40
    152c:	30 e0       	ldi	r19, 0x00	; 0
    152e:	f9 01       	movw	r30, r18
    1530:	20 81       	ld	r18, Z
    1532:	2f 7d       	andi	r18, 0xDF	; 223
    1534:	fc 01       	movw	r30, r24
    1536:	20 83       	st	Z, r18
    1538:	ed ce       	rjmp	.-550    	; 0x1314 <main+0x24>

0000153a <_Z10DeviceInitv>:
    153a:	cf 93       	push	r28
    153c:	df 93       	push	r29
    153e:	cd b7       	in	r28, 0x3d	; 61
    1540:	de b7       	in	r29, 0x3e	; 62
    1542:	84 e2       	ldi	r24, 0x24	; 36
    1544:	90 e0       	ldi	r25, 0x00	; 0
    1546:	fc 01       	movw	r30, r24
    1548:	10 82       	st	Z, r1
    154a:	87 e2       	ldi	r24, 0x27	; 39
    154c:	90 e0       	ldi	r25, 0x00	; 0
    154e:	fc 01       	movw	r30, r24
    1550:	10 82       	st	Z, r1
    1552:	8a e2       	ldi	r24, 0x2A	; 42
    1554:	90 e0       	ldi	r25, 0x00	; 0
    1556:	fc 01       	movw	r30, r24
    1558:	10 82       	st	Z, r1
    155a:	85 e2       	ldi	r24, 0x25	; 37
    155c:	90 e0       	ldi	r25, 0x00	; 0
    155e:	fc 01       	movw	r30, r24
    1560:	10 82       	st	Z, r1
    1562:	88 e2       	ldi	r24, 0x28	; 40
    1564:	90 e0       	ldi	r25, 0x00	; 0
    1566:	fc 01       	movw	r30, r24
    1568:	10 82       	st	Z, r1
    156a:	8b e2       	ldi	r24, 0x2B	; 43
    156c:	90 e0       	ldi	r25, 0x00	; 0
    156e:	fc 01       	movw	r30, r24
    1570:	10 82       	st	Z, r1
    1572:	df 91       	pop	r29
    1574:	cf 91       	pop	r28
    1576:	08 95       	ret

00001578 <_Z7AppInitj>:
    1578:	cf 93       	push	r28
    157a:	df 93       	push	r29
    157c:	00 d0       	rcall	.+0      	; 0x157e <_Z7AppInitj+0x6>
    157e:	cd b7       	in	r28, 0x3d	; 61
    1580:	de b7       	in	r29, 0x3e	; 62
    1582:	9a 83       	std	Y+2, r25	; 0x02
    1584:	89 83       	std	Y+1, r24	; 0x01
    1586:	84 ec       	ldi	r24, 0xC4	; 196
    1588:	90 e0       	ldi	r25, 0x00	; 0
    158a:	29 81       	ldd	r18, Y+1	; 0x01
    158c:	fc 01       	movw	r30, r24
    158e:	20 83       	st	Z, r18
    1590:	85 ec       	ldi	r24, 0xC5	; 197
    1592:	90 e0       	ldi	r25, 0x00	; 0
    1594:	29 81       	ldd	r18, Y+1	; 0x01
    1596:	3a 81       	ldd	r19, Y+2	; 0x02
    1598:	23 2f       	mov	r18, r19
    159a:	33 27       	eor	r19, r19
    159c:	fc 01       	movw	r30, r24
    159e:	20 83       	st	Z, r18
    15a0:	8c ec       	ldi	r24, 0xCC	; 204
    15a2:	90 e0       	ldi	r25, 0x00	; 0
    15a4:	29 81       	ldd	r18, Y+1	; 0x01
    15a6:	fc 01       	movw	r30, r24
    15a8:	20 83       	st	Z, r18
    15aa:	8d ec       	ldi	r24, 0xCD	; 205
    15ac:	90 e0       	ldi	r25, 0x00	; 0
    15ae:	29 81       	ldd	r18, Y+1	; 0x01
    15b0:	3a 81       	ldd	r19, Y+2	; 0x02
    15b2:	23 2f       	mov	r18, r19
    15b4:	33 27       	eor	r19, r19
    15b6:	fc 01       	movw	r30, r24
    15b8:	20 83       	st	Z, r18
    15ba:	81 ec       	ldi	r24, 0xC1	; 193
    15bc:	90 e0       	ldi	r25, 0x00	; 0
    15be:	28 e1       	ldi	r18, 0x18	; 24
    15c0:	fc 01       	movw	r30, r24
    15c2:	20 83       	st	Z, r18
    15c4:	82 ec       	ldi	r24, 0xC2	; 194
    15c6:	90 e0       	ldi	r25, 0x00	; 0
    15c8:	26 e0       	ldi	r18, 0x06	; 6
    15ca:	fc 01       	movw	r30, r24
    15cc:	20 83       	st	Z, r18
    15ce:	89 ec       	ldi	r24, 0xC9	; 201
    15d0:	90 e0       	ldi	r25, 0x00	; 0
    15d2:	28 e1       	ldi	r18, 0x18	; 24
    15d4:	fc 01       	movw	r30, r24
    15d6:	20 83       	st	Z, r18
    15d8:	8a ec       	ldi	r24, 0xCA	; 202
    15da:	90 e0       	ldi	r25, 0x00	; 0
    15dc:	26 e0       	ldi	r18, 0x06	; 6
    15de:	fc 01       	movw	r30, r24
    15e0:	20 83       	st	Z, r18
    15e2:	87 e2       	ldi	r24, 0x27	; 39
    15e4:	90 e0       	ldi	r25, 0x00	; 0
    15e6:	27 e2       	ldi	r18, 0x27	; 39
    15e8:	30 e0       	ldi	r19, 0x00	; 0
    15ea:	f9 01       	movw	r30, r18
    15ec:	20 81       	ld	r18, Z
    15ee:	2a 63       	ori	r18, 0x3A	; 58
    15f0:	fc 01       	movw	r30, r24
    15f2:	20 83       	st	Z, r18
    15f4:	88 e2       	ldi	r24, 0x28	; 40
    15f6:	90 e0       	ldi	r25, 0x00	; 0
    15f8:	28 e2       	ldi	r18, 0x28	; 40
    15fa:	30 e0       	ldi	r19, 0x00	; 0
    15fc:	f9 01       	movw	r30, r18
    15fe:	20 81       	ld	r18, Z
    1600:	2d 7c       	andi	r18, 0xCD	; 205
    1602:	fc 01       	movw	r30, r24
    1604:	20 83       	st	Z, r18
    1606:	88 e2       	ldi	r24, 0x28	; 40
    1608:	90 e0       	ldi	r25, 0x00	; 0
    160a:	28 e2       	ldi	r18, 0x28	; 40
    160c:	30 e0       	ldi	r19, 0x00	; 0
    160e:	f9 01       	movw	r30, r18
    1610:	20 81       	ld	r18, Z
    1612:	28 60       	ori	r18, 0x08	; 8
    1614:	fc 01       	movw	r30, r24
    1616:	20 83       	st	Z, r18
    1618:	87 e2       	ldi	r24, 0x27	; 39
    161a:	90 e0       	ldi	r25, 0x00	; 0
    161c:	27 e2       	ldi	r18, 0x27	; 39
    161e:	30 e0       	ldi	r19, 0x00	; 0
    1620:	f9 01       	movw	r30, r18
    1622:	20 81       	ld	r18, Z
    1624:	21 60       	ori	r18, 0x01	; 1
    1626:	fc 01       	movw	r30, r24
    1628:	20 83       	st	Z, r18
    162a:	8a e2       	ldi	r24, 0x2A	; 42
    162c:	90 e0       	ldi	r25, 0x00	; 0
    162e:	2a e2       	ldi	r18, 0x2A	; 42
    1630:	30 e0       	ldi	r19, 0x00	; 0
    1632:	f9 01       	movw	r30, r18
    1634:	20 81       	ld	r18, Z
    1636:	20 68       	ori	r18, 0x80	; 128
    1638:	fc 01       	movw	r30, r24
    163a:	20 83       	st	Z, r18
    163c:	8b e2       	ldi	r24, 0x2B	; 43
    163e:	90 e0       	ldi	r25, 0x00	; 0
    1640:	2b e2       	ldi	r18, 0x2B	; 43
    1642:	30 e0       	ldi	r19, 0x00	; 0
    1644:	f9 01       	movw	r30, r18
    1646:	20 81       	ld	r18, Z
    1648:	20 68       	ori	r18, 0x80	; 128
    164a:	fc 01       	movw	r30, r24
    164c:	20 83       	st	Z, r18
    164e:	88 e2       	ldi	r24, 0x28	; 40
    1650:	90 e0       	ldi	r25, 0x00	; 0
    1652:	28 e2       	ldi	r18, 0x28	; 40
    1654:	30 e0       	ldi	r19, 0x00	; 0
    1656:	f9 01       	movw	r30, r18
    1658:	20 81       	ld	r18, Z
    165a:	21 60       	ori	r18, 0x01	; 1
    165c:	fc 01       	movw	r30, r24
    165e:	20 83       	st	Z, r18
    1660:	84 e6       	ldi	r24, 0x64	; 100
    1662:	90 e0       	ldi	r25, 0x00	; 0
    1664:	24 e6       	ldi	r18, 0x64	; 100
    1666:	30 e0       	ldi	r19, 0x00	; 0
    1668:	f9 01       	movw	r30, r18
    166a:	20 81       	ld	r18, Z
    166c:	2d 6e       	ori	r18, 0xED	; 237
    166e:	fc 01       	movw	r30, r24
    1670:	20 83       	st	Z, r18
    1672:	88 e6       	ldi	r24, 0x68	; 104
    1674:	90 e0       	ldi	r25, 0x00	; 0
    1676:	21 e0       	ldi	r18, 0x01	; 1
    1678:	fc 01       	movw	r30, r24
    167a:	20 83       	st	Z, r18
    167c:	8b e6       	ldi	r24, 0x6B	; 107
    167e:	90 e0       	ldi	r25, 0x00	; 0
    1680:	2b e6       	ldi	r18, 0x6B	; 107
    1682:	30 e0       	ldi	r19, 0x00	; 0
    1684:	f9 01       	movw	r30, r18
    1686:	20 81       	ld	r18, Z
    1688:	21 60       	ori	r18, 0x01	; 1
    168a:	fc 01       	movw	r30, r24
    168c:	20 83       	st	Z, r18
    168e:	8d e3       	ldi	r24, 0x3D	; 61
    1690:	90 e0       	ldi	r25, 0x00	; 0
    1692:	24 e0       	ldi	r18, 0x04	; 4
    1694:	fc 01       	movw	r30, r24
    1696:	20 83       	st	Z, r18
    1698:	89 e6       	ldi	r24, 0x69	; 105
    169a:	90 e0       	ldi	r25, 0x00	; 0
    169c:	20 e3       	ldi	r18, 0x30	; 48
    169e:	fc 01       	movw	r30, r24
    16a0:	20 83       	st	Z, r18
    16a2:	81 e0       	ldi	r24, 0x01	; 1
    16a4:	80 93 7c 01 	sts	0x017C, r24
    16a8:	10 92 7d 01 	sts	0x017D, r1
    16ac:	10 92 7e 01 	sts	0x017E, r1
    16b0:	10 92 7f 01 	sts	0x017F, r1
    16b4:	10 92 80 01 	sts	0x0180, r1
    16b8:	10 92 81 01 	sts	0x0181, r1
    16bc:	10 92 82 01 	sts	0x0182, r1
    16c0:	0f 90       	pop	r0
    16c2:	0f 90       	pop	r0
    16c4:	df 91       	pop	r29
    16c6:	cf 91       	pop	r28
    16c8:	08 95       	ret

000016ca <_Z14EnableRTCTimerv>:
    16ca:	cf 93       	push	r28
    16cc:	df 93       	push	r29
    16ce:	cd b7       	in	r28, 0x3d	; 61
    16d0:	de b7       	in	r29, 0x3e	; 62
    16d2:	84 e6       	ldi	r24, 0x64	; 100
    16d4:	90 e0       	ldi	r25, 0x00	; 0
    16d6:	24 e6       	ldi	r18, 0x64	; 100
    16d8:	30 e0       	ldi	r19, 0x00	; 0
    16da:	f9 01       	movw	r30, r18
    16dc:	20 81       	ld	r18, Z
    16de:	2f 7b       	andi	r18, 0xBF	; 191
    16e0:	fc 01       	movw	r30, r24
    16e2:	20 83       	st	Z, r18
    16e4:	81 e0       	ldi	r24, 0x01	; 1
    16e6:	90 e0       	ldi	r25, 0x00	; 0
    16e8:	0e 94 a3 0b 	call	0x1746	; 0x1746 <_Z7Wait_msi>
    16ec:	86 eb       	ldi	r24, 0xB6	; 182
    16ee:	90 e0       	ldi	r25, 0x00	; 0
    16f0:	26 eb       	ldi	r18, 0xB6	; 182
    16f2:	30 e0       	ldi	r19, 0x00	; 0
    16f4:	f9 01       	movw	r30, r18
    16f6:	20 81       	ld	r18, Z
    16f8:	20 62       	ori	r18, 0x20	; 32
    16fa:	fc 01       	movw	r30, r24
    16fc:	20 83       	st	Z, r18
    16fe:	81 eb       	ldi	r24, 0xB1	; 177
    1700:	90 e0       	ldi	r25, 0x00	; 0
    1702:	21 eb       	ldi	r18, 0xB1	; 177
    1704:	30 e0       	ldi	r19, 0x00	; 0
    1706:	f9 01       	movw	r30, r18
    1708:	20 81       	ld	r18, Z
    170a:	25 60       	ori	r18, 0x05	; 5
    170c:	fc 01       	movw	r30, r24
    170e:	20 83       	st	Z, r18
    1710:	86 eb       	ldi	r24, 0xB6	; 182
    1712:	90 e0       	ldi	r25, 0x00	; 0
    1714:	fc 01       	movw	r30, r24
    1716:	80 81       	ld	r24, Z
    1718:	88 2f       	mov	r24, r24
    171a:	90 e0       	ldi	r25, 0x00	; 0
    171c:	81 71       	andi	r24, 0x11	; 17
    171e:	90 70       	andi	r25, 0x00	; 0
    1720:	21 e0       	ldi	r18, 0x01	; 1
    1722:	00 97       	sbiw	r24, 0x00	; 0
    1724:	09 f4       	brne	.+2      	; 0x1728 <_Z14EnableRTCTimerv+0x5e>
    1726:	20 e0       	ldi	r18, 0x00	; 0
    1728:	22 23       	and	r18, r18
    172a:	91 f7       	brne	.-28     	; 0x1710 <_Z14EnableRTCTimerv+0x46>
    172c:	87 e3       	ldi	r24, 0x37	; 55
    172e:	90 e0       	ldi	r25, 0x00	; 0
    1730:	21 e0       	ldi	r18, 0x01	; 1
    1732:	fc 01       	movw	r30, r24
    1734:	20 83       	st	Z, r18
    1736:	80 e7       	ldi	r24, 0x70	; 112
    1738:	90 e0       	ldi	r25, 0x00	; 0
    173a:	21 e0       	ldi	r18, 0x01	; 1
    173c:	fc 01       	movw	r30, r24
    173e:	20 83       	st	Z, r18
    1740:	df 91       	pop	r29
    1742:	cf 91       	pop	r28
    1744:	08 95       	ret

00001746 <_Z7Wait_msi>:
    1746:	cf 93       	push	r28
    1748:	df 93       	push	r29
    174a:	00 d0       	rcall	.+0      	; 0x174c <_Z7Wait_msi+0x6>
    174c:	00 d0       	rcall	.+0      	; 0x174e <_Z7Wait_msi+0x8>
    174e:	cd b7       	in	r28, 0x3d	; 61
    1750:	de b7       	in	r29, 0x3e	; 62
    1752:	9c 83       	std	Y+4, r25	; 0x04
    1754:	8b 83       	std	Y+3, r24	; 0x03
    1756:	18 c0       	rjmp	.+48     	; 0x1788 <_Z7Wait_msi+0x42>
    1758:	1a 82       	std	Y+2, r1	; 0x02
    175a:	19 82       	std	Y+1, r1	; 0x01
    175c:	06 c0       	rjmp	.+12     	; 0x176a <_Z7Wait_msi+0x24>
    175e:	00 00       	nop
    1760:	89 81       	ldd	r24, Y+1	; 0x01
    1762:	9a 81       	ldd	r25, Y+2	; 0x02
    1764:	01 96       	adiw	r24, 0x01	; 1
    1766:	9a 83       	std	Y+2, r25	; 0x02
    1768:	89 83       	std	Y+1, r24	; 0x01
    176a:	89 81       	ldd	r24, Y+1	; 0x01
    176c:	9a 81       	ldd	r25, Y+2	; 0x02
    176e:	21 e0       	ldi	r18, 0x01	; 1
    1770:	33 e0       	ldi	r19, 0x03	; 3
    1772:	80 32       	cpi	r24, 0x20	; 32
    1774:	93 07       	cpc	r25, r19
    1776:	0c f0       	brlt	.+2      	; 0x177a <_Z7Wait_msi+0x34>
    1778:	20 e0       	ldi	r18, 0x00	; 0
    177a:	22 23       	and	r18, r18
    177c:	81 f7       	brne	.-32     	; 0x175e <_Z7Wait_msi+0x18>
    177e:	8b 81       	ldd	r24, Y+3	; 0x03
    1780:	9c 81       	ldd	r25, Y+4	; 0x04
    1782:	01 97       	sbiw	r24, 0x01	; 1
    1784:	9c 83       	std	Y+4, r25	; 0x04
    1786:	8b 83       	std	Y+3, r24	; 0x03
    1788:	8b 81       	ldd	r24, Y+3	; 0x03
    178a:	9c 81       	ldd	r25, Y+4	; 0x04
    178c:	21 e0       	ldi	r18, 0x01	; 1
    178e:	18 16       	cp	r1, r24
    1790:	19 06       	cpc	r1, r25
    1792:	0c f0       	brlt	.+2      	; 0x1796 <_Z7Wait_msi+0x50>
    1794:	20 e0       	ldi	r18, 0x00	; 0
    1796:	22 23       	and	r18, r18
    1798:	f9 f6       	brne	.-66     	; 0x1758 <_Z7Wait_msi+0x12>
    179a:	0f 90       	pop	r0
    179c:	0f 90       	pop	r0
    179e:	0f 90       	pop	r0
    17a0:	0f 90       	pop	r0
    17a2:	df 91       	pop	r29
    17a4:	cf 91       	pop	r28
    17a6:	08 95       	ret

000017a8 <_Z8Wait_seci>:
    17a8:	cf 93       	push	r28
    17aa:	df 93       	push	r29
    17ac:	00 d0       	rcall	.+0      	; 0x17ae <_Z8Wait_seci+0x6>
    17ae:	00 d0       	rcall	.+0      	; 0x17b0 <_Z8Wait_seci+0x8>
    17b0:	00 d0       	rcall	.+0      	; 0x17b2 <_Z8Wait_seci+0xa>
    17b2:	cd b7       	in	r28, 0x3d	; 61
    17b4:	de b7       	in	r29, 0x3e	; 62
    17b6:	9e 83       	std	Y+6, r25	; 0x06
    17b8:	8d 83       	std	Y+5, r24	; 0x05
    17ba:	87 e8       	ldi	r24, 0x87	; 135
    17bc:	91 e0       	ldi	r25, 0x01	; 1
    17be:	0e 94 15 04 	call	0x82a	; 0x82a <_ZN6myTime10getSecondsEv>
    17c2:	88 2f       	mov	r24, r24
    17c4:	90 e0       	ldi	r25, 0x00	; 0
    17c6:	9a 83       	std	Y+2, r25	; 0x02
    17c8:	89 83       	std	Y+1, r24	; 0x01
    17ca:	29 81       	ldd	r18, Y+1	; 0x01
    17cc:	3a 81       	ldd	r19, Y+2	; 0x02
    17ce:	8d 81       	ldd	r24, Y+5	; 0x05
    17d0:	9e 81       	ldd	r25, Y+6	; 0x06
    17d2:	82 0f       	add	r24, r18
    17d4:	93 1f       	adc	r25, r19
    17d6:	2c e3       	ldi	r18, 0x3C	; 60
    17d8:	30 e0       	ldi	r19, 0x00	; 0
    17da:	b9 01       	movw	r22, r18
    17dc:	0e 94 77 14 	call	0x28ee	; 0x28ee <__divmodhi4>
    17e0:	9c 83       	std	Y+4, r25	; 0x04
    17e2:	8b 83       	std	Y+3, r24	; 0x03
    17e4:	01 c0       	rjmp	.+2      	; 0x17e8 <_Z8Wait_seci+0x40>
    17e6:	00 00       	nop
    17e8:	87 e8       	ldi	r24, 0x87	; 135
    17ea:	91 e0       	ldi	r25, 0x01	; 1
    17ec:	0e 94 15 04 	call	0x82a	; 0x82a <_ZN6myTime10getSecondsEv>
    17f0:	28 2f       	mov	r18, r24
    17f2:	30 e0       	ldi	r19, 0x00	; 0
    17f4:	8b 81       	ldd	r24, Y+3	; 0x03
    17f6:	9c 81       	ldd	r25, Y+4	; 0x04
    17f8:	41 e0       	ldi	r20, 0x01	; 1
    17fa:	28 17       	cp	r18, r24
    17fc:	39 07       	cpc	r19, r25
    17fe:	09 f4       	brne	.+2      	; 0x1802 <_Z8Wait_seci+0x5a>
    1800:	40 e0       	ldi	r20, 0x00	; 0
    1802:	44 23       	and	r20, r20
    1804:	81 f7       	brne	.-32     	; 0x17e6 <_Z8Wait_seci+0x3e>
    1806:	26 96       	adiw	r28, 0x06	; 6
    1808:	0f b6       	in	r0, 0x3f	; 63
    180a:	f8 94       	cli
    180c:	de bf       	out	0x3e, r29	; 62
    180e:	0f be       	out	0x3f, r0	; 63
    1810:	cd bf       	out	0x3d, r28	; 61
    1812:	df 91       	pop	r29
    1814:	cf 91       	pop	r28
    1816:	08 95       	ret

00001818 <_Z13PutUartChBonec>:
    1818:	cf 93       	push	r28
    181a:	df 93       	push	r29
    181c:	0f 92       	push	r0
    181e:	cd b7       	in	r28, 0x3d	; 61
    1820:	de b7       	in	r29, 0x3e	; 62
    1822:	89 83       	std	Y+1, r24	; 0x01
    1824:	00 00       	nop
    1826:	80 ec       	ldi	r24, 0xC0	; 192
    1828:	90 e0       	ldi	r25, 0x00	; 0
    182a:	fc 01       	movw	r30, r24
    182c:	80 81       	ld	r24, Z
    182e:	88 2f       	mov	r24, r24
    1830:	90 e0       	ldi	r25, 0x00	; 0
    1832:	80 72       	andi	r24, 0x20	; 32
    1834:	90 70       	andi	r25, 0x00	; 0
    1836:	21 e0       	ldi	r18, 0x01	; 1
    1838:	00 97       	sbiw	r24, 0x00	; 0
    183a:	09 f0       	breq	.+2      	; 0x183e <_Z13PutUartChBonec+0x26>
    183c:	20 e0       	ldi	r18, 0x00	; 0
    183e:	22 23       	and	r18, r18
    1840:	91 f7       	brne	.-28     	; 0x1826 <_Z13PutUartChBonec+0xe>
    1842:	86 ec       	ldi	r24, 0xC6	; 198
    1844:	90 e0       	ldi	r25, 0x00	; 0
    1846:	29 81       	ldd	r18, Y+1	; 0x01
    1848:	fc 01       	movw	r30, r24
    184a:	20 83       	st	Z, r18
    184c:	0f 90       	pop	r0
    184e:	df 91       	pop	r29
    1850:	cf 91       	pop	r28
    1852:	08 95       	ret

00001854 <_Z9PrintBonePc>:
    1854:	cf 93       	push	r28
    1856:	df 93       	push	r29
    1858:	00 d0       	rcall	.+0      	; 0x185a <_Z9PrintBonePc+0x6>
    185a:	0f 92       	push	r0
    185c:	cd b7       	in	r28, 0x3d	; 61
    185e:	de b7       	in	r29, 0x3e	; 62
    1860:	9b 83       	std	Y+3, r25	; 0x03
    1862:	8a 83       	std	Y+2, r24	; 0x02
    1864:	19 82       	std	Y+1, r1	; 0x01
    1866:	0e c0       	rjmp	.+28     	; 0x1884 <_Z9PrintBonePc+0x30>
    1868:	89 81       	ldd	r24, Y+1	; 0x01
    186a:	88 2f       	mov	r24, r24
    186c:	90 e0       	ldi	r25, 0x00	; 0
    186e:	2a 81       	ldd	r18, Y+2	; 0x02
    1870:	3b 81       	ldd	r19, Y+3	; 0x03
    1872:	82 0f       	add	r24, r18
    1874:	93 1f       	adc	r25, r19
    1876:	fc 01       	movw	r30, r24
    1878:	80 81       	ld	r24, Z
    187a:	0e 94 0c 0c 	call	0x1818	; 0x1818 <_Z13PutUartChBonec>
    187e:	89 81       	ldd	r24, Y+1	; 0x01
    1880:	8f 5f       	subi	r24, 0xFF	; 255
    1882:	89 83       	std	Y+1, r24	; 0x01
    1884:	89 81       	ldd	r24, Y+1	; 0x01
    1886:	88 2f       	mov	r24, r24
    1888:	90 e0       	ldi	r25, 0x00	; 0
    188a:	2a 81       	ldd	r18, Y+2	; 0x02
    188c:	3b 81       	ldd	r19, Y+3	; 0x03
    188e:	82 0f       	add	r24, r18
    1890:	93 1f       	adc	r25, r19
    1892:	fc 01       	movw	r30, r24
    1894:	90 81       	ld	r25, Z
    1896:	81 e0       	ldi	r24, 0x01	; 1
    1898:	99 23       	and	r25, r25
    189a:	09 f4       	brne	.+2      	; 0x189e <_Z9PrintBonePc+0x4a>
    189c:	80 e0       	ldi	r24, 0x00	; 0
    189e:	88 23       	and	r24, r24
    18a0:	19 f7       	brne	.-58     	; 0x1868 <_Z9PrintBonePc+0x14>
    18a2:	0f 90       	pop	r0
    18a4:	0f 90       	pop	r0
    18a6:	0f 90       	pop	r0
    18a8:	df 91       	pop	r29
    18aa:	cf 91       	pop	r28
    18ac:	08 95       	ret

000018ae <_Z13PutUartChWAVRc>:
    18ae:	cf 93       	push	r28
    18b0:	df 93       	push	r29
    18b2:	0f 92       	push	r0
    18b4:	cd b7       	in	r28, 0x3d	; 61
    18b6:	de b7       	in	r29, 0x3e	; 62
    18b8:	89 83       	std	Y+1, r24	; 0x01
    18ba:	00 00       	nop
    18bc:	88 ec       	ldi	r24, 0xC8	; 200
    18be:	90 e0       	ldi	r25, 0x00	; 0
    18c0:	fc 01       	movw	r30, r24
    18c2:	80 81       	ld	r24, Z
    18c4:	88 2f       	mov	r24, r24
    18c6:	90 e0       	ldi	r25, 0x00	; 0
    18c8:	80 72       	andi	r24, 0x20	; 32
    18ca:	90 70       	andi	r25, 0x00	; 0
    18cc:	21 e0       	ldi	r18, 0x01	; 1
    18ce:	00 97       	sbiw	r24, 0x00	; 0
    18d0:	09 f0       	breq	.+2      	; 0x18d4 <_Z13PutUartChWAVRc+0x26>
    18d2:	20 e0       	ldi	r18, 0x00	; 0
    18d4:	22 23       	and	r18, r18
    18d6:	91 f7       	brne	.-28     	; 0x18bc <_Z13PutUartChWAVRc+0xe>
    18d8:	8e ec       	ldi	r24, 0xCE	; 206
    18da:	90 e0       	ldi	r25, 0x00	; 0
    18dc:	29 81       	ldd	r18, Y+1	; 0x01
    18de:	fc 01       	movw	r30, r24
    18e0:	20 83       	st	Z, r18
    18e2:	0f 90       	pop	r0
    18e4:	df 91       	pop	r29
    18e6:	cf 91       	pop	r28
    18e8:	08 95       	ret

000018ea <_Z9PrintWAVRPc>:
    18ea:	cf 93       	push	r28
    18ec:	df 93       	push	r29
    18ee:	00 d0       	rcall	.+0      	; 0x18f0 <_Z9PrintWAVRPc+0x6>
    18f0:	0f 92       	push	r0
    18f2:	cd b7       	in	r28, 0x3d	; 61
    18f4:	de b7       	in	r29, 0x3e	; 62
    18f6:	9b 83       	std	Y+3, r25	; 0x03
    18f8:	8a 83       	std	Y+2, r24	; 0x02
    18fa:	19 82       	std	Y+1, r1	; 0x01
    18fc:	0e c0       	rjmp	.+28     	; 0x191a <_Z9PrintWAVRPc+0x30>
    18fe:	89 81       	ldd	r24, Y+1	; 0x01
    1900:	88 2f       	mov	r24, r24
    1902:	90 e0       	ldi	r25, 0x00	; 0
    1904:	2a 81       	ldd	r18, Y+2	; 0x02
    1906:	3b 81       	ldd	r19, Y+3	; 0x03
    1908:	82 0f       	add	r24, r18
    190a:	93 1f       	adc	r25, r19
    190c:	fc 01       	movw	r30, r24
    190e:	80 81       	ld	r24, Z
    1910:	0e 94 57 0c 	call	0x18ae	; 0x18ae <_Z13PutUartChWAVRc>
    1914:	89 81       	ldd	r24, Y+1	; 0x01
    1916:	8f 5f       	subi	r24, 0xFF	; 255
    1918:	89 83       	std	Y+1, r24	; 0x01
    191a:	89 81       	ldd	r24, Y+1	; 0x01
    191c:	88 2f       	mov	r24, r24
    191e:	90 e0       	ldi	r25, 0x00	; 0
    1920:	2a 81       	ldd	r18, Y+2	; 0x02
    1922:	3b 81       	ldd	r19, Y+3	; 0x03
    1924:	82 0f       	add	r24, r18
    1926:	93 1f       	adc	r25, r19
    1928:	fc 01       	movw	r30, r24
    192a:	90 81       	ld	r25, Z
    192c:	81 e0       	ldi	r24, 0x01	; 1
    192e:	99 23       	and	r25, r25
    1930:	09 f4       	brne	.+2      	; 0x1934 <_Z9PrintWAVRPc+0x4a>
    1932:	80 e0       	ldi	r24, 0x00	; 0
    1934:	88 23       	and	r24, r24
    1936:	19 f7       	brne	.-58     	; 0x18fe <_Z9PrintWAVRPc+0x14>
    1938:	0f 90       	pop	r0
    193a:	0f 90       	pop	r0
    193c:	0f 90       	pop	r0
    193e:	df 91       	pop	r29
    1940:	cf 91       	pop	r28
    1942:	08 95       	ret

00001944 <_Z11ReceiveWAVRv>:
    1944:	cf 93       	push	r28
    1946:	df 93       	push	r29
    1948:	cd b7       	in	r28, 0x3d	; 61
    194a:	de b7       	in	r29, 0x3e	; 62
    194c:	e3 97       	sbiw	r28, 0x33	; 51
    194e:	0f b6       	in	r0, 0x3f	; 63
    1950:	f8 94       	cli
    1952:	de bf       	out	0x3e, r29	; 62
    1954:	0f be       	out	0x3f, r0	; 63
    1956:	cd bf       	out	0x3d, r28	; 61
    1958:	1a 82       	std	Y+2, r1	; 0x02
    195a:	19 82       	std	Y+1, r1	; 0x01
    195c:	81 e0       	ldi	r24, 0x01	; 1
    195e:	8b 83       	std	Y+3, r24	; 0x03
    1960:	8e ec       	ldi	r24, 0xCE	; 206
    1962:	90 e0       	ldi	r25, 0x00	; 0
    1964:	fc 01       	movw	r30, r24
    1966:	80 81       	ld	r24, Z
    1968:	8c 87       	std	Y+12, r24	; 0x0c
    196a:	8c 85       	ldd	r24, Y+12	; 0x0c
    196c:	8e 32       	cpi	r24, 0x2E	; 46
    196e:	31 f4       	brne	.+12     	; 0x197c <_Z11ReceiveWAVRv+0x38>
    1970:	8a e0       	ldi	r24, 0x0A	; 10
    1972:	91 e0       	ldi	r25, 0x01	; 1
    1974:	0e 94 75 0c 	call	0x18ea	; 0x18ea <_Z9PrintWAVRPc>
    1978:	1b 82       	std	Y+3, r1	; 0x03
    197a:	dc c1       	rjmp	.+952    	; 0x1d34 <_Z11ReceiveWAVRv+0x3f0>
    197c:	9e 01       	movw	r18, r28
    197e:	23 5f       	subi	r18, 0xF3	; 243
    1980:	3f 4f       	sbci	r19, 0xFF	; 255
    1982:	89 81       	ldd	r24, Y+1	; 0x01
    1984:	9a 81       	ldd	r25, Y+2	; 0x02
    1986:	82 0f       	add	r24, r18
    1988:	93 1f       	adc	r25, r19
    198a:	2c 85       	ldd	r18, Y+12	; 0x0c
    198c:	fc 01       	movw	r30, r24
    198e:	20 83       	st	Z, r18
    1990:	89 81       	ldd	r24, Y+1	; 0x01
    1992:	9a 81       	ldd	r25, Y+2	; 0x02
    1994:	01 96       	adiw	r24, 0x01	; 1
    1996:	9a 83       	std	Y+2, r25	; 0x02
    1998:	89 83       	std	Y+1, r24	; 0x01
    199a:	cc c1       	rjmp	.+920    	; 0x1d34 <_Z11ReceiveWAVRv+0x3f0>
    199c:	00 00       	nop
    199e:	88 ec       	ldi	r24, 0xC8	; 200
    19a0:	90 e0       	ldi	r25, 0x00	; 0
    19a2:	fc 01       	movw	r30, r24
    19a4:	80 81       	ld	r24, Z
    19a6:	88 23       	and	r24, r24
    19a8:	34 f0       	brlt	.+12     	; 0x19b6 <_Z11ReceiveWAVRv+0x72>
    19aa:	80 91 7d 01 	lds	r24, 0x017D
    19ae:	88 23       	and	r24, r24
    19b0:	11 f0       	breq	.+4      	; 0x19b6 <_Z11ReceiveWAVRv+0x72>
    19b2:	81 e0       	ldi	r24, 0x01	; 1
    19b4:	01 c0       	rjmp	.+2      	; 0x19b8 <_Z11ReceiveWAVRv+0x74>
    19b6:	80 e0       	ldi	r24, 0x00	; 0
    19b8:	88 23       	and	r24, r24
    19ba:	89 f7       	brne	.-30     	; 0x199e <_Z11ReceiveWAVRv+0x5a>
    19bc:	8e ec       	ldi	r24, 0xCE	; 206
    19be:	90 e0       	ldi	r25, 0x00	; 0
    19c0:	fc 01       	movw	r30, r24
    19c2:	80 81       	ld	r24, Z
    19c4:	8c 87       	std	Y+12, r24	; 0x0c
    19c6:	8c 85       	ldd	r24, Y+12	; 0x0c
    19c8:	8e 32       	cpi	r24, 0x2E	; 46
    19ca:	09 f0       	breq	.+2      	; 0x19ce <_Z11ReceiveWAVRv+0x8a>
    19cc:	94 c1       	rjmp	.+808    	; 0x1cf6 <_Z11ReceiveWAVRv+0x3b2>
    19ce:	9e 01       	movw	r18, r28
    19d0:	23 5f       	subi	r18, 0xF3	; 243
    19d2:	3f 4f       	sbci	r19, 0xFF	; 255
    19d4:	89 81       	ldd	r24, Y+1	; 0x01
    19d6:	9a 81       	ldd	r25, Y+2	; 0x02
    19d8:	82 0f       	add	r24, r18
    19da:	93 1f       	adc	r25, r19
    19dc:	fc 01       	movw	r30, r24
    19de:	10 82       	st	Z, r1
    19e0:	1b 82       	std	Y+3, r1	; 0x03
    19e2:	ce 01       	movw	r24, r28
    19e4:	0d 96       	adiw	r24, 0x0d	; 13
    19e6:	2d e0       	ldi	r18, 0x0D	; 13
    19e8:	31 e0       	ldi	r19, 0x01	; 1
    19ea:	b9 01       	movw	r22, r18
    19ec:	0e 94 cd 14 	call	0x299a	; 0x299a <strcmp>
    19f0:	00 97       	sbiw	r24, 0x00	; 0
    19f2:	31 f4       	brne	.+12     	; 0x1a00 <_Z11ReceiveWAVRv+0xbc>
    19f4:	80 e0       	ldi	r24, 0x00	; 0
    19f6:	60 e0       	ldi	r22, 0x00	; 0
    19f8:	41 e0       	ldi	r20, 0x01	; 1
    19fa:	0e 94 e6 13 	call	0x27cc	; 0x27cc <_Z13printTimeDatehhh>
    19fe:	9a c1       	rjmp	.+820    	; 0x1d34 <_Z11ReceiveWAVRv+0x3f0>
    1a00:	ce 01       	movw	r24, r28
    1a02:	0d 96       	adiw	r24, 0x0d	; 13
    1a04:	22 e1       	ldi	r18, 0x12	; 18
    1a06:	31 e0       	ldi	r19, 0x01	; 1
    1a08:	b9 01       	movw	r22, r18
    1a0a:	0e 94 cd 14 	call	0x299a	; 0x299a <strcmp>
    1a0e:	00 97       	sbiw	r24, 0x00	; 0
    1a10:	31 f4       	brne	.+12     	; 0x1a1e <_Z11ReceiveWAVRv+0xda>
    1a12:	80 e0       	ldi	r24, 0x00	; 0
    1a14:	61 e0       	ldi	r22, 0x01	; 1
    1a16:	40 e0       	ldi	r20, 0x00	; 0
    1a18:	0e 94 e6 13 	call	0x27cc	; 0x27cc <_Z13printTimeDatehhh>
    1a1c:	8b c1       	rjmp	.+790    	; 0x1d34 <_Z11ReceiveWAVRv+0x3f0>
    1a1e:	ce 01       	movw	r24, r28
    1a20:	0d 96       	adiw	r24, 0x0d	; 13
    1a22:	27 e1       	ldi	r18, 0x17	; 23
    1a24:	31 e0       	ldi	r19, 0x01	; 1
    1a26:	b9 01       	movw	r22, r18
    1a28:	0e 94 cd 14 	call	0x299a	; 0x299a <strcmp>
    1a2c:	00 97       	sbiw	r24, 0x00	; 0
    1a2e:	31 f4       	brne	.+12     	; 0x1a3c <_Z11ReceiveWAVRv+0xf8>
    1a30:	80 e0       	ldi	r24, 0x00	; 0
    1a32:	61 e0       	ldi	r22, 0x01	; 1
    1a34:	41 e0       	ldi	r20, 0x01	; 1
    1a36:	0e 94 e6 13 	call	0x27cc	; 0x27cc <_Z13printTimeDatehhh>
    1a3a:	7c c1       	rjmp	.+760    	; 0x1d34 <_Z11ReceiveWAVRv+0x3f0>
    1a3c:	ce 01       	movw	r24, r28
    1a3e:	0d 96       	adiw	r24, 0x0d	; 13
    1a40:	2c e1       	ldi	r18, 0x1C	; 28
    1a42:	31 e0       	ldi	r19, 0x01	; 1
    1a44:	b9 01       	movw	r22, r18
    1a46:	0e 94 cd 14 	call	0x299a	; 0x299a <strcmp>
    1a4a:	00 97       	sbiw	r24, 0x00	; 0
    1a4c:	91 f4       	brne	.+36     	; 0x1a72 <_Z11ReceiveWAVRv+0x12e>
    1a4e:	81 e0       	ldi	r24, 0x01	; 1
    1a50:	80 93 7f 01 	sts	0x017F, r24
    1a54:	81 e0       	ldi	r24, 0x01	; 1
    1a56:	80 93 82 01 	sts	0x0182, r24
    1a5a:	81 e2       	ldi	r24, 0x21	; 33
    1a5c:	91 e0       	ldi	r25, 0x01	; 1
    1a5e:	0e 94 75 0c 	call	0x18ea	; 0x18ea <_Z9PrintWAVRPc>
    1a62:	ce 01       	movw	r24, r28
    1a64:	0d 96       	adiw	r24, 0x0d	; 13
    1a66:	0e 94 75 0c 	call	0x18ea	; 0x18ea <_Z9PrintWAVRPc>
    1a6a:	8e e2       	ldi	r24, 0x2E	; 46
    1a6c:	0e 94 57 0c 	call	0x18ae	; 0x18ae <_Z13PutUartChWAVRc>
    1a70:	61 c1       	rjmp	.+706    	; 0x1d34 <_Z11ReceiveWAVRv+0x3f0>
    1a72:	8e 85       	ldd	r24, Y+14	; 0x0e
    1a74:	91 e0       	ldi	r25, 0x01	; 1
    1a76:	8a 33       	cpi	r24, 0x3A	; 58
    1a78:	09 f0       	breq	.+2      	; 0x1a7c <_Z11ReceiveWAVRv+0x138>
    1a7a:	90 e0       	ldi	r25, 0x00	; 0
    1a7c:	2f 85       	ldd	r18, Y+15	; 0x0f
    1a7e:	81 e0       	ldi	r24, 0x01	; 1
    1a80:	2a 33       	cpi	r18, 0x3A	; 58
    1a82:	09 f0       	breq	.+2      	; 0x1a86 <_Z11ReceiveWAVRv+0x142>
    1a84:	80 e0       	ldi	r24, 0x00	; 0
    1a86:	89 27       	eor	r24, r25
    1a88:	88 23       	and	r24, r24
    1a8a:	09 f4       	brne	.+2      	; 0x1a8e <_Z11ReceiveWAVRv+0x14a>
    1a8c:	53 c1       	rjmp	.+678    	; 0x1d34 <_Z11ReceiveWAVRv+0x3f0>
    1a8e:	18 8e       	std	Y+24, r1	; 0x18
    1a90:	1f 8a       	std	Y+23, r1	; 0x17
    1a92:	1a 8e       	std	Y+26, r1	; 0x1a
    1a94:	19 8e       	std	Y+25, r1	; 0x19
    1a96:	1c 8e       	std	Y+28, r1	; 0x1c
    1a98:	1b 8e       	std	Y+27, r1	; 0x1b
    1a9a:	1d 82       	std	Y+5, r1	; 0x05
    1a9c:	1c 82       	std	Y+4, r1	; 0x04
    1a9e:	1f 82       	std	Y+7, r1	; 0x07
    1aa0:	1e 82       	std	Y+6, r1	; 0x06
    1aa2:	19 86       	std	Y+9, r1	; 0x09
    1aa4:	18 86       	std	Y+8, r1	; 0x08
    1aa6:	ad c0       	rjmp	.+346    	; 0x1c02 <_Z11ReceiveWAVRv+0x2be>
    1aa8:	9e 01       	movw	r18, r28
    1aaa:	23 5f       	subi	r18, 0xF3	; 243
    1aac:	3f 4f       	sbci	r19, 0xFF	; 255
    1aae:	88 85       	ldd	r24, Y+8	; 0x08
    1ab0:	99 85       	ldd	r25, Y+9	; 0x09
    1ab2:	82 0f       	add	r24, r18
    1ab4:	93 1f       	adc	r25, r19
    1ab6:	fc 01       	movw	r30, r24
    1ab8:	80 81       	ld	r24, Z
    1aba:	8a 33       	cpi	r24, 0x3A	; 58
    1abc:	41 f1       	breq	.+80     	; 0x1b0e <_Z11ReceiveWAVRv+0x1ca>
    1abe:	8c 81       	ldd	r24, Y+4	; 0x04
    1ac0:	9d 81       	ldd	r25, Y+5	; 0x05
    1ac2:	83 30       	cpi	r24, 0x03	; 3
    1ac4:	91 05       	cpc	r25, r1
    1ac6:	1c f5       	brge	.+70     	; 0x1b0e <_Z11ReceiveWAVRv+0x1ca>
    1ac8:	9e 01       	movw	r18, r28
    1aca:	23 5f       	subi	r18, 0xF3	; 243
    1acc:	3f 4f       	sbci	r19, 0xFF	; 255
    1ace:	88 85       	ldd	r24, Y+8	; 0x08
    1ad0:	99 85       	ldd	r25, Y+9	; 0x09
    1ad2:	82 0f       	add	r24, r18
    1ad4:	93 1f       	adc	r25, r19
    1ad6:	fc 01       	movw	r30, r24
    1ad8:	80 81       	ld	r24, Z
    1ada:	88 23       	and	r24, r24
    1adc:	c1 f0       	breq	.+48     	; 0x1b0e <_Z11ReceiveWAVRv+0x1ca>
    1ade:	9e 01       	movw	r18, r28
    1ae0:	23 5f       	subi	r18, 0xF3	; 243
    1ae2:	3f 4f       	sbci	r19, 0xFF	; 255
    1ae4:	88 85       	ldd	r24, Y+8	; 0x08
    1ae6:	99 85       	ldd	r25, Y+9	; 0x09
    1ae8:	82 0f       	add	r24, r18
    1aea:	93 1f       	adc	r25, r19
    1aec:	fc 01       	movw	r30, r24
    1aee:	40 81       	ld	r20, Z
    1af0:	9e 01       	movw	r18, r28
    1af2:	23 5e       	subi	r18, 0xE3	; 227
    1af4:	3f 4f       	sbci	r19, 0xFF	; 255
    1af6:	8e 81       	ldd	r24, Y+6	; 0x06
    1af8:	9f 81       	ldd	r25, Y+7	; 0x07
    1afa:	82 0f       	add	r24, r18
    1afc:	93 1f       	adc	r25, r19
    1afe:	fc 01       	movw	r30, r24
    1b00:	40 83       	st	Z, r20
    1b02:	8e 81       	ldd	r24, Y+6	; 0x06
    1b04:	9f 81       	ldd	r25, Y+7	; 0x07
    1b06:	01 96       	adiw	r24, 0x01	; 1
    1b08:	9f 83       	std	Y+7, r25	; 0x07
    1b0a:	8e 83       	std	Y+6, r24	; 0x06
    1b0c:	75 c0       	rjmp	.+234    	; 0x1bf8 <_Z11ReceiveWAVRv+0x2b4>
    1b0e:	8c 81       	ldd	r24, Y+4	; 0x04
    1b10:	9d 81       	ldd	r25, Y+5	; 0x05
    1b12:	82 30       	cpi	r24, 0x02	; 2
    1b14:	91 05       	cpc	r25, r1
    1b16:	0c f0       	brlt	.+2      	; 0x1b1a <_Z11ReceiveWAVRv+0x1d6>
    1b18:	41 c0       	rjmp	.+130    	; 0x1b9c <_Z11ReceiveWAVRv+0x258>
    1b1a:	9e 01       	movw	r18, r28
    1b1c:	23 5f       	subi	r18, 0xF3	; 243
    1b1e:	3f 4f       	sbci	r19, 0xFF	; 255
    1b20:	88 85       	ldd	r24, Y+8	; 0x08
    1b22:	99 85       	ldd	r25, Y+9	; 0x09
    1b24:	82 0f       	add	r24, r18
    1b26:	93 1f       	adc	r25, r19
    1b28:	fc 01       	movw	r30, r24
    1b2a:	80 81       	ld	r24, Z
    1b2c:	8a 33       	cpi	r24, 0x3A	; 58
    1b2e:	b1 f5       	brne	.+108    	; 0x1b9c <_Z11ReceiveWAVRv+0x258>
    1b30:	ce 01       	movw	r24, r28
    1b32:	4d 96       	adiw	r24, 0x1d	; 29
    1b34:	0e 94 a4 14 	call	0x2948	; 0x2948 <atoi>
    1b38:	9c 01       	movw	r18, r24
    1b3a:	8c 81       	ldd	r24, Y+4	; 0x04
    1b3c:	9d 81       	ldd	r25, Y+5	; 0x05
    1b3e:	88 0f       	add	r24, r24
    1b40:	99 1f       	adc	r25, r25
    1b42:	ae 01       	movw	r20, r28
    1b44:	4f 5f       	subi	r20, 0xFF	; 255
    1b46:	5f 4f       	sbci	r21, 0xFF	; 255
    1b48:	84 0f       	add	r24, r20
    1b4a:	95 1f       	adc	r25, r21
    1b4c:	46 96       	adiw	r24, 0x16	; 22
    1b4e:	fc 01       	movw	r30, r24
    1b50:	31 83       	std	Z+1, r19	; 0x01
    1b52:	20 83       	st	Z, r18
    1b54:	8c 81       	ldd	r24, Y+4	; 0x04
    1b56:	9d 81       	ldd	r25, Y+5	; 0x05
    1b58:	01 96       	adiw	r24, 0x01	; 1
    1b5a:	9d 83       	std	Y+5, r25	; 0x05
    1b5c:	8c 83       	std	Y+4, r24	; 0x04
    1b5e:	1b 86       	std	Y+11, r1	; 0x0b
    1b60:	1a 86       	std	Y+10, r1	; 0x0a
    1b62:	0e c0       	rjmp	.+28     	; 0x1b80 <_Z11ReceiveWAVRv+0x23c>
    1b64:	9e 01       	movw	r18, r28
    1b66:	23 5e       	subi	r18, 0xE3	; 227
    1b68:	3f 4f       	sbci	r19, 0xFF	; 255
    1b6a:	8a 85       	ldd	r24, Y+10	; 0x0a
    1b6c:	9b 85       	ldd	r25, Y+11	; 0x0b
    1b6e:	82 0f       	add	r24, r18
    1b70:	93 1f       	adc	r25, r19
    1b72:	fc 01       	movw	r30, r24
    1b74:	10 82       	st	Z, r1
    1b76:	8a 85       	ldd	r24, Y+10	; 0x0a
    1b78:	9b 85       	ldd	r25, Y+11	; 0x0b
    1b7a:	01 96       	adiw	r24, 0x01	; 1
    1b7c:	9b 87       	std	Y+11, r25	; 0x0b
    1b7e:	8a 87       	std	Y+10, r24	; 0x0a
    1b80:	41 e0       	ldi	r20, 0x01	; 1
    1b82:	2a 85       	ldd	r18, Y+10	; 0x0a
    1b84:	3b 85       	ldd	r19, Y+11	; 0x0b
    1b86:	8e 81       	ldd	r24, Y+6	; 0x06
    1b88:	9f 81       	ldd	r25, Y+7	; 0x07
    1b8a:	82 17       	cp	r24, r18
    1b8c:	93 07       	cpc	r25, r19
    1b8e:	0c f4       	brge	.+2      	; 0x1b92 <_Z11ReceiveWAVRv+0x24e>
    1b90:	40 e0       	ldi	r20, 0x00	; 0
    1b92:	44 23       	and	r20, r20
    1b94:	39 f7       	brne	.-50     	; 0x1b64 <_Z11ReceiveWAVRv+0x220>
    1b96:	1f 82       	std	Y+7, r1	; 0x07
    1b98:	1e 82       	std	Y+6, r1	; 0x06
    1b9a:	2e c0       	rjmp	.+92     	; 0x1bf8 <_Z11ReceiveWAVRv+0x2b4>
    1b9c:	8c 81       	ldd	r24, Y+4	; 0x04
    1b9e:	9d 81       	ldd	r25, Y+5	; 0x05
    1ba0:	83 30       	cpi	r24, 0x03	; 3
    1ba2:	91 05       	cpc	r25, r1
    1ba4:	4c f5       	brge	.+82     	; 0x1bf8 <_Z11ReceiveWAVRv+0x2b4>
    1ba6:	9e 01       	movw	r18, r28
    1ba8:	23 5f       	subi	r18, 0xF3	; 243
    1baa:	3f 4f       	sbci	r19, 0xFF	; 255
    1bac:	88 85       	ldd	r24, Y+8	; 0x08
    1bae:	99 85       	ldd	r25, Y+9	; 0x09
    1bb0:	82 0f       	add	r24, r18
    1bb2:	93 1f       	adc	r25, r19
    1bb4:	fc 01       	movw	r30, r24
    1bb6:	80 81       	ld	r24, Z
    1bb8:	88 23       	and	r24, r24
    1bba:	39 f0       	breq	.+14     	; 0x1bca <_Z11ReceiveWAVRv+0x286>
    1bbc:	28 85       	ldd	r18, Y+8	; 0x08
    1bbe:	39 85       	ldd	r19, Y+9	; 0x09
    1bc0:	89 81       	ldd	r24, Y+1	; 0x01
    1bc2:	9a 81       	ldd	r25, Y+2	; 0x02
    1bc4:	28 17       	cp	r18, r24
    1bc6:	39 07       	cpc	r19, r25
    1bc8:	b9 f4       	brne	.+46     	; 0x1bf8 <_Z11ReceiveWAVRv+0x2b4>
    1bca:	ce 01       	movw	r24, r28
    1bcc:	4d 96       	adiw	r24, 0x1d	; 29
    1bce:	0e 94 a4 14 	call	0x2948	; 0x2948 <atoi>
    1bd2:	9c 01       	movw	r18, r24
    1bd4:	8c 81       	ldd	r24, Y+4	; 0x04
    1bd6:	9d 81       	ldd	r25, Y+5	; 0x05
    1bd8:	88 0f       	add	r24, r24
    1bda:	99 1f       	adc	r25, r25
    1bdc:	ae 01       	movw	r20, r28
    1bde:	4f 5f       	subi	r20, 0xFF	; 255
    1be0:	5f 4f       	sbci	r21, 0xFF	; 255
    1be2:	84 0f       	add	r24, r20
    1be4:	95 1f       	adc	r25, r21
    1be6:	46 96       	adiw	r24, 0x16	; 22
    1be8:	fc 01       	movw	r30, r24
    1bea:	31 83       	std	Z+1, r19	; 0x01
    1bec:	20 83       	st	Z, r18
    1bee:	8c 81       	ldd	r24, Y+4	; 0x04
    1bf0:	9d 81       	ldd	r25, Y+5	; 0x05
    1bf2:	01 96       	adiw	r24, 0x01	; 1
    1bf4:	9d 83       	std	Y+5, r25	; 0x05
    1bf6:	8c 83       	std	Y+4, r24	; 0x04
    1bf8:	88 85       	ldd	r24, Y+8	; 0x08
    1bfa:	99 85       	ldd	r25, Y+9	; 0x09
    1bfc:	01 96       	adiw	r24, 0x01	; 1
    1bfe:	99 87       	std	Y+9, r25	; 0x09
    1c00:	88 87       	std	Y+8, r24	; 0x08
    1c02:	41 e0       	ldi	r20, 0x01	; 1
    1c04:	28 85       	ldd	r18, Y+8	; 0x08
    1c06:	39 85       	ldd	r19, Y+9	; 0x09
    1c08:	89 81       	ldd	r24, Y+1	; 0x01
    1c0a:	9a 81       	ldd	r25, Y+2	; 0x02
    1c0c:	82 17       	cp	r24, r18
    1c0e:	93 07       	cpc	r25, r19
    1c10:	0c f4       	brge	.+2      	; 0x1c14 <_Z11ReceiveWAVRv+0x2d0>
    1c12:	40 e0       	ldi	r20, 0x00	; 0
    1c14:	44 23       	and	r20, r20
    1c16:	09 f0       	breq	.+2      	; 0x1c1a <_Z11ReceiveWAVRv+0x2d6>
    1c18:	47 cf       	rjmp	.-370    	; 0x1aa8 <_Z11ReceiveWAVRv+0x164>
    1c1a:	8f 89       	ldd	r24, Y+23	; 0x17
    1c1c:	98 8d       	ldd	r25, Y+24	; 0x18
    1c1e:	47 96       	adiw	r24, 0x17	; 23
    1c20:	8f 32       	cpi	r24, 0x2F	; 47
    1c22:	91 05       	cpc	r25, r1
    1c24:	08 f0       	brcs	.+2      	; 0x1c28 <_Z11ReceiveWAVRv+0x2e4>
    1c26:	40 c0       	rjmp	.+128    	; 0x1ca8 <_Z11ReceiveWAVRv+0x364>
    1c28:	89 8d       	ldd	r24, Y+25	; 0x19
    1c2a:	9a 8d       	ldd	r25, Y+26	; 0x1a
    1c2c:	cb 96       	adiw	r24, 0x3b	; 59
    1c2e:	87 37       	cpi	r24, 0x77	; 119
    1c30:	91 05       	cpc	r25, r1
    1c32:	d0 f5       	brcc	.+116    	; 0x1ca8 <_Z11ReceiveWAVRv+0x364>
    1c34:	8b 8d       	ldd	r24, Y+27	; 0x1b
    1c36:	9c 8d       	ldd	r25, Y+28	; 0x1c
    1c38:	cb 96       	adiw	r24, 0x3b	; 59
    1c3a:	87 37       	cpi	r24, 0x77	; 119
    1c3c:	91 05       	cpc	r25, r1
    1c3e:	a0 f5       	brcc	.+104    	; 0x1ca8 <_Z11ReceiveWAVRv+0x364>
    1c40:	6f 89       	ldd	r22, Y+23	; 0x17
    1c42:	78 8d       	ldd	r23, Y+24	; 0x18
    1c44:	49 8d       	ldd	r20, Y+25	; 0x19
    1c46:	5a 8d       	ldd	r21, Y+26	; 0x1a
    1c48:	2b 8d       	ldd	r18, Y+27	; 0x1b
    1c4a:	3c 8d       	ldd	r19, Y+28	; 0x1c
    1c4c:	87 e8       	ldi	r24, 0x87	; 135
    1c4e:	91 e0       	ldi	r25, 0x01	; 1
    1c50:	0e 94 48 04 	call	0x890	; 0x890 <_ZN6myTime7setTimeEiii>
    1c54:	81 e0       	ldi	r24, 0x01	; 1
    1c56:	60 e0       	ldi	r22, 0x00	; 0
    1c58:	0e 94 f7 06 	call	0xdee	; 0xdee <_Z19saveDateTime_eepromhh>
    1c5c:	87 e8       	ldi	r24, 0x87	; 135
    1c5e:	91 e0       	ldi	r25, 0x01	; 1
    1c60:	0e 94 b0 05 	call	0xb60	; 0xb60 <_ZN6myTime7getTimeEv>
    1c64:	9c 01       	movw	r18, r24
    1c66:	ce 01       	movw	r24, r28
    1c68:	80 96       	adiw	r24, 0x20	; 32
    1c6a:	b9 01       	movw	r22, r18
    1c6c:	0e 94 d6 14 	call	0x29ac	; 0x29ac <strcpy>
    1c70:	81 e2       	ldi	r24, 0x21	; 33
    1c72:	91 e0       	ldi	r25, 0x01	; 1
    1c74:	0e 94 75 0c 	call	0x18ea	; 0x18ea <_Z9PrintWAVRPc>
    1c78:	ce 01       	movw	r24, r28
    1c7a:	80 96       	adiw	r24, 0x20	; 32
    1c7c:	0e 94 75 0c 	call	0x18ea	; 0x18ea <_Z9PrintWAVRPc>
    1c80:	8e e2       	ldi	r24, 0x2E	; 46
    1c82:	0e 94 57 0c 	call	0x18ae	; 0x18ae <_Z13PutUartChWAVRc>
    1c86:	10 92 b2 01 	sts	0x01B2, r1
    1c8a:	10 92 b1 01 	sts	0x01B1, r1
    1c8e:	90 91 7c 01 	lds	r25, 0x017C
    1c92:	81 e0       	ldi	r24, 0x01	; 1
    1c94:	99 23       	and	r25, r25
    1c96:	09 f4       	brne	.+2      	; 0x1c9a <_Z11ReceiveWAVRv+0x356>
    1c98:	80 e0       	ldi	r24, 0x00	; 0
    1c9a:	88 23       	and	r24, r24
    1c9c:	09 f4       	brne	.+2      	; 0x1ca0 <_Z11ReceiveWAVRv+0x35c>
    1c9e:	49 c0       	rjmp	.+146    	; 0x1d32 <_Z11ReceiveWAVRv+0x3ee>
    1ca0:	10 92 7c 01 	sts	0x017C, r1
    1ca4:	00 00       	nop
    1ca6:	45 c0       	rjmp	.+138    	; 0x1d32 <_Z11ReceiveWAVRv+0x3ee>
    1ca8:	80 91 b1 01 	lds	r24, 0x01B1
    1cac:	90 91 b2 01 	lds	r25, 0x01B2
    1cb0:	01 96       	adiw	r24, 0x01	; 1
    1cb2:	90 93 b2 01 	sts	0x01B2, r25
    1cb6:	80 93 b1 01 	sts	0x01B1, r24
    1cba:	21 e0       	ldi	r18, 0x01	; 1
    1cbc:	83 30       	cpi	r24, 0x03	; 3
    1cbe:	91 05       	cpc	r25, r1
    1cc0:	0c f4       	brge	.+2      	; 0x1cc4 <_Z11ReceiveWAVRv+0x380>
    1cc2:	20 e0       	ldi	r18, 0x00	; 0
    1cc4:	22 23       	and	r18, r18
    1cc6:	59 f0       	breq	.+22     	; 0x1cde <_Z11ReceiveWAVRv+0x39a>
    1cc8:	85 e2       	ldi	r24, 0x25	; 37
    1cca:	91 e0       	ldi	r25, 0x01	; 1
    1ccc:	0e 94 75 0c 	call	0x18ea	; 0x18ea <_Z9PrintWAVRPc>
    1cd0:	81 e0       	ldi	r24, 0x01	; 1
    1cd2:	80 93 80 01 	sts	0x0180, r24
    1cd6:	81 e0       	ldi	r24, 0x01	; 1
    1cd8:	80 93 81 01 	sts	0x0181, r24
    1cdc:	2b c0       	rjmp	.+86     	; 0x1d34 <_Z11ReceiveWAVRv+0x3f0>
    1cde:	8f e2       	ldi	r24, 0x2F	; 47
    1ce0:	91 e0       	ldi	r25, 0x01	; 1
    1ce2:	0e 94 75 0c 	call	0x18ea	; 0x18ea <_Z9PrintWAVRPc>
    1ce6:	ce 01       	movw	r24, r28
    1ce8:	0d 96       	adiw	r24, 0x0d	; 13
    1cea:	0e 94 75 0c 	call	0x18ea	; 0x18ea <_Z9PrintWAVRPc>
    1cee:	8e e2       	ldi	r24, 0x2E	; 46
    1cf0:	0e 94 57 0c 	call	0x18ae	; 0x18ae <_Z13PutUartChWAVRc>
    1cf4:	1f c0       	rjmp	.+62     	; 0x1d34 <_Z11ReceiveWAVRv+0x3f0>
    1cf6:	9e 01       	movw	r18, r28
    1cf8:	23 5f       	subi	r18, 0xF3	; 243
    1cfa:	3f 4f       	sbci	r19, 0xFF	; 255
    1cfc:	89 81       	ldd	r24, Y+1	; 0x01
    1cfe:	9a 81       	ldd	r25, Y+2	; 0x02
    1d00:	82 0f       	add	r24, r18
    1d02:	93 1f       	adc	r25, r19
    1d04:	2c 85       	ldd	r18, Y+12	; 0x0c
    1d06:	fc 01       	movw	r30, r24
    1d08:	20 83       	st	Z, r18
    1d0a:	89 81       	ldd	r24, Y+1	; 0x01
    1d0c:	9a 81       	ldd	r25, Y+2	; 0x02
    1d0e:	01 96       	adiw	r24, 0x01	; 1
    1d10:	9a 83       	std	Y+2, r25	; 0x02
    1d12:	89 83       	std	Y+1, r24	; 0x01
    1d14:	89 81       	ldd	r24, Y+1	; 0x01
    1d16:	9a 81       	ldd	r25, Y+2	; 0x02
    1d18:	83 31       	cpi	r24, 0x13	; 19
    1d1a:	91 05       	cpc	r25, r1
    1d1c:	5c f0       	brlt	.+22     	; 0x1d34 <_Z11ReceiveWAVRv+0x3f0>
    1d1e:	1a 82       	std	Y+2, r1	; 0x02
    1d20:	19 82       	std	Y+1, r1	; 0x01
    1d22:	1b 82       	std	Y+3, r1	; 0x03
    1d24:	10 92 7d 01 	sts	0x017D, r1
    1d28:	89 e3       	ldi	r24, 0x39	; 57
    1d2a:	91 e0       	ldi	r25, 0x01	; 1
    1d2c:	0e 94 75 0c 	call	0x18ea	; 0x18ea <_Z9PrintWAVRPc>
    1d30:	01 c0       	rjmp	.+2      	; 0x1d34 <_Z11ReceiveWAVRv+0x3f0>
    1d32:	00 00       	nop
    1d34:	8b 81       	ldd	r24, Y+3	; 0x03
    1d36:	88 23       	and	r24, r24
    1d38:	31 f0       	breq	.+12     	; 0x1d46 <_Z11ReceiveWAVRv+0x402>
    1d3a:	80 91 7d 01 	lds	r24, 0x017D
    1d3e:	88 23       	and	r24, r24
    1d40:	11 f0       	breq	.+4      	; 0x1d46 <_Z11ReceiveWAVRv+0x402>
    1d42:	81 e0       	ldi	r24, 0x01	; 1
    1d44:	01 c0       	rjmp	.+2      	; 0x1d48 <_Z11ReceiveWAVRv+0x404>
    1d46:	80 e0       	ldi	r24, 0x00	; 0
    1d48:	88 23       	and	r24, r24
    1d4a:	09 f0       	breq	.+2      	; 0x1d4e <_Z11ReceiveWAVRv+0x40a>
    1d4c:	27 ce       	rjmp	.-946    	; 0x199c <_Z11ReceiveWAVRv+0x58>
    1d4e:	e3 96       	adiw	r28, 0x33	; 51
    1d50:	0f b6       	in	r0, 0x3f	; 63
    1d52:	f8 94       	cli
    1d54:	de bf       	out	0x3e, r29	; 62
    1d56:	0f be       	out	0x3f, r0	; 63
    1d58:	cd bf       	out	0x3d, r28	; 61
    1d5a:	df 91       	pop	r29
    1d5c:	cf 91       	pop	r28
    1d5e:	08 95       	ret

00001d60 <_Z10SendToWAVRhh>:
    1d60:	cf 93       	push	r28
    1d62:	df 93       	push	r29
    1d64:	cd b7       	in	r28, 0x3d	; 61
    1d66:	de b7       	in	r29, 0x3e	; 62
    1d68:	cf 5a       	subi	r28, 0xAF	; 175
    1d6a:	d0 40       	sbci	r29, 0x00	; 0
    1d6c:	0f b6       	in	r0, 0x3f	; 63
    1d6e:	f8 94       	cli
    1d70:	de bf       	out	0x3e, r29	; 62
    1d72:	0f be       	out	0x3f, r0	; 63
    1d74:	cd bf       	out	0x3d, r28	; 61
    1d76:	9e 01       	movw	r18, r28
    1d78:	22 55       	subi	r18, 0x52	; 82
    1d7a:	3f 4f       	sbci	r19, 0xFF	; 255
    1d7c:	f9 01       	movw	r30, r18
    1d7e:	80 83       	st	Z, r24
    1d80:	ce 01       	movw	r24, r28
    1d82:	81 55       	subi	r24, 0x51	; 81
    1d84:	9f 4f       	sbci	r25, 0xFF	; 255
    1d86:	fc 01       	movw	r30, r24
    1d88:	60 83       	st	Z, r22
    1d8a:	18 8a       	std	Y+16, r1	; 0x10
    1d8c:	1f 86       	std	Y+15, r1	; 0x0f
    1d8e:	19 82       	std	Y+1, r1	; 0x01
    1d90:	81 e0       	ldi	r24, 0x01	; 1
    1d92:	8a 83       	std	Y+2, r24	; 0x02
    1d94:	87 e8       	ldi	r24, 0x87	; 135
    1d96:	91 e0       	ldi	r25, 0x01	; 1
    1d98:	0e 94 15 04 	call	0x82a	; 0x82a <_ZN6myTime10getSecondsEv>
    1d9c:	88 2f       	mov	r24, r24
    1d9e:	90 e0       	ldi	r25, 0x00	; 0
    1da0:	98 ab       	sts	0x58, r25
    1da2:	8f a7       	lds	r24, 0x7f
    1da4:	8f a5       	lds	r24, 0x6f
    1da6:	98 a9       	sts	0x48, r25
    1da8:	0a 96       	adiw	r24, 0x0a	; 10
    1daa:	2c e3       	ldi	r18, 0x3C	; 60
    1dac:	30 e0       	ldi	r19, 0x00	; 0
    1dae:	b9 01       	movw	r22, r18
    1db0:	0e 94 77 14 	call	0x28ee	; 0x28ee <__divmodhi4>
    1db4:	9a ab       	sts	0x5a, r25
    1db6:	89 ab       	sts	0x59, r24
    1db8:	d7 c3       	rjmp	.+1966   	; 0x2568 <_Z10SendToWAVRhh+0x808>
    1dba:	8f 85       	ldd	r24, Y+15	; 0x0f
    1dbc:	98 89       	ldd	r25, Y+16	; 0x10
    1dbe:	83 30       	cpi	r24, 0x03	; 3
    1dc0:	91 05       	cpc	r25, r1
    1dc2:	09 f4       	brne	.+2      	; 0x1dc6 <_Z10SendToWAVRhh+0x66>
    1dc4:	7d c1       	rjmp	.+762    	; 0x20c0 <_Z10SendToWAVRhh+0x360>
    1dc6:	84 30       	cpi	r24, 0x04	; 4
    1dc8:	91 05       	cpc	r25, r1
    1dca:	5c f4       	brge	.+22     	; 0x1de2 <_Z10SendToWAVRhh+0x82>
    1dcc:	81 30       	cpi	r24, 0x01	; 1
    1dce:	91 05       	cpc	r25, r1
    1dd0:	09 f4       	brne	.+2      	; 0x1dd4 <_Z10SendToWAVRhh+0x74>
    1dd2:	5c c0       	rjmp	.+184    	; 0x1e8c <_Z10SendToWAVRhh+0x12c>
    1dd4:	82 30       	cpi	r24, 0x02	; 2
    1dd6:	91 05       	cpc	r25, r1
    1dd8:	0c f0       	brlt	.+2      	; 0x1ddc <_Z10SendToWAVRhh+0x7c>
    1dda:	f2 c0       	rjmp	.+484    	; 0x1fc0 <_Z10SendToWAVRhh+0x260>
    1ddc:	00 97       	sbiw	r24, 0x00	; 0
    1dde:	71 f0       	breq	.+28     	; 0x1dfc <_Z10SendToWAVRhh+0x9c>
    1de0:	b1 c3       	rjmp	.+1890   	; 0x2544 <_Z10SendToWAVRhh+0x7e4>
    1de2:	85 30       	cpi	r24, 0x05	; 5
    1de4:	91 05       	cpc	r25, r1
    1de6:	09 f4       	brne	.+2      	; 0x1dea <_Z10SendToWAVRhh+0x8a>
    1de8:	97 c2       	rjmp	.+1326   	; 0x2318 <_Z10SendToWAVRhh+0x5b8>
    1dea:	85 30       	cpi	r24, 0x05	; 5
    1dec:	91 05       	cpc	r25, r1
    1dee:	0c f4       	brge	.+2      	; 0x1df2 <_Z10SendToWAVRhh+0x92>
    1df0:	12 c2       	rjmp	.+1060   	; 0x2216 <_Z10SendToWAVRhh+0x4b6>
    1df2:	86 30       	cpi	r24, 0x06	; 6
    1df4:	91 05       	cpc	r25, r1
    1df6:	09 f4       	brne	.+2      	; 0x1dfa <_Z10SendToWAVRhh+0x9a>
    1df8:	24 c3       	rjmp	.+1608   	; 0x2442 <_Z10SendToWAVRhh+0x6e2>
    1dfa:	a4 c3       	rjmp	.+1864   	; 0x2544 <_Z10SendToWAVRhh+0x7e4>
    1dfc:	ce 01       	movw	r24, r28
    1dfe:	82 55       	subi	r24, 0x52	; 82
    1e00:	9f 4f       	sbci	r25, 0xFF	; 255
    1e02:	fc 01       	movw	r30, r24
    1e04:	80 81       	ld	r24, Z
    1e06:	88 23       	and	r24, r24
    1e08:	81 f0       	breq	.+32     	; 0x1e2a <_Z10SendToWAVRhh+0xca>
    1e0a:	ce 01       	movw	r24, r28
    1e0c:	81 55       	subi	r24, 0x51	; 81
    1e0e:	9f 4f       	sbci	r25, 0xFF	; 255
    1e10:	fc 01       	movw	r30, r24
    1e12:	80 81       	ld	r24, Z
    1e14:	88 23       	and	r24, r24
    1e16:	49 f0       	breq	.+18     	; 0x1e2a <_Z10SendToWAVRhh+0xca>
    1e18:	8f e3       	ldi	r24, 0x3F	; 63
    1e1a:	91 e0       	ldi	r25, 0x01	; 1
    1e1c:	0e 94 75 0c 	call	0x18ea	; 0x18ea <_Z9PrintWAVRPc>
    1e20:	81 e0       	ldi	r24, 0x01	; 1
    1e22:	90 e0       	ldi	r25, 0x00	; 0
    1e24:	98 8b       	std	Y+16, r25	; 0x10
    1e26:	8f 87       	std	Y+15, r24	; 0x0f
    1e28:	31 c0       	rjmp	.+98     	; 0x1e8c <_Z10SendToWAVRhh+0x12c>
    1e2a:	ce 01       	movw	r24, r28
    1e2c:	82 55       	subi	r24, 0x52	; 82
    1e2e:	9f 4f       	sbci	r25, 0xFF	; 255
    1e30:	fc 01       	movw	r30, r24
    1e32:	80 81       	ld	r24, Z
    1e34:	88 23       	and	r24, r24
    1e36:	81 f0       	breq	.+32     	; 0x1e58 <_Z10SendToWAVRhh+0xf8>
    1e38:	ce 01       	movw	r24, r28
    1e3a:	81 55       	subi	r24, 0x51	; 81
    1e3c:	9f 4f       	sbci	r25, 0xFF	; 255
    1e3e:	fc 01       	movw	r30, r24
    1e40:	80 81       	ld	r24, Z
    1e42:	88 23       	and	r24, r24
    1e44:	49 f4       	brne	.+18     	; 0x1e58 <_Z10SendToWAVRhh+0xf8>
    1e46:	86 e4       	ldi	r24, 0x46	; 70
    1e48:	91 e0       	ldi	r25, 0x01	; 1
    1e4a:	0e 94 75 0c 	call	0x18ea	; 0x18ea <_Z9PrintWAVRPc>
    1e4e:	83 e0       	ldi	r24, 0x03	; 3
    1e50:	90 e0       	ldi	r25, 0x00	; 0
    1e52:	98 8b       	std	Y+16, r25	; 0x10
    1e54:	8f 87       	std	Y+15, r24	; 0x0f
    1e56:	1a c0       	rjmp	.+52     	; 0x1e8c <_Z10SendToWAVRhh+0x12c>
    1e58:	ce 01       	movw	r24, r28
    1e5a:	82 55       	subi	r24, 0x52	; 82
    1e5c:	9f 4f       	sbci	r25, 0xFF	; 255
    1e5e:	fc 01       	movw	r30, r24
    1e60:	80 81       	ld	r24, Z
    1e62:	88 23       	and	r24, r24
    1e64:	81 f4       	brne	.+32     	; 0x1e86 <_Z10SendToWAVRhh+0x126>
    1e66:	ce 01       	movw	r24, r28
    1e68:	81 55       	subi	r24, 0x51	; 81
    1e6a:	9f 4f       	sbci	r25, 0xFF	; 255
    1e6c:	fc 01       	movw	r30, r24
    1e6e:	80 81       	ld	r24, Z
    1e70:	88 23       	and	r24, r24
    1e72:	49 f0       	breq	.+18     	; 0x1e86 <_Z10SendToWAVRhh+0x126>
    1e74:	8c e4       	ldi	r24, 0x4C	; 76
    1e76:	91 e0       	ldi	r25, 0x01	; 1
    1e78:	0e 94 75 0c 	call	0x18ea	; 0x18ea <_Z9PrintWAVRPc>
    1e7c:	85 e0       	ldi	r24, 0x05	; 5
    1e7e:	90 e0       	ldi	r25, 0x00	; 0
    1e80:	98 8b       	std	Y+16, r25	; 0x10
    1e82:	8f 87       	std	Y+15, r24	; 0x0f
    1e84:	03 c0       	rjmp	.+6      	; 0x1e8c <_Z10SendToWAVRhh+0x12c>
    1e86:	81 e0       	ldi	r24, 0x01	; 1
    1e88:	89 83       	std	Y+1, r24	; 0x01
    1e8a:	5f c3       	rjmp	.+1726   	; 0x254a <_Z10SendToWAVRhh+0x7ea>
    1e8c:	1b ae       	sts	0xbb, r17
    1e8e:	1a ae       	sts	0xba, r17
    1e90:	81 e0       	ldi	r24, 0x01	; 1
    1e92:	8b 83       	std	Y+3, r24	; 0x03
    1e94:	88 c0       	rjmp	.+272    	; 0x1fa6 <_Z10SendToWAVRhh+0x246>
    1e96:	00 00       	nop
    1e98:	88 ec       	ldi	r24, 0xC8	; 200
    1e9a:	90 e0       	ldi	r25, 0x00	; 0
    1e9c:	fc 01       	movw	r30, r24
    1e9e:	80 81       	ld	r24, Z
    1ea0:	88 23       	and	r24, r24
    1ea2:	2c f0       	brlt	.+10     	; 0x1eae <_Z10SendToWAVRhh+0x14e>
    1ea4:	8a 81       	ldd	r24, Y+2	; 0x02
    1ea6:	88 23       	and	r24, r24
    1ea8:	11 f0       	breq	.+4      	; 0x1eae <_Z10SendToWAVRhh+0x14e>
    1eaa:	81 e0       	ldi	r24, 0x01	; 1
    1eac:	01 c0       	rjmp	.+2      	; 0x1eb0 <_Z10SendToWAVRhh+0x150>
    1eae:	80 e0       	ldi	r24, 0x00	; 0
    1eb0:	88 23       	and	r24, r24
    1eb2:	91 f7       	brne	.-28     	; 0x1e98 <_Z10SendToWAVRhh+0x138>
    1eb4:	8e ec       	ldi	r24, 0xCE	; 206
    1eb6:	90 e0       	ldi	r25, 0x00	; 0
    1eb8:	fc 01       	movw	r30, r24
    1eba:	80 81       	ld	r24, Z
    1ebc:	89 87       	std	Y+9, r24	; 0x09
    1ebe:	89 85       	ldd	r24, Y+9	; 0x09
    1ec0:	8e 32       	cpi	r24, 0x2E	; 46
    1ec2:	09 f0       	breq	.+2      	; 0x1ec6 <_Z10SendToWAVRhh+0x166>
    1ec4:	51 c0       	rjmp	.+162    	; 0x1f68 <_Z10SendToWAVRhh+0x208>
    1ec6:	8a ad       	sts	0x6a, r24
    1ec8:	9b ad       	sts	0x6b, r25
    1eca:	9e 01       	movw	r18, r28
    1ecc:	2d 5c       	subi	r18, 0xCD	; 205
    1ece:	3f 4f       	sbci	r19, 0xFF	; 255
    1ed0:	82 0f       	add	r24, r18
    1ed2:	93 1f       	adc	r25, r19
    1ed4:	fc 01       	movw	r30, r24
    1ed6:	10 82       	st	Z, r1
    1ed8:	1b 82       	std	Y+3, r1	; 0x03
    1eda:	ce 01       	movw	r24, r28
    1edc:	c3 96       	adiw	r24, 0x33	; 51
    1ede:	22 e5       	ldi	r18, 0x52	; 82
    1ee0:	31 e0       	ldi	r19, 0x01	; 1
    1ee2:	b9 01       	movw	r22, r18
    1ee4:	0e 94 cd 14 	call	0x299a	; 0x299a <strcmp>
    1ee8:	00 97       	sbiw	r24, 0x00	; 0
    1eea:	b1 f5       	brne	.+108    	; 0x1f58 <_Z10SendToWAVRhh+0x1f8>
    1eec:	82 e0       	ldi	r24, 0x02	; 2
    1eee:	90 e0       	ldi	r25, 0x00	; 0
    1ef0:	98 8b       	std	Y+16, r25	; 0x10
    1ef2:	8f 87       	std	Y+15, r24	; 0x0f
    1ef4:	80 e0       	ldi	r24, 0x00	; 0
    1ef6:	61 e0       	ldi	r22, 0x01	; 1
    1ef8:	41 e0       	ldi	r20, 0x01	; 1
    1efa:	0e 94 e6 13 	call	0x27cc	; 0x27cc <_Z13printTimeDatehhh>
    1efe:	8e e2       	ldi	r24, 0x2E	; 46
    1f00:	0e 94 57 0c 	call	0x18ae	; 0x18ae <_Z13PutUartChWAVRc>
    1f04:	87 e8       	ldi	r24, 0x87	; 135
    1f06:	91 e0       	ldi	r25, 0x01	; 1
    1f08:	0e 94 b0 05 	call	0xb60	; 0xb60 <_ZN6myTime7getTimeEv>
    1f0c:	9c 01       	movw	r18, r24
    1f0e:	ce 01       	movw	r24, r28
    1f10:	41 96       	adiw	r24, 0x11	; 17
    1f12:	b9 01       	movw	r22, r18
    1f14:	0e 94 d6 14 	call	0x29ac	; 0x29ac <strcpy>
    1f18:	ce 01       	movw	r24, r28
    1f1a:	41 96       	adiw	r24, 0x11	; 17
    1f1c:	9c 01       	movw	r18, r24
    1f1e:	f9 01       	movw	r30, r18
    1f20:	01 90       	ld	r0, Z+
    1f22:	00 20       	and	r0, r0
    1f24:	e9 f7       	brne	.-6      	; 0x1f20 <_Z10SendToWAVRhh+0x1c0>
    1f26:	cf 01       	movw	r24, r30
    1f28:	01 97       	sbiw	r24, 0x01	; 1
    1f2a:	82 1b       	sub	r24, r18
    1f2c:	93 0b       	sbc	r25, r19
    1f2e:	9e 01       	movw	r18, r28
    1f30:	2f 5e       	subi	r18, 0xEF	; 239
    1f32:	3f 4f       	sbci	r19, 0xFF	; 255
    1f34:	82 0f       	add	r24, r18
    1f36:	93 1f       	adc	r25, r19
    1f38:	2f e2       	ldi	r18, 0x2F	; 47
    1f3a:	30 e0       	ldi	r19, 0x00	; 0
    1f3c:	fc 01       	movw	r30, r24
    1f3e:	31 83       	std	Z+1, r19	; 0x01
    1f40:	20 83       	st	Z, r18
    1f42:	87 e8       	ldi	r24, 0x87	; 135
    1f44:	91 e0       	ldi	r25, 0x01	; 1
    1f46:	0e 94 02 03 	call	0x604	; 0x604 <_ZN6myDate7getDateEv>
    1f4a:	9c 01       	movw	r18, r24
    1f4c:	ce 01       	movw	r24, r28
    1f4e:	41 96       	adiw	r24, 0x11	; 17
    1f50:	b9 01       	movw	r22, r18
    1f52:	0e 94 c2 14 	call	0x2984	; 0x2984 <strcat>
    1f56:	27 c0       	rjmp	.+78     	; 0x1fa6 <_Z10SendToWAVRhh+0x246>
    1f58:	18 8a       	std	Y+16, r1	; 0x10
    1f5a:	1f 86       	std	Y+15, r1	; 0x0f
    1f5c:	1b 82       	std	Y+3, r1	; 0x03
    1f5e:	88 e5       	ldi	r24, 0x58	; 88
    1f60:	91 e0       	ldi	r25, 0x01	; 1
    1f62:	0e 94 75 0c 	call	0x18ea	; 0x18ea <_Z9PrintWAVRPc>
    1f66:	1f c0       	rjmp	.+62     	; 0x1fa6 <_Z10SendToWAVRhh+0x246>
    1f68:	8a ad       	sts	0x6a, r24
    1f6a:	9b ad       	sts	0x6b, r25
    1f6c:	9e 01       	movw	r18, r28
    1f6e:	2d 5c       	subi	r18, 0xCD	; 205
    1f70:	3f 4f       	sbci	r19, 0xFF	; 255
    1f72:	28 0f       	add	r18, r24
    1f74:	39 1f       	adc	r19, r25
    1f76:	49 85       	ldd	r20, Y+9	; 0x09
    1f78:	f9 01       	movw	r30, r18
    1f7a:	40 83       	st	Z, r20
    1f7c:	01 96       	adiw	r24, 0x01	; 1
    1f7e:	9b af       	sts	0x7b, r25
    1f80:	8a af       	sts	0x7a, r24
    1f82:	8a ad       	sts	0x6a, r24
    1f84:	9b ad       	sts	0x6b, r25
    1f86:	21 e0       	ldi	r18, 0x01	; 1
    1f88:	87 30       	cpi	r24, 0x07	; 7
    1f8a:	91 05       	cpc	r25, r1
    1f8c:	0c f4       	brge	.+2      	; 0x1f90 <_Z10SendToWAVRhh+0x230>
    1f8e:	20 e0       	ldi	r18, 0x00	; 0
    1f90:	22 23       	and	r18, r18
    1f92:	49 f0       	breq	.+18     	; 0x1fa6 <_Z10SendToWAVRhh+0x246>
    1f94:	1b ae       	sts	0xbb, r17
    1f96:	1a ae       	sts	0xba, r17
    1f98:	1b 82       	std	Y+3, r1	; 0x03
    1f9a:	18 8a       	std	Y+16, r1	; 0x10
    1f9c:	1f 86       	std	Y+15, r1	; 0x0f
    1f9e:	88 e5       	ldi	r24, 0x58	; 88
    1fa0:	91 e0       	ldi	r25, 0x01	; 1
    1fa2:	0e 94 75 0c 	call	0x18ea	; 0x18ea <_Z9PrintWAVRPc>
    1fa6:	8b 81       	ldd	r24, Y+3	; 0x03
    1fa8:	88 23       	and	r24, r24
    1faa:	29 f0       	breq	.+10     	; 0x1fb6 <_Z10SendToWAVRhh+0x256>
    1fac:	8a 81       	ldd	r24, Y+2	; 0x02
    1fae:	88 23       	and	r24, r24
    1fb0:	11 f0       	breq	.+4      	; 0x1fb6 <_Z10SendToWAVRhh+0x256>
    1fb2:	81 e0       	ldi	r24, 0x01	; 1
    1fb4:	01 c0       	rjmp	.+2      	; 0x1fb8 <_Z10SendToWAVRhh+0x258>
    1fb6:	80 e0       	ldi	r24, 0x00	; 0
    1fb8:	88 23       	and	r24, r24
    1fba:	09 f0       	breq	.+2      	; 0x1fbe <_Z10SendToWAVRhh+0x25e>
    1fbc:	6c cf       	rjmp	.-296    	; 0x1e96 <_Z10SendToWAVRhh+0x136>
    1fbe:	c5 c2       	rjmp	.+1418   	; 0x254a <_Z10SendToWAVRhh+0x7ea>
    1fc0:	ce 01       	movw	r24, r28
    1fc2:	86 5a       	subi	r24, 0xA6	; 166
    1fc4:	9f 4f       	sbci	r25, 0xFF	; 255
    1fc6:	fc 01       	movw	r30, r24
    1fc8:	11 82       	std	Z+1, r1	; 0x01
    1fca:	10 82       	st	Z, r1
    1fcc:	81 e0       	ldi	r24, 0x01	; 1
    1fce:	8c 83       	std	Y+4, r24	; 0x04
    1fd0:	6a c0       	rjmp	.+212    	; 0x20a6 <_Z10SendToWAVRhh+0x346>
    1fd2:	00 00       	nop
    1fd4:	88 ec       	ldi	r24, 0xC8	; 200
    1fd6:	90 e0       	ldi	r25, 0x00	; 0
    1fd8:	fc 01       	movw	r30, r24
    1fda:	80 81       	ld	r24, Z
    1fdc:	88 23       	and	r24, r24
    1fde:	2c f0       	brlt	.+10     	; 0x1fea <_Z10SendToWAVRhh+0x28a>
    1fe0:	8a 81       	ldd	r24, Y+2	; 0x02
    1fe2:	88 23       	and	r24, r24
    1fe4:	11 f0       	breq	.+4      	; 0x1fea <_Z10SendToWAVRhh+0x28a>
    1fe6:	81 e0       	ldi	r24, 0x01	; 1
    1fe8:	01 c0       	rjmp	.+2      	; 0x1fec <_Z10SendToWAVRhh+0x28c>
    1fea:	80 e0       	ldi	r24, 0x00	; 0
    1fec:	88 23       	and	r24, r24
    1fee:	91 f7       	brne	.-28     	; 0x1fd4 <_Z10SendToWAVRhh+0x274>
    1ff0:	8e ec       	ldi	r24, 0xCE	; 206
    1ff2:	90 e0       	ldi	r25, 0x00	; 0
    1ff4:	fc 01       	movw	r30, r24
    1ff6:	80 81       	ld	r24, Z
    1ff8:	8a 87       	std	Y+10, r24	; 0x0a
    1ffa:	8a 85       	ldd	r24, Y+10	; 0x0a
    1ffc:	8e 32       	cpi	r24, 0x2E	; 46
    1ffe:	11 f5       	brne	.+68     	; 0x2044 <_Z10SendToWAVRhh+0x2e4>
    2000:	ce 01       	movw	r24, r28
    2002:	86 5a       	subi	r24, 0xA6	; 166
    2004:	9f 4f       	sbci	r25, 0xFF	; 255
    2006:	fc 01       	movw	r30, r24
    2008:	80 81       	ld	r24, Z
    200a:	91 81       	ldd	r25, Z+1	; 0x01
    200c:	9e 01       	movw	r18, r28
    200e:	24 5c       	subi	r18, 0xC4	; 196
    2010:	3f 4f       	sbci	r19, 0xFF	; 255
    2012:	82 0f       	add	r24, r18
    2014:	93 1f       	adc	r25, r19
    2016:	fc 01       	movw	r30, r24
    2018:	10 82       	st	Z, r1
    201a:	1c 82       	std	Y+4, r1	; 0x04
    201c:	ce 01       	movw	r24, r28
    201e:	cc 96       	adiw	r24, 0x3c	; 60
    2020:	9e 01       	movw	r18, r28
    2022:	2f 5e       	subi	r18, 0xEF	; 239
    2024:	3f 4f       	sbci	r19, 0xFF	; 255
    2026:	b9 01       	movw	r22, r18
    2028:	0e 94 cd 14 	call	0x299a	; 0x299a <strcmp>
    202c:	00 97       	sbiw	r24, 0x00	; 0
    202e:	19 f4       	brne	.+6      	; 0x2036 <_Z10SendToWAVRhh+0x2d6>
    2030:	81 e0       	ldi	r24, 0x01	; 1
    2032:	89 83       	std	Y+1, r24	; 0x01
    2034:	38 c0       	rjmp	.+112    	; 0x20a6 <_Z10SendToWAVRhh+0x346>
    2036:	18 8a       	std	Y+16, r1	; 0x10
    2038:	1f 86       	std	Y+15, r1	; 0x0f
    203a:	88 e5       	ldi	r24, 0x58	; 88
    203c:	91 e0       	ldi	r25, 0x01	; 1
    203e:	0e 94 75 0c 	call	0x18ea	; 0x18ea <_Z9PrintWAVRPc>
    2042:	31 c0       	rjmp	.+98     	; 0x20a6 <_Z10SendToWAVRhh+0x346>
    2044:	ce 01       	movw	r24, r28
    2046:	86 5a       	subi	r24, 0xA6	; 166
    2048:	9f 4f       	sbci	r25, 0xFF	; 255
    204a:	fc 01       	movw	r30, r24
    204c:	80 81       	ld	r24, Z
    204e:	91 81       	ldd	r25, Z+1	; 0x01
    2050:	9e 01       	movw	r18, r28
    2052:	24 5c       	subi	r18, 0xC4	; 196
    2054:	3f 4f       	sbci	r19, 0xFF	; 255
    2056:	28 0f       	add	r18, r24
    2058:	39 1f       	adc	r19, r25
    205a:	4a 85       	ldd	r20, Y+10	; 0x0a
    205c:	f9 01       	movw	r30, r18
    205e:	40 83       	st	Z, r20
    2060:	9c 01       	movw	r18, r24
    2062:	2f 5f       	subi	r18, 0xFF	; 255
    2064:	3f 4f       	sbci	r19, 0xFF	; 255
    2066:	ce 01       	movw	r24, r28
    2068:	86 5a       	subi	r24, 0xA6	; 166
    206a:	9f 4f       	sbci	r25, 0xFF	; 255
    206c:	fc 01       	movw	r30, r24
    206e:	31 83       	std	Z+1, r19	; 0x01
    2070:	20 83       	st	Z, r18
    2072:	ce 01       	movw	r24, r28
    2074:	86 5a       	subi	r24, 0xA6	; 166
    2076:	9f 4f       	sbci	r25, 0xFF	; 255
    2078:	fc 01       	movw	r30, r24
    207a:	80 81       	ld	r24, Z
    207c:	91 81       	ldd	r25, Z+1	; 0x01
    207e:	21 e0       	ldi	r18, 0x01	; 1
    2080:	8f 31       	cpi	r24, 0x1F	; 31
    2082:	91 05       	cpc	r25, r1
    2084:	0c f4       	brge	.+2      	; 0x2088 <_Z10SendToWAVRhh+0x328>
    2086:	20 e0       	ldi	r18, 0x00	; 0
    2088:	22 23       	and	r18, r18
    208a:	69 f0       	breq	.+26     	; 0x20a6 <_Z10SendToWAVRhh+0x346>
    208c:	ce 01       	movw	r24, r28
    208e:	86 5a       	subi	r24, 0xA6	; 166
    2090:	9f 4f       	sbci	r25, 0xFF	; 255
    2092:	fc 01       	movw	r30, r24
    2094:	11 82       	std	Z+1, r1	; 0x01
    2096:	10 82       	st	Z, r1
    2098:	18 8a       	std	Y+16, r1	; 0x10
    209a:	1f 86       	std	Y+15, r1	; 0x0f
    209c:	1c 82       	std	Y+4, r1	; 0x04
    209e:	88 e5       	ldi	r24, 0x58	; 88
    20a0:	91 e0       	ldi	r25, 0x01	; 1
    20a2:	0e 94 75 0c 	call	0x18ea	; 0x18ea <_Z9PrintWAVRPc>
    20a6:	8c 81       	ldd	r24, Y+4	; 0x04
    20a8:	88 23       	and	r24, r24
    20aa:	29 f0       	breq	.+10     	; 0x20b6 <_Z10SendToWAVRhh+0x356>
    20ac:	8a 81       	ldd	r24, Y+2	; 0x02
    20ae:	88 23       	and	r24, r24
    20b0:	11 f0       	breq	.+4      	; 0x20b6 <_Z10SendToWAVRhh+0x356>
    20b2:	81 e0       	ldi	r24, 0x01	; 1
    20b4:	01 c0       	rjmp	.+2      	; 0x20b8 <_Z10SendToWAVRhh+0x358>
    20b6:	80 e0       	ldi	r24, 0x00	; 0
    20b8:	88 23       	and	r24, r24
    20ba:	09 f0       	breq	.+2      	; 0x20be <_Z10SendToWAVRhh+0x35e>
    20bc:	8a cf       	rjmp	.-236    	; 0x1fd2 <_Z10SendToWAVRhh+0x272>
    20be:	45 c2       	rjmp	.+1162   	; 0x254a <_Z10SendToWAVRhh+0x7ea>
    20c0:	ce 01       	movw	r24, r28
    20c2:	8d 59       	subi	r24, 0x9D	; 157
    20c4:	9f 4f       	sbci	r25, 0xFF	; 255
    20c6:	fc 01       	movw	r30, r24
    20c8:	11 82       	std	Z+1, r1	; 0x01
    20ca:	10 82       	st	Z, r1
    20cc:	81 e0       	ldi	r24, 0x01	; 1
    20ce:	8d 83       	std	Y+5, r24	; 0x05
    20d0:	95 c0       	rjmp	.+298    	; 0x21fc <_Z10SendToWAVRhh+0x49c>
    20d2:	00 00       	nop
    20d4:	88 ec       	ldi	r24, 0xC8	; 200
    20d6:	90 e0       	ldi	r25, 0x00	; 0
    20d8:	fc 01       	movw	r30, r24
    20da:	80 81       	ld	r24, Z
    20dc:	88 23       	and	r24, r24
    20de:	2c f0       	brlt	.+10     	; 0x20ea <_Z10SendToWAVRhh+0x38a>
    20e0:	8a 81       	ldd	r24, Y+2	; 0x02
    20e2:	88 23       	and	r24, r24
    20e4:	11 f0       	breq	.+4      	; 0x20ea <_Z10SendToWAVRhh+0x38a>
    20e6:	81 e0       	ldi	r24, 0x01	; 1
    20e8:	01 c0       	rjmp	.+2      	; 0x20ec <_Z10SendToWAVRhh+0x38c>
    20ea:	80 e0       	ldi	r24, 0x00	; 0
    20ec:	88 23       	and	r24, r24
    20ee:	91 f7       	brne	.-28     	; 0x20d4 <_Z10SendToWAVRhh+0x374>
    20f0:	8e ec       	ldi	r24, 0xCE	; 206
    20f2:	90 e0       	ldi	r25, 0x00	; 0
    20f4:	fc 01       	movw	r30, r24
    20f6:	80 81       	ld	r24, Z
    20f8:	8b 87       	std	Y+11, r24	; 0x0b
    20fa:	8b 85       	ldd	r24, Y+11	; 0x0b
    20fc:	8e 32       	cpi	r24, 0x2E	; 46
    20fe:	09 f0       	breq	.+2      	; 0x2102 <_Z10SendToWAVRhh+0x3a2>
    2100:	4c c0       	rjmp	.+152    	; 0x219a <_Z10SendToWAVRhh+0x43a>
    2102:	ce 01       	movw	r24, r28
    2104:	8d 59       	subi	r24, 0x9D	; 157
    2106:	9f 4f       	sbci	r25, 0xFF	; 255
    2108:	fc 01       	movw	r30, r24
    210a:	80 81       	ld	r24, Z
    210c:	91 81       	ldd	r25, Z+1	; 0x01
    210e:	9e 01       	movw	r18, r28
    2110:	24 5a       	subi	r18, 0xA4	; 164
    2112:	3f 4f       	sbci	r19, 0xFF	; 255
    2114:	82 0f       	add	r24, r18
    2116:	93 1f       	adc	r25, r19
    2118:	fc 01       	movw	r30, r24
    211a:	10 82       	st	Z, r1
    211c:	1d 82       	std	Y+5, r1	; 0x05
    211e:	ce 01       	movw	r24, r28
    2120:	84 5a       	subi	r24, 0xA4	; 164
    2122:	9f 4f       	sbci	r25, 0xFF	; 255
    2124:	22 e6       	ldi	r18, 0x62	; 98
    2126:	31 e0       	ldi	r19, 0x01	; 1
    2128:	b9 01       	movw	r22, r18
    212a:	0e 94 cd 14 	call	0x299a	; 0x299a <strcmp>
    212e:	00 97       	sbiw	r24, 0x00	; 0
    2130:	61 f5       	brne	.+88     	; 0x218a <_Z10SendToWAVRhh+0x42a>
    2132:	84 e0       	ldi	r24, 0x04	; 4
    2134:	90 e0       	ldi	r25, 0x00	; 0
    2136:	98 8b       	std	Y+16, r25	; 0x10
    2138:	8f 87       	std	Y+15, r24	; 0x0f
    213a:	80 e0       	ldi	r24, 0x00	; 0
    213c:	61 e0       	ldi	r22, 0x01	; 1
    213e:	40 e0       	ldi	r20, 0x00	; 0
    2140:	0e 94 e6 13 	call	0x27cc	; 0x27cc <_Z13printTimeDatehhh>
    2144:	87 e8       	ldi	r24, 0x87	; 135
    2146:	91 e0       	ldi	r25, 0x01	; 1
    2148:	0e 94 b0 05 	call	0xb60	; 0xb60 <_ZN6myTime7getTimeEv>
    214c:	9c 01       	movw	r18, r24
    214e:	ce 01       	movw	r24, r28
    2150:	41 96       	adiw	r24, 0x11	; 17
    2152:	b9 01       	movw	r22, r18
    2154:	0e 94 d6 14 	call	0x29ac	; 0x29ac <strcpy>
    2158:	ce 01       	movw	r24, r28
    215a:	41 96       	adiw	r24, 0x11	; 17
    215c:	9c 01       	movw	r18, r24
    215e:	f9 01       	movw	r30, r18
    2160:	01 90       	ld	r0, Z+
    2162:	00 20       	and	r0, r0
    2164:	e9 f7       	brne	.-6      	; 0x2160 <_Z10SendToWAVRhh+0x400>
    2166:	cf 01       	movw	r24, r30
    2168:	01 97       	sbiw	r24, 0x01	; 1
    216a:	82 1b       	sub	r24, r18
    216c:	93 0b       	sbc	r25, r19
    216e:	9e 01       	movw	r18, r28
    2170:	2f 5e       	subi	r18, 0xEF	; 239
    2172:	3f 4f       	sbci	r19, 0xFF	; 255
    2174:	82 0f       	add	r24, r18
    2176:	93 1f       	adc	r25, r19
    2178:	2f e2       	ldi	r18, 0x2F	; 47
    217a:	30 e0       	ldi	r19, 0x00	; 0
    217c:	fc 01       	movw	r30, r24
    217e:	31 83       	std	Z+1, r19	; 0x01
    2180:	20 83       	st	Z, r18
    2182:	8e e2       	ldi	r24, 0x2E	; 46
    2184:	0e 94 57 0c 	call	0x18ae	; 0x18ae <_Z13PutUartChWAVRc>
    2188:	39 c0       	rjmp	.+114    	; 0x21fc <_Z10SendToWAVRhh+0x49c>
    218a:	18 8a       	std	Y+16, r1	; 0x10
    218c:	1f 86       	std	Y+15, r1	; 0x0f
    218e:	1d 82       	std	Y+5, r1	; 0x05
    2190:	88 e5       	ldi	r24, 0x58	; 88
    2192:	91 e0       	ldi	r25, 0x01	; 1
    2194:	0e 94 75 0c 	call	0x18ea	; 0x18ea <_Z9PrintWAVRPc>
    2198:	31 c0       	rjmp	.+98     	; 0x21fc <_Z10SendToWAVRhh+0x49c>
    219a:	ce 01       	movw	r24, r28
    219c:	8d 59       	subi	r24, 0x9D	; 157
    219e:	9f 4f       	sbci	r25, 0xFF	; 255
    21a0:	fc 01       	movw	r30, r24
    21a2:	80 81       	ld	r24, Z
    21a4:	91 81       	ldd	r25, Z+1	; 0x01
    21a6:	9e 01       	movw	r18, r28
    21a8:	24 5a       	subi	r18, 0xA4	; 164
    21aa:	3f 4f       	sbci	r19, 0xFF	; 255
    21ac:	28 0f       	add	r18, r24
    21ae:	39 1f       	adc	r19, r25
    21b0:	4b 85       	ldd	r20, Y+11	; 0x0b
    21b2:	f9 01       	movw	r30, r18
    21b4:	40 83       	st	Z, r20
    21b6:	9c 01       	movw	r18, r24
    21b8:	2f 5f       	subi	r18, 0xFF	; 255
    21ba:	3f 4f       	sbci	r19, 0xFF	; 255
    21bc:	ce 01       	movw	r24, r28
    21be:	8d 59       	subi	r24, 0x9D	; 157
    21c0:	9f 4f       	sbci	r25, 0xFF	; 255
    21c2:	fc 01       	movw	r30, r24
    21c4:	31 83       	std	Z+1, r19	; 0x01
    21c6:	20 83       	st	Z, r18
    21c8:	ce 01       	movw	r24, r28
    21ca:	8d 59       	subi	r24, 0x9D	; 157
    21cc:	9f 4f       	sbci	r25, 0xFF	; 255
    21ce:	fc 01       	movw	r30, r24
    21d0:	80 81       	ld	r24, Z
    21d2:	91 81       	ldd	r25, Z+1	; 0x01
    21d4:	21 e0       	ldi	r18, 0x01	; 1
    21d6:	87 30       	cpi	r24, 0x07	; 7
    21d8:	91 05       	cpc	r25, r1
    21da:	0c f4       	brge	.+2      	; 0x21de <_Z10SendToWAVRhh+0x47e>
    21dc:	20 e0       	ldi	r18, 0x00	; 0
    21de:	22 23       	and	r18, r18
    21e0:	69 f0       	breq	.+26     	; 0x21fc <_Z10SendToWAVRhh+0x49c>
    21e2:	ce 01       	movw	r24, r28
    21e4:	8d 59       	subi	r24, 0x9D	; 157
    21e6:	9f 4f       	sbci	r25, 0xFF	; 255
    21e8:	fc 01       	movw	r30, r24
    21ea:	11 82       	std	Z+1, r1	; 0x01
    21ec:	10 82       	st	Z, r1
    21ee:	1d 82       	std	Y+5, r1	; 0x05
    21f0:	18 8a       	std	Y+16, r1	; 0x10
    21f2:	1f 86       	std	Y+15, r1	; 0x0f
    21f4:	88 e5       	ldi	r24, 0x58	; 88
    21f6:	91 e0       	ldi	r25, 0x01	; 1
    21f8:	0e 94 75 0c 	call	0x18ea	; 0x18ea <_Z9PrintWAVRPc>
    21fc:	8d 81       	ldd	r24, Y+5	; 0x05
    21fe:	88 23       	and	r24, r24
    2200:	29 f0       	breq	.+10     	; 0x220c <_Z10SendToWAVRhh+0x4ac>
    2202:	8a 81       	ldd	r24, Y+2	; 0x02
    2204:	88 23       	and	r24, r24
    2206:	11 f0       	breq	.+4      	; 0x220c <_Z10SendToWAVRhh+0x4ac>
    2208:	81 e0       	ldi	r24, 0x01	; 1
    220a:	01 c0       	rjmp	.+2      	; 0x220e <_Z10SendToWAVRhh+0x4ae>
    220c:	80 e0       	ldi	r24, 0x00	; 0
    220e:	88 23       	and	r24, r24
    2210:	09 f0       	breq	.+2      	; 0x2214 <_Z10SendToWAVRhh+0x4b4>
    2212:	5f cf       	rjmp	.-322    	; 0x20d2 <_Z10SendToWAVRhh+0x372>
    2214:	9a c1       	rjmp	.+820    	; 0x254a <_Z10SendToWAVRhh+0x7ea>
    2216:	ce 01       	movw	r24, r28
    2218:	8d 57       	subi	r24, 0x7D	; 125
    221a:	9f 4f       	sbci	r25, 0xFF	; 255
    221c:	fc 01       	movw	r30, r24
    221e:	11 82       	std	Z+1, r1	; 0x01
    2220:	10 82       	st	Z, r1
    2222:	81 e0       	ldi	r24, 0x01	; 1
    2224:	8e 83       	std	Y+6, r24	; 0x06
    2226:	6b c0       	rjmp	.+214    	; 0x22fe <_Z10SendToWAVRhh+0x59e>
    2228:	00 00       	nop
    222a:	88 ec       	ldi	r24, 0xC8	; 200
    222c:	90 e0       	ldi	r25, 0x00	; 0
    222e:	fc 01       	movw	r30, r24
    2230:	80 81       	ld	r24, Z
    2232:	88 23       	and	r24, r24
    2234:	2c f0       	brlt	.+10     	; 0x2240 <_Z10SendToWAVRhh+0x4e0>
    2236:	8a 81       	ldd	r24, Y+2	; 0x02
    2238:	88 23       	and	r24, r24
    223a:	11 f0       	breq	.+4      	; 0x2240 <_Z10SendToWAVRhh+0x4e0>
    223c:	81 e0       	ldi	r24, 0x01	; 1
    223e:	01 c0       	rjmp	.+2      	; 0x2242 <_Z10SendToWAVRhh+0x4e2>
    2240:	80 e0       	ldi	r24, 0x00	; 0
    2242:	88 23       	and	r24, r24
    2244:	91 f7       	brne	.-28     	; 0x222a <_Z10SendToWAVRhh+0x4ca>
    2246:	8e ec       	ldi	r24, 0xCE	; 206
    2248:	90 e0       	ldi	r25, 0x00	; 0
    224a:	fc 01       	movw	r30, r24
    224c:	80 81       	ld	r24, Z
    224e:	8c 87       	std	Y+12, r24	; 0x0c
    2250:	8c 85       	ldd	r24, Y+12	; 0x0c
    2252:	8e 32       	cpi	r24, 0x2E	; 46
    2254:	19 f5       	brne	.+70     	; 0x229c <_Z10SendToWAVRhh+0x53c>
    2256:	ce 01       	movw	r24, r28
    2258:	8d 57       	subi	r24, 0x7D	; 125
    225a:	9f 4f       	sbci	r25, 0xFF	; 255
    225c:	fc 01       	movw	r30, r24
    225e:	80 81       	ld	r24, Z
    2260:	91 81       	ldd	r25, Z+1	; 0x01
    2262:	9e 01       	movw	r18, r28
    2264:	2b 59       	subi	r18, 0x9B	; 155
    2266:	3f 4f       	sbci	r19, 0xFF	; 255
    2268:	82 0f       	add	r24, r18
    226a:	93 1f       	adc	r25, r19
    226c:	fc 01       	movw	r30, r24
    226e:	10 82       	st	Z, r1
    2270:	1e 82       	std	Y+6, r1	; 0x06
    2272:	ce 01       	movw	r24, r28
    2274:	8b 59       	subi	r24, 0x9B	; 155
    2276:	9f 4f       	sbci	r25, 0xFF	; 255
    2278:	9e 01       	movw	r18, r28
    227a:	2f 5e       	subi	r18, 0xEF	; 239
    227c:	3f 4f       	sbci	r19, 0xFF	; 255
    227e:	b9 01       	movw	r22, r18
    2280:	0e 94 cd 14 	call	0x299a	; 0x299a <strcmp>
    2284:	00 97       	sbiw	r24, 0x00	; 0
    2286:	19 f4       	brne	.+6      	; 0x228e <_Z10SendToWAVRhh+0x52e>
    2288:	81 e0       	ldi	r24, 0x01	; 1
    228a:	89 83       	std	Y+1, r24	; 0x01
    228c:	38 c0       	rjmp	.+112    	; 0x22fe <_Z10SendToWAVRhh+0x59e>
    228e:	18 8a       	std	Y+16, r1	; 0x10
    2290:	1f 86       	std	Y+15, r1	; 0x0f
    2292:	88 e5       	ldi	r24, 0x58	; 88
    2294:	91 e0       	ldi	r25, 0x01	; 1
    2296:	0e 94 75 0c 	call	0x18ea	; 0x18ea <_Z9PrintWAVRPc>
    229a:	31 c0       	rjmp	.+98     	; 0x22fe <_Z10SendToWAVRhh+0x59e>
    229c:	ce 01       	movw	r24, r28
    229e:	8d 57       	subi	r24, 0x7D	; 125
    22a0:	9f 4f       	sbci	r25, 0xFF	; 255
    22a2:	fc 01       	movw	r30, r24
    22a4:	80 81       	ld	r24, Z
    22a6:	91 81       	ldd	r25, Z+1	; 0x01
    22a8:	9e 01       	movw	r18, r28
    22aa:	2b 59       	subi	r18, 0x9B	; 155
    22ac:	3f 4f       	sbci	r19, 0xFF	; 255
    22ae:	28 0f       	add	r18, r24
    22b0:	39 1f       	adc	r19, r25
    22b2:	4c 85       	ldd	r20, Y+12	; 0x0c
    22b4:	f9 01       	movw	r30, r18
    22b6:	40 83       	st	Z, r20
    22b8:	9c 01       	movw	r18, r24
    22ba:	2f 5f       	subi	r18, 0xFF	; 255
    22bc:	3f 4f       	sbci	r19, 0xFF	; 255
    22be:	ce 01       	movw	r24, r28
    22c0:	8d 57       	subi	r24, 0x7D	; 125
    22c2:	9f 4f       	sbci	r25, 0xFF	; 255
    22c4:	fc 01       	movw	r30, r24
    22c6:	31 83       	std	Z+1, r19	; 0x01
    22c8:	20 83       	st	Z, r18
    22ca:	ce 01       	movw	r24, r28
    22cc:	8d 57       	subi	r24, 0x7D	; 125
    22ce:	9f 4f       	sbci	r25, 0xFF	; 255
    22d0:	fc 01       	movw	r30, r24
    22d2:	80 81       	ld	r24, Z
    22d4:	91 81       	ldd	r25, Z+1	; 0x01
    22d6:	21 e0       	ldi	r18, 0x01	; 1
    22d8:	8f 31       	cpi	r24, 0x1F	; 31
    22da:	91 05       	cpc	r25, r1
    22dc:	0c f4       	brge	.+2      	; 0x22e0 <_Z10SendToWAVRhh+0x580>
    22de:	20 e0       	ldi	r18, 0x00	; 0
    22e0:	22 23       	and	r18, r18
    22e2:	69 f0       	breq	.+26     	; 0x22fe <_Z10SendToWAVRhh+0x59e>
    22e4:	ce 01       	movw	r24, r28
    22e6:	8d 57       	subi	r24, 0x7D	; 125
    22e8:	9f 4f       	sbci	r25, 0xFF	; 255
    22ea:	fc 01       	movw	r30, r24
    22ec:	11 82       	std	Z+1, r1	; 0x01
    22ee:	10 82       	st	Z, r1
    22f0:	18 8a       	std	Y+16, r1	; 0x10
    22f2:	1f 86       	std	Y+15, r1	; 0x0f
    22f4:	1e 82       	std	Y+6, r1	; 0x06
    22f6:	88 e5       	ldi	r24, 0x58	; 88
    22f8:	91 e0       	ldi	r25, 0x01	; 1
    22fa:	0e 94 75 0c 	call	0x18ea	; 0x18ea <_Z9PrintWAVRPc>
    22fe:	8e 81       	ldd	r24, Y+6	; 0x06
    2300:	88 23       	and	r24, r24
    2302:	29 f0       	breq	.+10     	; 0x230e <_Z10SendToWAVRhh+0x5ae>
    2304:	8a 81       	ldd	r24, Y+2	; 0x02
    2306:	88 23       	and	r24, r24
    2308:	11 f0       	breq	.+4      	; 0x230e <_Z10SendToWAVRhh+0x5ae>
    230a:	81 e0       	ldi	r24, 0x01	; 1
    230c:	01 c0       	rjmp	.+2      	; 0x2310 <_Z10SendToWAVRhh+0x5b0>
    230e:	80 e0       	ldi	r24, 0x00	; 0
    2310:	88 23       	and	r24, r24
    2312:	09 f0       	breq	.+2      	; 0x2316 <_Z10SendToWAVRhh+0x5b6>
    2314:	89 cf       	rjmp	.-238    	; 0x2228 <_Z10SendToWAVRhh+0x4c8>
    2316:	19 c1       	rjmp	.+562    	; 0x254a <_Z10SendToWAVRhh+0x7ea>
    2318:	ce 01       	movw	r24, r28
    231a:	84 57       	subi	r24, 0x74	; 116
    231c:	9f 4f       	sbci	r25, 0xFF	; 255
    231e:	fc 01       	movw	r30, r24
    2320:	11 82       	std	Z+1, r1	; 0x01
    2322:	10 82       	st	Z, r1
    2324:	81 e0       	ldi	r24, 0x01	; 1
    2326:	8f 83       	std	Y+7, r24	; 0x07
    2328:	7f c0       	rjmp	.+254    	; 0x2428 <_Z10SendToWAVRhh+0x6c8>
    232a:	00 00       	nop
    232c:	88 ec       	ldi	r24, 0xC8	; 200
    232e:	90 e0       	ldi	r25, 0x00	; 0
    2330:	fc 01       	movw	r30, r24
    2332:	80 81       	ld	r24, Z
    2334:	88 23       	and	r24, r24
    2336:	2c f0       	brlt	.+10     	; 0x2342 <_Z10SendToWAVRhh+0x5e2>
    2338:	8a 81       	ldd	r24, Y+2	; 0x02
    233a:	88 23       	and	r24, r24
    233c:	11 f0       	breq	.+4      	; 0x2342 <_Z10SendToWAVRhh+0x5e2>
    233e:	81 e0       	ldi	r24, 0x01	; 1
    2340:	01 c0       	rjmp	.+2      	; 0x2344 <_Z10SendToWAVRhh+0x5e4>
    2342:	80 e0       	ldi	r24, 0x00	; 0
    2344:	88 23       	and	r24, r24
    2346:	91 f7       	brne	.-28     	; 0x232c <_Z10SendToWAVRhh+0x5cc>
    2348:	8e ec       	ldi	r24, 0xCE	; 206
    234a:	90 e0       	ldi	r25, 0x00	; 0
    234c:	fc 01       	movw	r30, r24
    234e:	80 81       	ld	r24, Z
    2350:	8d 87       	std	Y+13, r24	; 0x0d
    2352:	8d 85       	ldd	r24, Y+13	; 0x0d
    2354:	8e 32       	cpi	r24, 0x2E	; 46
    2356:	b9 f5       	brne	.+110    	; 0x23c6 <_Z10SendToWAVRhh+0x666>
    2358:	ce 01       	movw	r24, r28
    235a:	84 57       	subi	r24, 0x74	; 116
    235c:	9f 4f       	sbci	r25, 0xFF	; 255
    235e:	fc 01       	movw	r30, r24
    2360:	80 81       	ld	r24, Z
    2362:	91 81       	ldd	r25, Z+1	; 0x01
    2364:	9e 01       	movw	r18, r28
    2366:	2b 57       	subi	r18, 0x7B	; 123
    2368:	3f 4f       	sbci	r19, 0xFF	; 255
    236a:	82 0f       	add	r24, r18
    236c:	93 1f       	adc	r25, r19
    236e:	fc 01       	movw	r30, r24
    2370:	10 82       	st	Z, r1
    2372:	1f 82       	std	Y+7, r1	; 0x07
    2374:	ce 01       	movw	r24, r28
    2376:	8b 57       	subi	r24, 0x7B	; 123
    2378:	9f 4f       	sbci	r25, 0xFF	; 255
    237a:	27 e6       	ldi	r18, 0x67	; 103
    237c:	31 e0       	ldi	r19, 0x01	; 1
    237e:	b9 01       	movw	r22, r18
    2380:	0e 94 cd 14 	call	0x299a	; 0x299a <strcmp>
    2384:	00 97       	sbiw	r24, 0x00	; 0
    2386:	b9 f4       	brne	.+46     	; 0x23b6 <_Z10SendToWAVRhh+0x656>
    2388:	86 e0       	ldi	r24, 0x06	; 6
    238a:	90 e0       	ldi	r25, 0x00	; 0
    238c:	98 8b       	std	Y+16, r25	; 0x10
    238e:	8f 87       	std	Y+15, r24	; 0x0f
    2390:	80 e0       	ldi	r24, 0x00	; 0
    2392:	60 e0       	ldi	r22, 0x00	; 0
    2394:	41 e0       	ldi	r20, 0x01	; 1
    2396:	0e 94 e6 13 	call	0x27cc	; 0x27cc <_Z13printTimeDatehhh>
    239a:	8e e2       	ldi	r24, 0x2E	; 46
    239c:	0e 94 57 0c 	call	0x18ae	; 0x18ae <_Z13PutUartChWAVRc>
    23a0:	87 e8       	ldi	r24, 0x87	; 135
    23a2:	91 e0       	ldi	r25, 0x01	; 1
    23a4:	0e 94 02 03 	call	0x604	; 0x604 <_ZN6myDate7getDateEv>
    23a8:	9c 01       	movw	r18, r24
    23aa:	ce 01       	movw	r24, r28
    23ac:	41 96       	adiw	r24, 0x11	; 17
    23ae:	b9 01       	movw	r22, r18
    23b0:	0e 94 d6 14 	call	0x29ac	; 0x29ac <strcpy>
    23b4:	39 c0       	rjmp	.+114    	; 0x2428 <_Z10SendToWAVRhh+0x6c8>
    23b6:	18 8a       	std	Y+16, r1	; 0x10
    23b8:	1f 86       	std	Y+15, r1	; 0x0f
    23ba:	1f 82       	std	Y+7, r1	; 0x07
    23bc:	88 e5       	ldi	r24, 0x58	; 88
    23be:	91 e0       	ldi	r25, 0x01	; 1
    23c0:	0e 94 75 0c 	call	0x18ea	; 0x18ea <_Z9PrintWAVRPc>
    23c4:	31 c0       	rjmp	.+98     	; 0x2428 <_Z10SendToWAVRhh+0x6c8>
    23c6:	ce 01       	movw	r24, r28
    23c8:	84 57       	subi	r24, 0x74	; 116
    23ca:	9f 4f       	sbci	r25, 0xFF	; 255
    23cc:	fc 01       	movw	r30, r24
    23ce:	80 81       	ld	r24, Z
    23d0:	91 81       	ldd	r25, Z+1	; 0x01
    23d2:	9e 01       	movw	r18, r28
    23d4:	2b 57       	subi	r18, 0x7B	; 123
    23d6:	3f 4f       	sbci	r19, 0xFF	; 255
    23d8:	28 0f       	add	r18, r24
    23da:	39 1f       	adc	r19, r25
    23dc:	4d 85       	ldd	r20, Y+13	; 0x0d
    23de:	f9 01       	movw	r30, r18
    23e0:	40 83       	st	Z, r20
    23e2:	9c 01       	movw	r18, r24
    23e4:	2f 5f       	subi	r18, 0xFF	; 255
    23e6:	3f 4f       	sbci	r19, 0xFF	; 255
    23e8:	ce 01       	movw	r24, r28
    23ea:	84 57       	subi	r24, 0x74	; 116
    23ec:	9f 4f       	sbci	r25, 0xFF	; 255
    23ee:	fc 01       	movw	r30, r24
    23f0:	31 83       	std	Z+1, r19	; 0x01
    23f2:	20 83       	st	Z, r18
    23f4:	ce 01       	movw	r24, r28
    23f6:	84 57       	subi	r24, 0x74	; 116
    23f8:	9f 4f       	sbci	r25, 0xFF	; 255
    23fa:	fc 01       	movw	r30, r24
    23fc:	80 81       	ld	r24, Z
    23fe:	91 81       	ldd	r25, Z+1	; 0x01
    2400:	21 e0       	ldi	r18, 0x01	; 1
    2402:	87 30       	cpi	r24, 0x07	; 7
    2404:	91 05       	cpc	r25, r1
    2406:	0c f4       	brge	.+2      	; 0x240a <_Z10SendToWAVRhh+0x6aa>
    2408:	20 e0       	ldi	r18, 0x00	; 0
    240a:	22 23       	and	r18, r18
    240c:	69 f0       	breq	.+26     	; 0x2428 <_Z10SendToWAVRhh+0x6c8>
    240e:	ce 01       	movw	r24, r28
    2410:	84 57       	subi	r24, 0x74	; 116
    2412:	9f 4f       	sbci	r25, 0xFF	; 255
    2414:	fc 01       	movw	r30, r24
    2416:	11 82       	std	Z+1, r1	; 0x01
    2418:	10 82       	st	Z, r1
    241a:	1f 82       	std	Y+7, r1	; 0x07
    241c:	18 8a       	std	Y+16, r1	; 0x10
    241e:	1f 86       	std	Y+15, r1	; 0x0f
    2420:	88 e5       	ldi	r24, 0x58	; 88
    2422:	91 e0       	ldi	r25, 0x01	; 1
    2424:	0e 94 75 0c 	call	0x18ea	; 0x18ea <_Z9PrintWAVRPc>
    2428:	8f 81       	ldd	r24, Y+7	; 0x07
    242a:	88 23       	and	r24, r24
    242c:	29 f0       	breq	.+10     	; 0x2438 <_Z10SendToWAVRhh+0x6d8>
    242e:	8a 81       	ldd	r24, Y+2	; 0x02
    2430:	88 23       	and	r24, r24
    2432:	11 f0       	breq	.+4      	; 0x2438 <_Z10SendToWAVRhh+0x6d8>
    2434:	81 e0       	ldi	r24, 0x01	; 1
    2436:	01 c0       	rjmp	.+2      	; 0x243a <_Z10SendToWAVRhh+0x6da>
    2438:	80 e0       	ldi	r24, 0x00	; 0
    243a:	88 23       	and	r24, r24
    243c:	09 f0       	breq	.+2      	; 0x2440 <_Z10SendToWAVRhh+0x6e0>
    243e:	75 cf       	rjmp	.-278    	; 0x232a <_Z10SendToWAVRhh+0x5ca>
    2440:	84 c0       	rjmp	.+264    	; 0x254a <_Z10SendToWAVRhh+0x7ea>
    2442:	ce 01       	movw	r24, r28
    2444:	84 55       	subi	r24, 0x54	; 84
    2446:	9f 4f       	sbci	r25, 0xFF	; 255
    2448:	fc 01       	movw	r30, r24
    244a:	11 82       	std	Z+1, r1	; 0x01
    244c:	10 82       	st	Z, r1
    244e:	81 e0       	ldi	r24, 0x01	; 1
    2450:	88 87       	std	Y+8, r24	; 0x08
    2452:	6b c0       	rjmp	.+214    	; 0x252a <_Z10SendToWAVRhh+0x7ca>
    2454:	00 00       	nop
    2456:	88 ec       	ldi	r24, 0xC8	; 200
    2458:	90 e0       	ldi	r25, 0x00	; 0
    245a:	fc 01       	movw	r30, r24
    245c:	80 81       	ld	r24, Z
    245e:	88 23       	and	r24, r24
    2460:	2c f0       	brlt	.+10     	; 0x246c <_Z10SendToWAVRhh+0x70c>
    2462:	8a 81       	ldd	r24, Y+2	; 0x02
    2464:	88 23       	and	r24, r24
    2466:	11 f0       	breq	.+4      	; 0x246c <_Z10SendToWAVRhh+0x70c>
    2468:	81 e0       	ldi	r24, 0x01	; 1
    246a:	01 c0       	rjmp	.+2      	; 0x246e <_Z10SendToWAVRhh+0x70e>
    246c:	80 e0       	ldi	r24, 0x00	; 0
    246e:	88 23       	and	r24, r24
    2470:	91 f7       	brne	.-28     	; 0x2456 <_Z10SendToWAVRhh+0x6f6>
    2472:	8e ec       	ldi	r24, 0xCE	; 206
    2474:	90 e0       	ldi	r25, 0x00	; 0
    2476:	fc 01       	movw	r30, r24
    2478:	80 81       	ld	r24, Z
    247a:	8e 87       	std	Y+14, r24	; 0x0e
    247c:	8e 85       	ldd	r24, Y+14	; 0x0e
    247e:	8e 32       	cpi	r24, 0x2E	; 46
    2480:	19 f5       	brne	.+70     	; 0x24c8 <_Z10SendToWAVRhh+0x768>
    2482:	ce 01       	movw	r24, r28
    2484:	84 55       	subi	r24, 0x54	; 84
    2486:	9f 4f       	sbci	r25, 0xFF	; 255
    2488:	fc 01       	movw	r30, r24
    248a:	80 81       	ld	r24, Z
    248c:	91 81       	ldd	r25, Z+1	; 0x01
    248e:	9e 01       	movw	r18, r28
    2490:	22 57       	subi	r18, 0x72	; 114
    2492:	3f 4f       	sbci	r19, 0xFF	; 255
    2494:	82 0f       	add	r24, r18
    2496:	93 1f       	adc	r25, r19
    2498:	fc 01       	movw	r30, r24
    249a:	10 82       	st	Z, r1
    249c:	18 86       	std	Y+8, r1	; 0x08
    249e:	ce 01       	movw	r24, r28
    24a0:	82 57       	subi	r24, 0x72	; 114
    24a2:	9f 4f       	sbci	r25, 0xFF	; 255
    24a4:	9e 01       	movw	r18, r28
    24a6:	2f 5e       	subi	r18, 0xEF	; 239
    24a8:	3f 4f       	sbci	r19, 0xFF	; 255
    24aa:	b9 01       	movw	r22, r18
    24ac:	0e 94 cd 14 	call	0x299a	; 0x299a <strcmp>
    24b0:	00 97       	sbiw	r24, 0x00	; 0
    24b2:	19 f4       	brne	.+6      	; 0x24ba <_Z10SendToWAVRhh+0x75a>
    24b4:	81 e0       	ldi	r24, 0x01	; 1
    24b6:	89 83       	std	Y+1, r24	; 0x01
    24b8:	38 c0       	rjmp	.+112    	; 0x252a <_Z10SendToWAVRhh+0x7ca>
    24ba:	18 8a       	std	Y+16, r1	; 0x10
    24bc:	1f 86       	std	Y+15, r1	; 0x0f
    24be:	88 e5       	ldi	r24, 0x58	; 88
    24c0:	91 e0       	ldi	r25, 0x01	; 1
    24c2:	0e 94 75 0c 	call	0x18ea	; 0x18ea <_Z9PrintWAVRPc>
    24c6:	31 c0       	rjmp	.+98     	; 0x252a <_Z10SendToWAVRhh+0x7ca>
    24c8:	ce 01       	movw	r24, r28
    24ca:	84 55       	subi	r24, 0x54	; 84
    24cc:	9f 4f       	sbci	r25, 0xFF	; 255
    24ce:	fc 01       	movw	r30, r24
    24d0:	80 81       	ld	r24, Z
    24d2:	91 81       	ldd	r25, Z+1	; 0x01
    24d4:	9e 01       	movw	r18, r28
    24d6:	22 57       	subi	r18, 0x72	; 114
    24d8:	3f 4f       	sbci	r19, 0xFF	; 255
    24da:	28 0f       	add	r18, r24
    24dc:	39 1f       	adc	r19, r25
    24de:	4e 85       	ldd	r20, Y+14	; 0x0e
    24e0:	f9 01       	movw	r30, r18
    24e2:	40 83       	st	Z, r20
    24e4:	9c 01       	movw	r18, r24
    24e6:	2f 5f       	subi	r18, 0xFF	; 255
    24e8:	3f 4f       	sbci	r19, 0xFF	; 255
    24ea:	ce 01       	movw	r24, r28
    24ec:	84 55       	subi	r24, 0x54	; 84
    24ee:	9f 4f       	sbci	r25, 0xFF	; 255
    24f0:	fc 01       	movw	r30, r24
    24f2:	31 83       	std	Z+1, r19	; 0x01
    24f4:	20 83       	st	Z, r18
    24f6:	ce 01       	movw	r24, r28
    24f8:	84 55       	subi	r24, 0x54	; 84
    24fa:	9f 4f       	sbci	r25, 0xFF	; 255
    24fc:	fc 01       	movw	r30, r24
    24fe:	80 81       	ld	r24, Z
    2500:	91 81       	ldd	r25, Z+1	; 0x01
    2502:	21 e0       	ldi	r18, 0x01	; 1
    2504:	8f 31       	cpi	r24, 0x1F	; 31
    2506:	91 05       	cpc	r25, r1
    2508:	0c f4       	brge	.+2      	; 0x250c <_Z10SendToWAVRhh+0x7ac>
    250a:	20 e0       	ldi	r18, 0x00	; 0
    250c:	22 23       	and	r18, r18
    250e:	69 f0       	breq	.+26     	; 0x252a <_Z10SendToWAVRhh+0x7ca>
    2510:	ce 01       	movw	r24, r28
    2512:	84 55       	subi	r24, 0x54	; 84
    2514:	9f 4f       	sbci	r25, 0xFF	; 255
    2516:	fc 01       	movw	r30, r24
    2518:	11 82       	std	Z+1, r1	; 0x01
    251a:	10 82       	st	Z, r1
    251c:	18 8a       	std	Y+16, r1	; 0x10
    251e:	1f 86       	std	Y+15, r1	; 0x0f
    2520:	18 86       	std	Y+8, r1	; 0x08
    2522:	88 e5       	ldi	r24, 0x58	; 88
    2524:	91 e0       	ldi	r25, 0x01	; 1
    2526:	0e 94 75 0c 	call	0x18ea	; 0x18ea <_Z9PrintWAVRPc>
    252a:	88 85       	ldd	r24, Y+8	; 0x08
    252c:	88 23       	and	r24, r24
    252e:	29 f0       	breq	.+10     	; 0x253a <_Z10SendToWAVRhh+0x7da>
    2530:	8a 81       	ldd	r24, Y+2	; 0x02
    2532:	88 23       	and	r24, r24
    2534:	11 f0       	breq	.+4      	; 0x253a <_Z10SendToWAVRhh+0x7da>
    2536:	81 e0       	ldi	r24, 0x01	; 1
    2538:	01 c0       	rjmp	.+2      	; 0x253c <_Z10SendToWAVRhh+0x7dc>
    253a:	80 e0       	ldi	r24, 0x00	; 0
    253c:	88 23       	and	r24, r24
    253e:	09 f0       	breq	.+2      	; 0x2542 <_Z10SendToWAVRhh+0x7e2>
    2540:	89 cf       	rjmp	.-238    	; 0x2454 <_Z10SendToWAVRhh+0x6f4>
    2542:	03 c0       	rjmp	.+6      	; 0x254a <_Z10SendToWAVRhh+0x7ea>
    2544:	18 8a       	std	Y+16, r1	; 0x10
    2546:	1f 86       	std	Y+15, r1	; 0x0f
    2548:	00 00       	nop
    254a:	2f a5       	lds	r18, 0x6f
    254c:	38 a9       	sts	0x48, r19
    254e:	89 a9       	sts	0x49, r24
    2550:	9a a9       	sts	0x4a, r25
    2552:	41 e0       	ldi	r20, 0x01	; 1
    2554:	28 17       	cp	r18, r24
    2556:	39 07       	cpc	r19, r25
    2558:	09 f4       	brne	.+2      	; 0x255c <_Z10SendToWAVRhh+0x7fc>
    255a:	40 e0       	ldi	r20, 0x00	; 0
    255c:	44 23       	and	r20, r20
    255e:	19 f0       	breq	.+6      	; 0x2566 <_Z10SendToWAVRhh+0x806>
    2560:	81 e0       	ldi	r24, 0x01	; 1
    2562:	8a 83       	std	Y+2, r24	; 0x02
    2564:	01 c0       	rjmp	.+2      	; 0x2568 <_Z10SendToWAVRhh+0x808>
    2566:	1a 82       	std	Y+2, r1	; 0x02
    2568:	89 81       	ldd	r24, Y+1	; 0x01
    256a:	88 23       	and	r24, r24
    256c:	29 f4       	brne	.+10     	; 0x2578 <_Z10SendToWAVRhh+0x818>
    256e:	8a 81       	ldd	r24, Y+2	; 0x02
    2570:	88 23       	and	r24, r24
    2572:	11 f0       	breq	.+4      	; 0x2578 <_Z10SendToWAVRhh+0x818>
    2574:	81 e0       	ldi	r24, 0x01	; 1
    2576:	01 c0       	rjmp	.+2      	; 0x257a <_Z10SendToWAVRhh+0x81a>
    2578:	80 e0       	ldi	r24, 0x00	; 0
    257a:	88 23       	and	r24, r24
    257c:	09 f0       	breq	.+2      	; 0x2580 <_Z10SendToWAVRhh+0x820>
    257e:	1d cc       	rjmp	.-1990   	; 0x1dba <_Z10SendToWAVRhh+0x5a>
    2580:	8a 81       	ldd	r24, Y+2	; 0x02
    2582:	88 23       	and	r24, r24
    2584:	89 f0       	breq	.+34     	; 0x25a8 <_Z10SendToWAVRhh+0x848>
    2586:	ce 01       	movw	r24, r28
    2588:	82 55       	subi	r24, 0x52	; 82
    258a:	9f 4f       	sbci	r25, 0xFF	; 255
    258c:	fc 01       	movw	r30, r24
    258e:	80 81       	ld	r24, Z
    2590:	88 23       	and	r24, r24
    2592:	51 f0       	breq	.+20     	; 0x25a8 <_Z10SendToWAVRhh+0x848>
    2594:	ce 01       	movw	r24, r28
    2596:	81 55       	subi	r24, 0x51	; 81
    2598:	9f 4f       	sbci	r25, 0xFF	; 255
    259a:	fc 01       	movw	r30, r24
    259c:	80 81       	ld	r24, Z
    259e:	88 23       	and	r24, r24
    25a0:	19 f4       	brne	.+6      	; 0x25a8 <_Z10SendToWAVRhh+0x848>
    25a2:	10 92 81 01 	sts	0x0181, r1
    25a6:	29 c0       	rjmp	.+82     	; 0x25fa <_Z10SendToWAVRhh+0x89a>
    25a8:	8a 81       	ldd	r24, Y+2	; 0x02
    25aa:	88 23       	and	r24, r24
    25ac:	89 f0       	breq	.+34     	; 0x25d0 <_Z10SendToWAVRhh+0x870>
    25ae:	ce 01       	movw	r24, r28
    25b0:	82 55       	subi	r24, 0x52	; 82
    25b2:	9f 4f       	sbci	r25, 0xFF	; 255
    25b4:	fc 01       	movw	r30, r24
    25b6:	80 81       	ld	r24, Z
    25b8:	88 23       	and	r24, r24
    25ba:	51 f4       	brne	.+20     	; 0x25d0 <_Z10SendToWAVRhh+0x870>
    25bc:	ce 01       	movw	r24, r28
    25be:	81 55       	subi	r24, 0x51	; 81
    25c0:	9f 4f       	sbci	r25, 0xFF	; 255
    25c2:	fc 01       	movw	r30, r24
    25c4:	80 81       	ld	r24, Z
    25c6:	88 23       	and	r24, r24
    25c8:	19 f0       	breq	.+6      	; 0x25d0 <_Z10SendToWAVRhh+0x870>
    25ca:	10 92 82 01 	sts	0x0182, r1
    25ce:	15 c0       	rjmp	.+42     	; 0x25fa <_Z10SendToWAVRhh+0x89a>
    25d0:	8a 81       	ldd	r24, Y+2	; 0x02
    25d2:	88 23       	and	r24, r24
    25d4:	91 f0       	breq	.+36     	; 0x25fa <_Z10SendToWAVRhh+0x89a>
    25d6:	ce 01       	movw	r24, r28
    25d8:	82 55       	subi	r24, 0x52	; 82
    25da:	9f 4f       	sbci	r25, 0xFF	; 255
    25dc:	fc 01       	movw	r30, r24
    25de:	80 81       	ld	r24, Z
    25e0:	88 23       	and	r24, r24
    25e2:	59 f0       	breq	.+22     	; 0x25fa <_Z10SendToWAVRhh+0x89a>
    25e4:	ce 01       	movw	r24, r28
    25e6:	81 55       	subi	r24, 0x51	; 81
    25e8:	9f 4f       	sbci	r25, 0xFF	; 255
    25ea:	fc 01       	movw	r30, r24
    25ec:	80 81       	ld	r24, Z
    25ee:	88 23       	and	r24, r24
    25f0:	21 f0       	breq	.+8      	; 0x25fa <_Z10SendToWAVRhh+0x89a>
    25f2:	10 92 82 01 	sts	0x0182, r1
    25f6:	10 92 81 01 	sts	0x0181, r1
    25fa:	c1 55       	subi	r28, 0x51	; 81
    25fc:	df 4f       	sbci	r29, 0xFF	; 255
    25fe:	0f b6       	in	r0, 0x3f	; 63
    2600:	f8 94       	cli
    2602:	de bf       	out	0x3e, r29	; 62
    2604:	0f be       	out	0x3f, r0	; 63
    2606:	cd bf       	out	0x3d, r28	; 61
    2608:	df 91       	pop	r29
    260a:	cf 91       	pop	r28
    260c:	08 95       	ret

0000260e <_Z11ReceiveBonev>:
    260e:	cf 93       	push	r28
    2610:	df 93       	push	r29
    2612:	cd b7       	in	r28, 0x3d	; 61
    2614:	de b7       	in	r29, 0x3e	; 62
    2616:	2f 97       	sbiw	r28, 0x0f	; 15
    2618:	0f b6       	in	r0, 0x3f	; 63
    261a:	f8 94       	cli
    261c:	de bf       	out	0x3e, r29	; 62
    261e:	0f be       	out	0x3f, r0	; 63
    2620:	cd bf       	out	0x3d, r28	; 61
    2622:	1a 82       	std	Y+2, r1	; 0x02
    2624:	19 82       	std	Y+1, r1	; 0x01
    2626:	81 e0       	ldi	r24, 0x01	; 1
    2628:	8b 83       	std	Y+3, r24	; 0x03
    262a:	86 ec       	ldi	r24, 0xC6	; 198
    262c:	90 e0       	ldi	r25, 0x00	; 0
    262e:	fc 01       	movw	r30, r24
    2630:	80 81       	ld	r24, Z
    2632:	8c 83       	std	Y+4, r24	; 0x04
    2634:	8c 81       	ldd	r24, Y+4	; 0x04
    2636:	8e 32       	cpi	r24, 0x2E	; 46
    2638:	31 f4       	brne	.+12     	; 0x2646 <_Z11ReceiveBonev+0x38>
    263a:	8c e6       	ldi	r24, 0x6C	; 108
    263c:	91 e0       	ldi	r25, 0x01	; 1
    263e:	0e 94 2a 0c 	call	0x1854	; 0x1854 <_Z9PrintBonePc>
    2642:	1b 82       	std	Y+3, r1	; 0x03
    2644:	a8 c0       	rjmp	.+336    	; 0x2796 <_Z11ReceiveBonev+0x188>
    2646:	9e 01       	movw	r18, r28
    2648:	2a 5f       	subi	r18, 0xFA	; 250
    264a:	3f 4f       	sbci	r19, 0xFF	; 255
    264c:	89 81       	ldd	r24, Y+1	; 0x01
    264e:	9a 81       	ldd	r25, Y+2	; 0x02
    2650:	82 0f       	add	r24, r18
    2652:	93 1f       	adc	r25, r19
    2654:	2c 81       	ldd	r18, Y+4	; 0x04
    2656:	fc 01       	movw	r30, r24
    2658:	20 83       	st	Z, r18
    265a:	89 81       	ldd	r24, Y+1	; 0x01
    265c:	9a 81       	ldd	r25, Y+2	; 0x02
    265e:	01 96       	adiw	r24, 0x01	; 1
    2660:	9a 83       	std	Y+2, r25	; 0x02
    2662:	89 83       	std	Y+1, r24	; 0x01
    2664:	98 c0       	rjmp	.+304    	; 0x2796 <_Z11ReceiveBonev+0x188>
    2666:	00 00       	nop
    2668:	80 ec       	ldi	r24, 0xC0	; 192
    266a:	90 e0       	ldi	r25, 0x00	; 0
    266c:	fc 01       	movw	r30, r24
    266e:	80 81       	ld	r24, Z
    2670:	88 23       	and	r24, r24
    2672:	34 f0       	brlt	.+12     	; 0x2680 <_Z11ReceiveBonev+0x72>
    2674:	80 91 7e 01 	lds	r24, 0x017E
    2678:	88 23       	and	r24, r24
    267a:	11 f0       	breq	.+4      	; 0x2680 <_Z11ReceiveBonev+0x72>
    267c:	81 e0       	ldi	r24, 0x01	; 1
    267e:	01 c0       	rjmp	.+2      	; 0x2682 <_Z11ReceiveBonev+0x74>
    2680:	80 e0       	ldi	r24, 0x00	; 0
    2682:	88 23       	and	r24, r24
    2684:	89 f7       	brne	.-30     	; 0x2668 <_Z11ReceiveBonev+0x5a>
    2686:	86 ec       	ldi	r24, 0xC6	; 198
    2688:	90 e0       	ldi	r25, 0x00	; 0
    268a:	fc 01       	movw	r30, r24
    268c:	80 81       	ld	r24, Z
    268e:	8c 83       	std	Y+4, r24	; 0x04
    2690:	8c 81       	ldd	r24, Y+4	; 0x04
    2692:	8e 32       	cpi	r24, 0x2E	; 46
    2694:	09 f0       	breq	.+2      	; 0x2698 <_Z11ReceiveBonev+0x8a>
    2696:	44 c0       	rjmp	.+136    	; 0x2720 <_Z11ReceiveBonev+0x112>
    2698:	9e 01       	movw	r18, r28
    269a:	2a 5f       	subi	r18, 0xFA	; 250
    269c:	3f 4f       	sbci	r19, 0xFF	; 255
    269e:	89 81       	ldd	r24, Y+1	; 0x01
    26a0:	9a 81       	ldd	r25, Y+2	; 0x02
    26a2:	82 0f       	add	r24, r18
    26a4:	93 1f       	adc	r25, r19
    26a6:	fc 01       	movw	r30, r24
    26a8:	10 82       	st	Z, r1
    26aa:	1b 82       	std	Y+3, r1	; 0x03
    26ac:	ce 01       	movw	r24, r28
    26ae:	06 96       	adiw	r24, 0x06	; 6
    26b0:	22 e1       	ldi	r18, 0x12	; 18
    26b2:	31 e0       	ldi	r19, 0x01	; 1
    26b4:	b9 01       	movw	r22, r18
    26b6:	0e 94 cd 14 	call	0x299a	; 0x299a <strcmp>
    26ba:	00 97       	sbiw	r24, 0x00	; 0
    26bc:	31 f4       	brne	.+12     	; 0x26ca <_Z11ReceiveBonev+0xbc>
    26be:	81 e0       	ldi	r24, 0x01	; 1
    26c0:	61 e0       	ldi	r22, 0x01	; 1
    26c2:	40 e0       	ldi	r20, 0x00	; 0
    26c4:	0e 94 e6 13 	call	0x27cc	; 0x27cc <_Z13printTimeDatehhh>
    26c8:	26 c0       	rjmp	.+76     	; 0x2716 <_Z11ReceiveBonev+0x108>
    26ca:	ce 01       	movw	r24, r28
    26cc:	06 96       	adiw	r24, 0x06	; 6
    26ce:	2d e0       	ldi	r18, 0x0D	; 13
    26d0:	31 e0       	ldi	r19, 0x01	; 1
    26d2:	b9 01       	movw	r22, r18
    26d4:	0e 94 cd 14 	call	0x299a	; 0x299a <strcmp>
    26d8:	00 97       	sbiw	r24, 0x00	; 0
    26da:	31 f4       	brne	.+12     	; 0x26e8 <_Z11ReceiveBonev+0xda>
    26dc:	81 e0       	ldi	r24, 0x01	; 1
    26de:	60 e0       	ldi	r22, 0x00	; 0
    26e0:	41 e0       	ldi	r20, 0x01	; 1
    26e2:	0e 94 e6 13 	call	0x27cc	; 0x27cc <_Z13printTimeDatehhh>
    26e6:	17 c0       	rjmp	.+46     	; 0x2716 <_Z11ReceiveBonev+0x108>
    26e8:	ce 01       	movw	r24, r28
    26ea:	06 96       	adiw	r24, 0x06	; 6
    26ec:	27 e1       	ldi	r18, 0x17	; 23
    26ee:	31 e0       	ldi	r19, 0x01	; 1
    26f0:	b9 01       	movw	r22, r18
    26f2:	0e 94 cd 14 	call	0x299a	; 0x299a <strcmp>
    26f6:	00 97       	sbiw	r24, 0x00	; 0
    26f8:	31 f4       	brne	.+12     	; 0x2706 <_Z11ReceiveBonev+0xf8>
    26fa:	81 e0       	ldi	r24, 0x01	; 1
    26fc:	61 e0       	ldi	r22, 0x01	; 1
    26fe:	41 e0       	ldi	r20, 0x01	; 1
    2700:	0e 94 e6 13 	call	0x27cc	; 0x27cc <_Z13printTimeDatehhh>
    2704:	08 c0       	rjmp	.+16     	; 0x2716 <_Z11ReceiveBonev+0x108>
    2706:	81 e2       	ldi	r24, 0x21	; 33
    2708:	91 e0       	ldi	r25, 0x01	; 1
    270a:	0e 94 2a 0c 	call	0x1854	; 0x1854 <_Z9PrintBonePc>
    270e:	ce 01       	movw	r24, r28
    2710:	06 96       	adiw	r24, 0x06	; 6
    2712:	0e 94 2a 0c 	call	0x1854	; 0x1854 <_Z9PrintBonePc>
    2716:	10 92 b0 01 	sts	0x01B0, r1
    271a:	10 92 af 01 	sts	0x01AF, r1
    271e:	3b c0       	rjmp	.+118    	; 0x2796 <_Z11ReceiveBonev+0x188>
    2720:	80 91 af 01 	lds	r24, 0x01AF
    2724:	90 91 b0 01 	lds	r25, 0x01B0
    2728:	21 e0       	ldi	r18, 0x01	; 1
    272a:	84 30       	cpi	r24, 0x04	; 4
    272c:	91 05       	cpc	r25, r1
    272e:	0c f4       	brge	.+2      	; 0x2732 <_Z11ReceiveBonev+0x124>
    2730:	20 e0       	ldi	r18, 0x00	; 0
    2732:	22 23       	and	r18, r18
    2734:	59 f0       	breq	.+22     	; 0x274c <_Z11ReceiveBonev+0x13e>
    2736:	8e e6       	ldi	r24, 0x6E	; 110
    2738:	91 e0       	ldi	r25, 0x01	; 1
    273a:	0e 94 2a 0c 	call	0x1854	; 0x1854 <_Z9PrintBonePc>
    273e:	10 92 7e 01 	sts	0x017E, r1
    2742:	10 92 b0 01 	sts	0x01B0, r1
    2746:	10 92 af 01 	sts	0x01AF, r1
    274a:	25 c0       	rjmp	.+74     	; 0x2796 <_Z11ReceiveBonev+0x188>
    274c:	9e 01       	movw	r18, r28
    274e:	2a 5f       	subi	r18, 0xFA	; 250
    2750:	3f 4f       	sbci	r19, 0xFF	; 255
    2752:	89 81       	ldd	r24, Y+1	; 0x01
    2754:	9a 81       	ldd	r25, Y+2	; 0x02
    2756:	82 0f       	add	r24, r18
    2758:	93 1f       	adc	r25, r19
    275a:	2c 81       	ldd	r18, Y+4	; 0x04
    275c:	fc 01       	movw	r30, r24
    275e:	20 83       	st	Z, r18
    2760:	89 81       	ldd	r24, Y+1	; 0x01
    2762:	9a 81       	ldd	r25, Y+2	; 0x02
    2764:	01 96       	adiw	r24, 0x01	; 1
    2766:	9a 83       	std	Y+2, r25	; 0x02
    2768:	89 83       	std	Y+1, r24	; 0x01
    276a:	89 81       	ldd	r24, Y+1	; 0x01
    276c:	9a 81       	ldd	r25, Y+2	; 0x02
    276e:	8a 30       	cpi	r24, 0x0A	; 10
    2770:	91 05       	cpc	r25, r1
    2772:	8c f0       	brlt	.+34     	; 0x2796 <_Z11ReceiveBonev+0x188>
    2774:	1a 82       	std	Y+2, r1	; 0x02
    2776:	19 82       	std	Y+1, r1	; 0x01
    2778:	80 91 af 01 	lds	r24, 0x01AF
    277c:	90 91 b0 01 	lds	r25, 0x01B0
    2780:	01 96       	adiw	r24, 0x01	; 1
    2782:	90 93 b0 01 	sts	0x01B0, r25
    2786:	80 93 af 01 	sts	0x01AF, r24
    278a:	10 92 7e 01 	sts	0x017E, r1
    278e:	87 e7       	ldi	r24, 0x77	; 119
    2790:	91 e0       	ldi	r25, 0x01	; 1
    2792:	0e 94 2a 0c 	call	0x1854	; 0x1854 <_Z9PrintBonePc>
    2796:	8b 81       	ldd	r24, Y+3	; 0x03
    2798:	88 23       	and	r24, r24
    279a:	31 f0       	breq	.+12     	; 0x27a8 <_Z11ReceiveBonev+0x19a>
    279c:	80 91 7e 01 	lds	r24, 0x017E
    27a0:	88 23       	and	r24, r24
    27a2:	11 f0       	breq	.+4      	; 0x27a8 <_Z11ReceiveBonev+0x19a>
    27a4:	81 e0       	ldi	r24, 0x01	; 1
    27a6:	01 c0       	rjmp	.+2      	; 0x27aa <_Z11ReceiveBonev+0x19c>
    27a8:	80 e0       	ldi	r24, 0x00	; 0
    27aa:	88 23       	and	r24, r24
    27ac:	09 f0       	breq	.+2      	; 0x27b0 <_Z11ReceiveBonev+0x1a2>
    27ae:	5b cf       	rjmp	.-330    	; 0x2666 <_Z11ReceiveBonev+0x58>
    27b0:	86 ec       	ldi	r24, 0xC6	; 198
    27b2:	90 e0       	ldi	r25, 0x00	; 0
    27b4:	fc 01       	movw	r30, r24
    27b6:	80 81       	ld	r24, Z
    27b8:	8d 83       	std	Y+5, r24	; 0x05
    27ba:	2f 96       	adiw	r28, 0x0f	; 15
    27bc:	0f b6       	in	r0, 0x3f	; 63
    27be:	f8 94       	cli
    27c0:	de bf       	out	0x3e, r29	; 62
    27c2:	0f be       	out	0x3f, r0	; 63
    27c4:	cd bf       	out	0x3d, r28	; 61
    27c6:	df 91       	pop	r29
    27c8:	cf 91       	pop	r28
    27ca:	08 95       	ret

000027cc <_Z13printTimeDatehhh>:
    27cc:	cf 93       	push	r28
    27ce:	df 93       	push	r29
    27d0:	cd b7       	in	r28, 0x3d	; 61
    27d2:	de b7       	in	r29, 0x3e	; 62
    27d4:	eb 97       	sbiw	r28, 0x3b	; 59
    27d6:	0f b6       	in	r0, 0x3f	; 63
    27d8:	f8 94       	cli
    27da:	de bf       	out	0x3e, r29	; 62
    27dc:	0f be       	out	0x3f, r0	; 63
    27de:	cd bf       	out	0x3d, r28	; 61
    27e0:	89 af       	sts	0x79, r24
    27e2:	6a af       	sts	0x7a, r22
    27e4:	4b af       	sts	0x7b, r20
    27e6:	89 ad       	sts	0x69, r24
    27e8:	88 23       	and	r24, r24
    27ea:	31 f1       	breq	.+76     	; 0x2838 <_Z13printTimeDatehhh+0x6c>
    27ec:	8a ad       	sts	0x6a, r24
    27ee:	88 23       	and	r24, r24
    27f0:	89 f0       	breq	.+34     	; 0x2814 <_Z13printTimeDatehhh+0x48>
    27f2:	87 e8       	ldi	r24, 0x87	; 135
    27f4:	91 e0       	ldi	r25, 0x01	; 1
    27f6:	0e 94 b0 05 	call	0xb60	; 0xb60 <_ZN6myTime7getTimeEv>
    27fa:	9c 01       	movw	r18, r24
    27fc:	ce 01       	movw	r24, r28
    27fe:	01 96       	adiw	r24, 0x01	; 1
    2800:	b9 01       	movw	r22, r18
    2802:	0e 94 d6 14 	call	0x29ac	; 0x29ac <strcpy>
    2806:	ce 01       	movw	r24, r28
    2808:	01 96       	adiw	r24, 0x01	; 1
    280a:	0e 94 2a 0c 	call	0x1854	; 0x1854 <_Z9PrintBonePc>
    280e:	8f e2       	ldi	r24, 0x2F	; 47
    2810:	0e 94 0c 0c 	call	0x1818	; 0x1818 <_Z13PutUartChBonec>
    2814:	8b ad       	sts	0x6b, r24
    2816:	88 23       	and	r24, r24
    2818:	a1 f1       	breq	.+104    	; 0x2882 <_Z13printTimeDatehhh+0xb6>
    281a:	87 e8       	ldi	r24, 0x87	; 135
    281c:	91 e0       	ldi	r25, 0x01	; 1
    281e:	0e 94 02 03 	call	0x604	; 0x604 <_ZN6myDate7getDateEv>
    2822:	9c 01       	movw	r18, r24
    2824:	ce 01       	movw	r24, r28
    2826:	0c 96       	adiw	r24, 0x0c	; 12
    2828:	b9 01       	movw	r22, r18
    282a:	0e 94 d6 14 	call	0x29ac	; 0x29ac <strcpy>
    282e:	ce 01       	movw	r24, r28
    2830:	0c 96       	adiw	r24, 0x0c	; 12
    2832:	0e 94 2a 0c 	call	0x1854	; 0x1854 <_Z9PrintBonePc>
    2836:	25 c0       	rjmp	.+74     	; 0x2882 <_Z13printTimeDatehhh+0xb6>
    2838:	8a ad       	sts	0x6a, r24
    283a:	88 23       	and	r24, r24
    283c:	89 f0       	breq	.+34     	; 0x2860 <_Z13printTimeDatehhh+0x94>
    283e:	87 e8       	ldi	r24, 0x87	; 135
    2840:	91 e0       	ldi	r25, 0x01	; 1
    2842:	0e 94 b0 05 	call	0xb60	; 0xb60 <_ZN6myTime7getTimeEv>
    2846:	9c 01       	movw	r18, r24
    2848:	ce 01       	movw	r24, r28
    284a:	4d 96       	adiw	r24, 0x1d	; 29
    284c:	b9 01       	movw	r22, r18
    284e:	0e 94 d6 14 	call	0x29ac	; 0x29ac <strcpy>
    2852:	ce 01       	movw	r24, r28
    2854:	4d 96       	adiw	r24, 0x1d	; 29
    2856:	0e 94 75 0c 	call	0x18ea	; 0x18ea <_Z9PrintWAVRPc>
    285a:	8f e2       	ldi	r24, 0x2F	; 47
    285c:	0e 94 57 0c 	call	0x18ae	; 0x18ae <_Z13PutUartChWAVRc>
    2860:	8b ad       	sts	0x6b, r24
    2862:	88 23       	and	r24, r24
    2864:	71 f0       	breq	.+28     	; 0x2882 <_Z13printTimeDatehhh+0xb6>
    2866:	87 e8       	ldi	r24, 0x87	; 135
    2868:	91 e0       	ldi	r25, 0x01	; 1
    286a:	0e 94 02 03 	call	0x604	; 0x604 <_ZN6myDate7getDateEv>
    286e:	9c 01       	movw	r18, r24
    2870:	ce 01       	movw	r24, r28
    2872:	88 96       	adiw	r24, 0x28	; 40
    2874:	b9 01       	movw	r22, r18
    2876:	0e 94 d6 14 	call	0x29ac	; 0x29ac <strcpy>
    287a:	ce 01       	movw	r24, r28
    287c:	88 96       	adiw	r24, 0x28	; 40
    287e:	0e 94 75 0c 	call	0x18ea	; 0x18ea <_Z9PrintWAVRPc>
    2882:	eb 96       	adiw	r28, 0x3b	; 59
    2884:	0f b6       	in	r0, 0x3f	; 63
    2886:	f8 94       	cli
    2888:	de bf       	out	0x3e, r29	; 62
    288a:	0f be       	out	0x3f, r0	; 63
    288c:	cd bf       	out	0x3d, r28	; 61
    288e:	df 91       	pop	r29
    2890:	cf 91       	pop	r28
    2892:	08 95       	ret

00002894 <_Z41__static_initialization_and_destruction_0ii>:
    2894:	cf 93       	push	r28
    2896:	df 93       	push	r29
    2898:	00 d0       	rcall	.+0      	; 0x289a <_Z41__static_initialization_and_destruction_0ii+0x6>
    289a:	00 d0       	rcall	.+0      	; 0x289c <_Z41__static_initialization_and_destruction_0ii+0x8>
    289c:	cd b7       	in	r28, 0x3d	; 61
    289e:	de b7       	in	r29, 0x3e	; 62
    28a0:	9a 83       	std	Y+2, r25	; 0x02
    28a2:	89 83       	std	Y+1, r24	; 0x01
    28a4:	7c 83       	std	Y+4, r23	; 0x04
    28a6:	6b 83       	std	Y+3, r22	; 0x03
    28a8:	89 81       	ldd	r24, Y+1	; 0x01
    28aa:	9a 81       	ldd	r25, Y+2	; 0x02
    28ac:	81 30       	cpi	r24, 0x01	; 1
    28ae:	91 05       	cpc	r25, r1
    28b0:	51 f4       	brne	.+20     	; 0x28c6 <_Z41__static_initialization_and_destruction_0ii+0x32>
    28b2:	8b 81       	ldd	r24, Y+3	; 0x03
    28b4:	9c 81       	ldd	r25, Y+4	; 0x04
    28b6:	2f ef       	ldi	r18, 0xFF	; 255
    28b8:	8f 3f       	cpi	r24, 0xFF	; 255
    28ba:	92 07       	cpc	r25, r18
    28bc:	21 f4       	brne	.+8      	; 0x28c6 <_Z41__static_initialization_and_destruction_0ii+0x32>
    28be:	87 e8       	ldi	r24, 0x87	; 135
    28c0:	91 e0       	ldi	r25, 0x01	; 1
    28c2:	0e 94 91 03 	call	0x722	; 0x722 <_ZN6myTimeC1Ev>
    28c6:	0f 90       	pop	r0
    28c8:	0f 90       	pop	r0
    28ca:	0f 90       	pop	r0
    28cc:	0f 90       	pop	r0
    28ce:	df 91       	pop	r29
    28d0:	cf 91       	pop	r28
    28d2:	08 95       	ret

000028d4 <_GLOBAL__sub_I__ZN6myDateC2Ev>:
    28d4:	cf 93       	push	r28
    28d6:	df 93       	push	r29
    28d8:	cd b7       	in	r28, 0x3d	; 61
    28da:	de b7       	in	r29, 0x3e	; 62
    28dc:	81 e0       	ldi	r24, 0x01	; 1
    28de:	90 e0       	ldi	r25, 0x00	; 0
    28e0:	6f ef       	ldi	r22, 0xFF	; 255
    28e2:	7f ef       	ldi	r23, 0xFF	; 255
    28e4:	0e 94 4a 14 	call	0x2894	; 0x2894 <_Z41__static_initialization_and_destruction_0ii>
    28e8:	df 91       	pop	r29
    28ea:	cf 91       	pop	r28
    28ec:	08 95       	ret

000028ee <__divmodhi4>:
    28ee:	97 fb       	bst	r25, 7
    28f0:	09 2e       	mov	r0, r25
    28f2:	07 26       	eor	r0, r23
    28f4:	0a d0       	rcall	.+20     	; 0x290a <__divmodhi4_neg1>
    28f6:	77 fd       	sbrc	r23, 7
    28f8:	04 d0       	rcall	.+8      	; 0x2902 <__divmodhi4_neg2>
    28fa:	0c d0       	rcall	.+24     	; 0x2914 <__udivmodhi4>
    28fc:	06 d0       	rcall	.+12     	; 0x290a <__divmodhi4_neg1>
    28fe:	00 20       	and	r0, r0
    2900:	1a f4       	brpl	.+6      	; 0x2908 <__divmodhi4_exit>

00002902 <__divmodhi4_neg2>:
    2902:	70 95       	com	r23
    2904:	61 95       	neg	r22
    2906:	7f 4f       	sbci	r23, 0xFF	; 255

00002908 <__divmodhi4_exit>:
    2908:	08 95       	ret

0000290a <__divmodhi4_neg1>:
    290a:	f6 f7       	brtc	.-4      	; 0x2908 <__divmodhi4_exit>
    290c:	90 95       	com	r25
    290e:	81 95       	neg	r24
    2910:	9f 4f       	sbci	r25, 0xFF	; 255
    2912:	08 95       	ret

00002914 <__udivmodhi4>:
    2914:	aa 1b       	sub	r26, r26
    2916:	bb 1b       	sub	r27, r27
    2918:	51 e1       	ldi	r21, 0x11	; 17
    291a:	07 c0       	rjmp	.+14     	; 0x292a <__udivmodhi4_ep>

0000291c <__udivmodhi4_loop>:
    291c:	aa 1f       	adc	r26, r26
    291e:	bb 1f       	adc	r27, r27
    2920:	a6 17       	cp	r26, r22
    2922:	b7 07       	cpc	r27, r23
    2924:	10 f0       	brcs	.+4      	; 0x292a <__udivmodhi4_ep>
    2926:	a6 1b       	sub	r26, r22
    2928:	b7 0b       	sbc	r27, r23

0000292a <__udivmodhi4_ep>:
    292a:	88 1f       	adc	r24, r24
    292c:	99 1f       	adc	r25, r25
    292e:	5a 95       	dec	r21
    2930:	a9 f7       	brne	.-22     	; 0x291c <__udivmodhi4_loop>
    2932:	80 95       	com	r24
    2934:	90 95       	com	r25
    2936:	bc 01       	movw	r22, r24
    2938:	cd 01       	movw	r24, r26
    293a:	08 95       	ret

0000293c <__tablejump2__>:
    293c:	ee 0f       	add	r30, r30
    293e:	ff 1f       	adc	r31, r31

00002940 <__tablejump__>:
    2940:	05 90       	lpm	r0, Z+
    2942:	f4 91       	lpm	r31, Z
    2944:	e0 2d       	mov	r30, r0
    2946:	09 94       	ijmp

00002948 <atoi>:
    2948:	fc 01       	movw	r30, r24
    294a:	88 27       	eor	r24, r24
    294c:	99 27       	eor	r25, r25
    294e:	e8 94       	clt
    2950:	21 91       	ld	r18, Z+
    2952:	20 32       	cpi	r18, 0x20	; 32
    2954:	e9 f3       	breq	.-6      	; 0x2950 <atoi+0x8>
    2956:	29 30       	cpi	r18, 0x09	; 9
    2958:	10 f0       	brcs	.+4      	; 0x295e <atoi+0x16>
    295a:	2e 30       	cpi	r18, 0x0E	; 14
    295c:	c8 f3       	brcs	.-14     	; 0x2950 <atoi+0x8>
    295e:	2b 32       	cpi	r18, 0x2B	; 43
    2960:	41 f0       	breq	.+16     	; 0x2972 <atoi+0x2a>
    2962:	2d 32       	cpi	r18, 0x2D	; 45
    2964:	39 f4       	brne	.+14     	; 0x2974 <atoi+0x2c>
    2966:	68 94       	set
    2968:	04 c0       	rjmp	.+8      	; 0x2972 <atoi+0x2a>
    296a:	0e 94 fe 14 	call	0x29fc	; 0x29fc <__mulhi_const_10>
    296e:	82 0f       	add	r24, r18
    2970:	91 1d       	adc	r25, r1
    2972:	21 91       	ld	r18, Z+
    2974:	20 53       	subi	r18, 0x30	; 48
    2976:	2a 30       	cpi	r18, 0x0A	; 10
    2978:	c0 f3       	brcs	.-16     	; 0x296a <atoi+0x22>
    297a:	1e f4       	brtc	.+6      	; 0x2982 <atoi+0x3a>
    297c:	90 95       	com	r25
    297e:	81 95       	neg	r24
    2980:	9f 4f       	sbci	r25, 0xFF	; 255
    2982:	08 95       	ret

00002984 <strcat>:
    2984:	fb 01       	movw	r30, r22
    2986:	dc 01       	movw	r26, r24
    2988:	0d 90       	ld	r0, X+
    298a:	00 20       	and	r0, r0
    298c:	e9 f7       	brne	.-6      	; 0x2988 <strcat+0x4>
    298e:	11 97       	sbiw	r26, 0x01	; 1
    2990:	01 90       	ld	r0, Z+
    2992:	0d 92       	st	X+, r0
    2994:	00 20       	and	r0, r0
    2996:	e1 f7       	brne	.-8      	; 0x2990 <strcat+0xc>
    2998:	08 95       	ret

0000299a <strcmp>:
    299a:	fb 01       	movw	r30, r22
    299c:	dc 01       	movw	r26, r24
    299e:	8d 91       	ld	r24, X+
    29a0:	01 90       	ld	r0, Z+
    29a2:	80 19       	sub	r24, r0
    29a4:	01 10       	cpse	r0, r1
    29a6:	d9 f3       	breq	.-10     	; 0x299e <strcmp+0x4>
    29a8:	99 0b       	sbc	r25, r25
    29aa:	08 95       	ret

000029ac <strcpy>:
    29ac:	fb 01       	movw	r30, r22
    29ae:	dc 01       	movw	r26, r24
    29b0:	01 90       	ld	r0, Z+
    29b2:	0d 92       	st	X+, r0
    29b4:	00 20       	and	r0, r0
    29b6:	e1 f7       	brne	.-8      	; 0x29b0 <strcpy+0x4>
    29b8:	08 95       	ret

000029ba <itoa>:
    29ba:	fb 01       	movw	r30, r22
    29bc:	9f 01       	movw	r18, r30
    29be:	e8 94       	clt
    29c0:	42 30       	cpi	r20, 0x02	; 2
    29c2:	c4 f0       	brlt	.+48     	; 0x29f4 <itoa+0x3a>
    29c4:	45 32       	cpi	r20, 0x25	; 37
    29c6:	b4 f4       	brge	.+44     	; 0x29f4 <itoa+0x3a>
    29c8:	4a 30       	cpi	r20, 0x0A	; 10
    29ca:	29 f4       	brne	.+10     	; 0x29d6 <itoa+0x1c>
    29cc:	97 fb       	bst	r25, 7
    29ce:	1e f4       	brtc	.+6      	; 0x29d6 <itoa+0x1c>
    29d0:	90 95       	com	r25
    29d2:	81 95       	neg	r24
    29d4:	9f 4f       	sbci	r25, 0xFF	; 255
    29d6:	64 2f       	mov	r22, r20
    29d8:	77 27       	eor	r23, r23
    29da:	0e 94 8a 14 	call	0x2914	; 0x2914 <__udivmodhi4>
    29de:	80 5d       	subi	r24, 0xD0	; 208
    29e0:	8a 33       	cpi	r24, 0x3A	; 58
    29e2:	0c f0       	brlt	.+2      	; 0x29e6 <itoa+0x2c>
    29e4:	89 5d       	subi	r24, 0xD9	; 217
    29e6:	81 93       	st	Z+, r24
    29e8:	cb 01       	movw	r24, r22
    29ea:	00 97       	sbiw	r24, 0x00	; 0
    29ec:	a1 f7       	brne	.-24     	; 0x29d6 <itoa+0x1c>
    29ee:	16 f4       	brtc	.+4      	; 0x29f4 <itoa+0x3a>
    29f0:	5d e2       	ldi	r21, 0x2D	; 45
    29f2:	51 93       	st	Z+, r21
    29f4:	10 82       	st	Z, r1
    29f6:	c9 01       	movw	r24, r18
    29f8:	0c 94 27 15 	jmp	0x2a4e	; 0x2a4e <strrev>

000029fc <__mulhi_const_10>:
    29fc:	7a e0       	ldi	r23, 0x0A	; 10
    29fe:	97 9f       	mul	r25, r23
    2a00:	90 2d       	mov	r25, r0
    2a02:	87 9f       	mul	r24, r23
    2a04:	80 2d       	mov	r24, r0
    2a06:	91 0d       	add	r25, r1
    2a08:	11 24       	eor	r1, r1
    2a0a:	08 95       	ret

00002a0c <__eerd_byte_m644pa>:
    2a0c:	f9 99       	sbic	0x1f, 1	; 31
    2a0e:	fe cf       	rjmp	.-4      	; 0x2a0c <__eerd_byte_m644pa>
    2a10:	92 bd       	out	0x22, r25	; 34
    2a12:	81 bd       	out	0x21, r24	; 33
    2a14:	f8 9a       	sbi	0x1f, 0	; 31
    2a16:	99 27       	eor	r25, r25
    2a18:	80 b5       	in	r24, 0x20	; 32
    2a1a:	08 95       	ret

00002a1c <__eerd_word_m644pa>:
    2a1c:	a8 e1       	ldi	r26, 0x18	; 24
    2a1e:	b0 e0       	ldi	r27, 0x00	; 0
    2a20:	42 e0       	ldi	r20, 0x02	; 2
    2a22:	50 e0       	ldi	r21, 0x00	; 0
    2a24:	0c 94 39 15 	jmp	0x2a72	; 0x2a72 <__eerd_blraw_m644pa>

00002a28 <__eewr_byte_m644pa>:
    2a28:	26 2f       	mov	r18, r22

00002a2a <__eewr_r18_m644pa>:
    2a2a:	f9 99       	sbic	0x1f, 1	; 31
    2a2c:	fe cf       	rjmp	.-4      	; 0x2a2a <__eewr_r18_m644pa>
    2a2e:	1f ba       	out	0x1f, r1	; 31
    2a30:	92 bd       	out	0x22, r25	; 34
    2a32:	81 bd       	out	0x21, r24	; 33
    2a34:	20 bd       	out	0x20, r18	; 32
    2a36:	0f b6       	in	r0, 0x3f	; 63
    2a38:	f8 94       	cli
    2a3a:	fa 9a       	sbi	0x1f, 2	; 31
    2a3c:	f9 9a       	sbi	0x1f, 1	; 31
    2a3e:	0f be       	out	0x3f, r0	; 63
    2a40:	01 96       	adiw	r24, 0x01	; 1
    2a42:	08 95       	ret

00002a44 <__eewr_word_m644pa>:
    2a44:	0e 94 14 15 	call	0x2a28	; 0x2a28 <__eewr_byte_m644pa>
    2a48:	27 2f       	mov	r18, r23
    2a4a:	0c 94 15 15 	jmp	0x2a2a	; 0x2a2a <__eewr_r18_m644pa>

00002a4e <strrev>:
    2a4e:	dc 01       	movw	r26, r24
    2a50:	fc 01       	movw	r30, r24
    2a52:	67 2f       	mov	r22, r23
    2a54:	71 91       	ld	r23, Z+
    2a56:	77 23       	and	r23, r23
    2a58:	e1 f7       	brne	.-8      	; 0x2a52 <strrev+0x4>
    2a5a:	32 97       	sbiw	r30, 0x02	; 2
    2a5c:	04 c0       	rjmp	.+8      	; 0x2a66 <strrev+0x18>
    2a5e:	7c 91       	ld	r23, X
    2a60:	6d 93       	st	X+, r22
    2a62:	70 83       	st	Z, r23
    2a64:	62 91       	ld	r22, -Z
    2a66:	ae 17       	cp	r26, r30
    2a68:	bf 07       	cpc	r27, r31
    2a6a:	c8 f3       	brcs	.-14     	; 0x2a5e <strrev+0x10>
    2a6c:	08 95       	ret

00002a6e <__eerd_block_m644pa>:
    2a6e:	dc 01       	movw	r26, r24
    2a70:	cb 01       	movw	r24, r22

00002a72 <__eerd_blraw_m644pa>:
    2a72:	fc 01       	movw	r30, r24
    2a74:	f9 99       	sbic	0x1f, 1	; 31
    2a76:	fe cf       	rjmp	.-4      	; 0x2a74 <__eerd_blraw_m644pa+0x2>
    2a78:	06 c0       	rjmp	.+12     	; 0x2a86 <__eerd_blraw_m644pa+0x14>
    2a7a:	f2 bd       	out	0x22, r31	; 34
    2a7c:	e1 bd       	out	0x21, r30	; 33
    2a7e:	f8 9a       	sbi	0x1f, 0	; 31
    2a80:	31 96       	adiw	r30, 0x01	; 1
    2a82:	00 b4       	in	r0, 0x20	; 32
    2a84:	0d 92       	st	X+, r0
    2a86:	41 50       	subi	r20, 0x01	; 1
    2a88:	50 40       	sbci	r21, 0x00	; 0
    2a8a:	b8 f7       	brcc	.-18     	; 0x2a7a <__eerd_blraw_m644pa+0x8>
    2a8c:	08 95       	ret

00002a8e <_exit>:
    2a8e:	f8 94       	cli

00002a90 <__stop_program>:
    2a90:	ff cf       	rjmp	.-2      	; 0x2a90 <__stop_program>
